
obj/pke：     文件格式 elf64-littleriscv


Disassembly of section .text:

0000000080000000 <_ftext>:
    80000000:	1f80006f          	j	800001f8 <do_reset>

0000000080000004 <trap_vector>:
    80000004:	34011173          	csrrw	sp,mscratch,sp
    80000008:	1a010863          	beqz	sp,800001b8 <restore_regs+0x80>
    8000000c:	04a13823          	sd	a0,80(sp)
    80000010:	04b13c23          	sd	a1,88(sp)
    80000014:	342025f3          	csrr	a1,mcause
    80000018:	0805d263          	bgez	a1,8000009c <trap_vector+0x98>
    8000001c:	00159593          	slli	a1,a1,0x1
    80000020:	00e00513          	li	a0,14
    80000024:	02b51263          	bne	a0,a1,80000048 <trap_vector+0x44>
    80000028:	08000513          	li	a0,128
    8000002c:	30453073          	csrc	mie,a0
    80000030:	02000513          	li	a0,32
    80000034:	34452073          	csrs	mip,a0
    80000038:	05013503          	ld	a0,80(sp)
    8000003c:	05813583          	ld	a1,88(sp)
    80000040:	34011173          	csrrw	sp,mscratch,sp
    80000044:	30200073          	mret
    80000048:	00600513          	li	a0,6
    8000004c:	18b51263          	bne	a0,a1,800001d0 <restore_regs+0x98>
    80000050:	10013503          	ld	a0,256(sp)
    80000054:	00052023          	sw	zero,0(a0)
    80000058:	0ff0000f          	fence
    8000005c:	10810513          	addi	a0,sp,264
    80000060:	0805252f          	amoswap.w	a0,zero,(a0)
    80000064:	00157593          	andi	a1,a0,1
    80000068:	00058463          	beqz	a1,80000070 <trap_vector+0x6c>
    8000006c:	34416073          	csrsi	mip,2
    80000070:	00257593          	andi	a1,a0,2
    80000074:	00058463          	beqz	a1,8000007c <trap_vector+0x78>
    80000078:	0000100f          	fence.i
    8000007c:	00457593          	andi	a1,a0,4
    80000080:	00058463          	beqz	a1,80000088 <trap_vector+0x84>
    80000084:	12000073          	sfence.vma
    80000088:	00857593          	andi	a1,a0,8
    8000008c:	00058663          	beqz	a1,80000098 <trap_vector+0x94>
    80000090:	10500073          	wfi
    80000094:	ff5ff06f          	j	80000088 <trap_vector+0x84>
    80000098:	fa1ff06f          	j	80000038 <trap_vector+0x34>
    8000009c:	00113423          	sd	ra,8(sp)
    800000a0:	00313c23          	sd	gp,24(sp)
    800000a4:	02413023          	sd	tp,32(sp)
    800000a8:	02513423          	sd	t0,40(sp)
    800000ac:	0000b297          	auipc	t0,0xb
    800000b0:	02613823          	sd	t1,48(sp)
    800000b4:	00259313          	slli	t1,a1,0x2
    800000b8:	02713c23          	sd	t2,56(sp)
    800000bc:	00628333          	add	t1,t0,t1
    800000c0:	04813023          	sd	s0,64(sp)
    800000c4:	39436303          	lwu	t1,916(t1)
    800000c8:	04913423          	sd	s1,72(sp)
    800000cc:	00010513          	mv	a0,sp
    800000d0:	06c13023          	sd	a2,96(sp)
    800000d4:	34102673          	csrr	a2,mepc
    800000d8:	06d13423          	sd	a3,104(sp)
    800000dc:	340012f3          	csrrw	t0,mscratch,zero
    800000e0:	06e13823          	sd	a4,112(sp)
    800000e4:	06f13c23          	sd	a5,120(sp)
    800000e8:	09013023          	sd	a6,128(sp)
    800000ec:	09113423          	sd	a7,136(sp)
    800000f0:	09213823          	sd	s2,144(sp)
    800000f4:	09313c23          	sd	s3,152(sp)
    800000f8:	0b413023          	sd	s4,160(sp)
    800000fc:	0b513423          	sd	s5,168(sp)
    80000100:	0b613823          	sd	s6,176(sp)
    80000104:	0b713c23          	sd	s7,184(sp)
    80000108:	0d813023          	sd	s8,192(sp)
    8000010c:	0d913423          	sd	s9,200(sp)
    80000110:	0da13823          	sd	s10,208(sp)
    80000114:	0db13c23          	sd	s11,216(sp)
    80000118:	0fc13023          	sd	t3,224(sp)
    8000011c:	0fd13423          	sd	t4,232(sp)
    80000120:	0fe13823          	sd	t5,240(sp)
    80000124:	0ff13c23          	sd	t6,248(sp)
    80000128:	00513823          	sd	t0,16(sp)
    8000012c:	00013023          	sd	zero,0(sp)
    80000130:	000300e7          	jalr	t1

0000000080000134 <restore_mscratch>:
    80000134:	34011073          	csrw	mscratch,sp

0000000080000138 <restore_regs>:
    80000138:	00813083          	ld	ra,8(sp)
    8000013c:	01813183          	ld	gp,24(sp)
    80000140:	02013203          	ld	tp,32(sp)
    80000144:	02813283          	ld	t0,40(sp)
    80000148:	03013303          	ld	t1,48(sp)
    8000014c:	03813383          	ld	t2,56(sp)
    80000150:	04013403          	ld	s0,64(sp)
    80000154:	04813483          	ld	s1,72(sp)
    80000158:	05013503          	ld	a0,80(sp)
    8000015c:	05813583          	ld	a1,88(sp)
    80000160:	06013603          	ld	a2,96(sp)
    80000164:	06813683          	ld	a3,104(sp)
    80000168:	07013703          	ld	a4,112(sp)
    8000016c:	07813783          	ld	a5,120(sp)
    80000170:	08013803          	ld	a6,128(sp)
    80000174:	08813883          	ld	a7,136(sp)
    80000178:	09013903          	ld	s2,144(sp)
    8000017c:	09813983          	ld	s3,152(sp)
    80000180:	0a013a03          	ld	s4,160(sp)
    80000184:	0a813a83          	ld	s5,168(sp)
    80000188:	0b013b03          	ld	s6,176(sp)
    8000018c:	0b813b83          	ld	s7,184(sp)
    80000190:	0c013c03          	ld	s8,192(sp)
    80000194:	0c813c83          	ld	s9,200(sp)
    80000198:	0d013d03          	ld	s10,208(sp)
    8000019c:	0d813d83          	ld	s11,216(sp)
    800001a0:	0e013e03          	ld	t3,224(sp)
    800001a4:	0e813e83          	ld	t4,232(sp)
    800001a8:	0f013f03          	ld	t5,240(sp)
    800001ac:	0f813f83          	ld	t6,248(sp)
    800001b0:	01013103          	ld	sp,16(sp)
    800001b4:	30200073          	mret
    800001b8:	34002173          	csrr	sp,mscratch
    800001bc:	f0010113          	addi	sp,sp,-256
    800001c0:	04a13823          	sd	a0,80(sp)
    800001c4:	04b13c23          	sd	a1,88(sp)
    800001c8:	00d00593          	li	a1,13
    800001cc:	ed1ff06f          	j	8000009c <trap_vector+0x98>
    800001d0:	00000593          	li	a1,0
    800001d4:	ec9ff06f          	j	8000009c <trap_vector+0x98>

00000000800001d8 <__redirect_trap>:
    800001d8:	000012b7          	lui	t0,0x1
    800001dc:	00510133          	add	sp,sp,t0
    800001e0:	405002b3          	neg	t0,t0
    800001e4:	00517133          	and	sp,sp,t0
    800001e8:	ec010113          	addi	sp,sp,-320
    800001ec:	f49ff06f          	j	80000134 <restore_mscratch>

00000000800001f0 <__trap_from_machine_mode>:
    800001f0:	2c1040ef          	jal	ra,80004cb0 <trap_from_machine_mode>
    800001f4:	f45ff06f          	j	80000138 <restore_regs>

00000000800001f8 <do_reset>:
    800001f8:	00000093          	li	ra,0
    800001fc:	00000113          	li	sp,0
    80000200:	00000193          	li	gp,0
    80000204:	00000213          	li	tp,0
    80000208:	00000293          	li	t0,0
    8000020c:	00000313          	li	t1,0
    80000210:	00000393          	li	t2,0
    80000214:	00000413          	li	s0,0
    80000218:	00000493          	li	s1,0
    8000021c:	00000613          	li	a2,0
    80000220:	00000693          	li	a3,0
    80000224:	00000713          	li	a4,0
    80000228:	00000793          	li	a5,0
    8000022c:	00000813          	li	a6,0
    80000230:	00000893          	li	a7,0
    80000234:	00000913          	li	s2,0
    80000238:	00000993          	li	s3,0
    8000023c:	00000a13          	li	s4,0
    80000240:	00000a93          	li	s5,0
    80000244:	00000b13          	li	s6,0
    80000248:	00000b93          	li	s7,0
    8000024c:	00000c13          	li	s8,0
    80000250:	00000c93          	li	s9,0
    80000254:	00000d13          	li	s10,0
    80000258:	00000d93          	li	s11,0
    8000025c:	00000e13          	li	t3,0
    80000260:	00000e93          	li	t4,0
    80000264:	00000f13          	li	t5,0
    80000268:	00000f93          	li	t6,0
    8000026c:	34001073          	csrw	mscratch,zero
    80000270:	00000297          	auipc	t0,0x0
    80000274:	d9428293          	addi	t0,t0,-620 # 80000004 <trap_vector>
    80000278:	30529073          	csrw	mtvec,t0
    8000027c:	30502373          	csrr	t1,mtvec
    80000280:	00629063          	bne	t0,t1,80000280 <do_reset+0x88>
    80000284:	00012117          	auipc	sp,0x12
    80000288:	c3c10113          	addi	sp,sp,-964 # 80011ec0 <stacks+0xec0>
    8000028c:	f14026f3          	csrr	a3,mhartid
    80000290:	00c69613          	slli	a2,a3,0xc
    80000294:	00c10133          	add	sp,sp,a2
    80000298:	00069463          	bnez	a3,800002a0 <do_reset+0xa8>
    8000029c:	4cd0406f          	j	80004f68 <init_first_hart>
    800002a0:	00800613          	li	a2,8
    800002a4:	30461073          	csrw	mie,a2
    800002a8:	10500073          	wfi
    800002ac:	00019717          	auipc	a4,0x19
    800002b0:	f1c70713          	addi	a4,a4,-228 # 800191c8 <disabled_hart_mask>
    800002b4:	00073703          	ld	a4,0(a4)
    800002b8:	00d75733          	srl	a4,a4,a3
    800002bc:	00177713          	andi	a4,a4,1
    800002c0:	fe0714e3          	bnez	a4,800002a8 <do_reset+0xb0>
    800002c4:	34402673          	csrr	a2,mip
    800002c8:	00867613          	andi	a2,a2,8
    800002cc:	fc060ee3          	beqz	a2,800002a8 <do_reset+0xb0>
    800002d0:	0ff0000f          	fence
    800002d4:	00800613          	li	a2,8
    800002d8:	00c6f463          	bgeu	a3,a2,800002e0 <do_reset+0xe8>
    800002dc:	5990406f          	j	80005074 <init_other_hart>
    800002e0:	10500073          	wfi
    800002e4:	fc5ff06f          	j	800002a8 <do_reset+0xb0>

00000000800002e8 <rest_of_boot_loader>:
    800002e8:	8b010113          	addi	sp,sp,-1872
    800002ec:	800007b7          	lui	a5,0x80000
    800002f0:	74813023          	sd	s0,1856(sp)
    800002f4:	72913c23          	sd	s1,1848(sp)
    800002f8:	1a00                	addi	s0,sp,304
    800002fa:	74113423          	sd	ra,1864(sp)
    800002fe:	73213823          	sd	s2,1840(sp)
    80000302:	fff7c793          	not	a5,a5
    80000306:	84aa                	mv	s1,a0
    80000308:	85a2                	mv	a1,s0
    8000030a:	0087e763          	bltu	a5,s0,80000318 <rest_of_boot_loader+0x30>
    8000030e:	00019597          	auipc	a1,0x19
    80000312:	f825b583          	ld	a1,-126(a1) # 80019290 <first_free_paddr>
    80000316:	95a2                	add	a1,a1,s0
    80000318:	4881                	li	a7,0
    8000031a:	4801                	li	a6,0
    8000031c:	4781                	li	a5,0
    8000031e:	4701                	li	a4,0
    80000320:	4681                	li	a3,0
    80000322:	20000613          	li	a2,512
    80000326:	7db00513          	li	a0,2011
    8000032a:	678000ef          	jal	ra,800009a2 <frontend_syscall>
    8000032e:	12051d63          	bnez	a0,80000468 <rest_of_boot_loader+0x180>
    80000332:	77d2                	ld	a5,304(sp)
    80000334:	4705                	li	a4,1
    80000336:	10f77f63          	bgeu	a4,a5,80000454 <rest_of_boot_loader+0x16c>
    8000033a:	0294                	addi	a3,sp,320
    8000033c:	02d00e13          	li	t3,45
    80000340:	07000313          	li	t1,112
    80000344:	07300893          	li	a7,115
    80000348:	00019817          	auipc	a6,0x19
    8000034c:	e8880813          	addi	a6,a6,-376 # 800191d0 <current>
    80000350:	4505                	li	a0,1
    80000352:	a809                	j	80000364 <rest_of_boot_loader+0x7c>
    80000354:	0000b617          	auipc	a2,0xb
    80000358:	14062a23          	sw	zero,340(a2) # 8000b4a8 <demand_paging>
    8000035c:	0705                	addi	a4,a4,1
    8000035e:	06a1                	addi	a3,a3,8
    80000360:	02e78363          	beq	a5,a4,80000386 <rest_of_boot_loader+0x9e>
    80000364:	6290                	ld	a2,0(a3)
    80000366:	00064583          	lbu	a1,0(a2)
    8000036a:	03c59463          	bne	a1,t3,80000392 <rest_of_boot_loader+0xaa>
    8000036e:	00164583          	lbu	a1,1(a2)
    80000372:	fe6581e3          	beq	a1,t1,80000354 <rest_of_boot_loader+0x6c>
    80000376:	0f159363          	bne	a1,a7,8000045c <rest_of_boot_loader+0x174>
    8000037a:	06a83023          	sd	a0,96(a6)
    8000037e:	0705                	addi	a4,a4,1
    80000380:	06a1                	addi	a3,a3,8
    80000382:	fee791e3          	bne	a5,a4,80000364 <rest_of_boot_loader+0x7c>
    80000386:	00008517          	auipc	a0,0x8
    8000038a:	cda50513          	addi	a0,a0,-806 # 80008060 <illegal_insn_trap_table+0x124>
    8000038e:	5ed000ef          	jal	ra,8000117a <do_panic>
    80000392:	0cf77263          	bgeu	a4,a5,80000456 <rest_of_boot_loader+0x16e>
    80000396:	078e                	slli	a5,a5,0x3
    80000398:	070e                	slli	a4,a4,0x3
    8000039a:	97a2                	add	a5,a5,s0
    8000039c:	8f99                	sub	a5,a5,a4
    8000039e:	00e406b3          	add	a3,s0,a4
    800003a2:	6694                	ld	a3,8(a3)
    800003a4:	0421                	addi	s0,s0,8
    800003a6:	fed43c23          	sd	a3,-8(s0)
    800003aa:	fe879ae3          	bne	a5,s0,8000039e <rest_of_boot_loader+0xb6>
    800003ae:	75d2                	ld	a1,304(sp)
    800003b0:	00019417          	auipc	s0,0x19
    800003b4:	e2040413          	addi	s0,s0,-480 # 800191d0 <current>
    800003b8:	1e1c                	addi	a5,sp,816
    800003ba:	e81c                	sd	a5,16(s0)
    800003bc:	00008517          	auipc	a0,0x8
    800003c0:	cc450513          	addi	a0,a0,-828 # 80008080 <illegal_insn_trap_table+0x144>
    800003c4:	40000793          	li	a5,1024
    800003c8:	ec1c                	sd	a5,24(s0)
    800003ca:	4e1000ef          	jal	ra,800010aa <printk>
    800003ce:	03200613          	li	a2,50
    800003d2:	4581                	li	a1,0
    800003d4:	00019517          	auipc	a0,0x19
    800003d8:	e6c50513          	addi	a0,a0,-404 # 80019240 <current+0x70>
    800003dc:	012070ef          	jal	ra,800073ee <memset>
    800003e0:	75d2                	ld	a1,304(sp)
    800003e2:	03200613          	li	a2,50
    800003e6:	00019517          	auipc	a0,0x19
    800003ea:	e5a50513          	addi	a0,a0,-422 # 80019240 <current+0x70>
    800003ee:	7b1060ef          	jal	ra,8000739e <memcpy>
    800003f2:	386030ef          	jal	ra,80003778 <sched_init>
    800003f6:	2ce030ef          	jal	ra,800036c4 <clock_init>
    800003fa:	769020ef          	jal	ra,80003362 <proc_init>
    800003fe:	00019797          	auipc	a5,0x19
    80000402:	c527b783          	ld	a5,-942(a5) # 80019050 <currentproc>
    80000406:	63f0                	ld	a2,192(a5)
    80000408:	7552                	ld	a0,304(sp)
    8000040a:	85a2                	mv	a1,s0
    8000040c:	25f000ef          	jal	ra,80000e6a <load_elf_user>
    80000410:	025030ef          	jal	ra,80003c34 <init_semaq>
    80000414:	683c                	ld	a5,80(s0)
    80000416:	6c18                	ld	a4,24(s0)
    80000418:	13000613          	li	a2,304
    8000041c:	4581                	li	a1,0
    8000041e:	850a                	mv	a0,sp
    80000420:	02843903          	ld	s2,40(s0)
    80000424:	40e78433          	sub	s0,a5,a4
    80000428:	7c7060ef          	jal	ra,800073ee <memset>
    8000042c:	100027f3          	csrr	a5,sstatus
    80000430:	edd7f793          	andi	a5,a5,-291
    80000434:	0207e793          	ori	a5,a5,32
    80000438:	e23e                	sd	a5,256(sp)
    8000043a:	e822                	sd	s0,16(sp)
    8000043c:	e64a                	sd	s2,264(sp)
    8000043e:	0000100f          	fence.i
    80000442:	860a                	mv	a2,sp
    80000444:	85a2                	mv	a1,s0
    80000446:	4501                	li	a0,0
    80000448:	485020ef          	jal	ra,800030cc <do_fork>
    8000044c:	14049073          	csrw	sscratch,s1
    80000450:	7af020ef          	jal	ra,800033fe <cpu_idle>
    80000454:	4705                	li	a4,1
    80000456:	f4e79ce3          	bne	a5,a4,800003ae <rest_of_boot_loader+0xc6>
    8000045a:	b735                	j	80000386 <rest_of_boot_loader+0x9e>
    8000045c:	00008517          	auipc	a0,0x8
    80000460:	be450513          	addi	a0,a0,-1052 # 80008040 <illegal_insn_trap_table+0x104>
    80000464:	517000ef          	jal	ra,8000117a <do_panic>
    80000468:	00008517          	auipc	a0,0x8
    8000046c:	bd050513          	addi	a0,a0,-1072 # 80008038 <illegal_insn_trap_table+0xfc>
    80000470:	52f000ef          	jal	ra,8000119e <kassert_fail>

0000000080000474 <boot_loader>:
    80000474:	1141                	addi	sp,sp,-16
    80000476:	e406                	sd	ra,8(sp)
    80000478:	00002797          	auipc	a5,0x2
    8000047c:	35478793          	addi	a5,a5,852 # 800027cc <trap_entry>
    80000480:	10579073          	csrw	stvec,a5
    80000484:	14005073          	csrwi	sscratch,0
    80000488:	10405073          	csrwi	sie,0
    8000048c:	000467b7          	lui	a5,0x46
    80000490:	1007a7f3          	csrrs	a5,sstatus,a5
    80000494:	0fe000ef          	jal	ra,80000592 <file_init>
    80000498:	12d010ef          	jal	ra,80001dc4 <pk_vm_init>
    8000049c:	85aa                	mv	a1,a0
    8000049e:	4601                	li	a2,0
    800004a0:	00000517          	auipc	a0,0x0
    800004a4:	e4850513          	addi	a0,a0,-440 # 800002e8 <rest_of_boot_loader>
    800004a8:	407040ef          	jal	ra,800050ae <enter_supervisor_mode>

00000000800004ac <boot_other_hart>:
    800004ac:	10500073          	wfi
    800004b0:	bff5                	j	800004ac <boot_other_hart>

00000000800004b2 <file_get_free>:
    800004b2:	0000b517          	auipc	a0,0xb
    800004b6:	b4e50513          	addi	a0,a0,-1202 # 8000b000 <files>
    800004ba:	4689                	li	a3,2
    800004bc:	0000b717          	auipc	a4,0xb
    800004c0:	f4470713          	addi	a4,a4,-188 # 8000b400 <default_sched_class>
    800004c4:	a021                	j	800004cc <file_get_free+0x1a>
    800004c6:	0521                	addi	a0,a0,8
    800004c8:	02e50263          	beq	a0,a4,800004ec <file_get_free+0x3a>
    800004cc:	415c                	lw	a5,4(a0)
    800004ce:	2781                	sext.w	a5,a5
    800004d0:	fbfd                	bnez	a5,800004c6 <file_get_free+0x14>
    800004d2:	00450613          	addi	a2,a0,4
    800004d6:	0f50000f          	fence	iorw,ow
    800004da:	140627af          	lr.w.aq	a5,(a2)
    800004de:	e781                	bnez	a5,800004e6 <file_get_free+0x34>
    800004e0:	1cd625af          	sc.w.aq	a1,a3,(a2)
    800004e4:	f9fd                	bnez	a1,800004da <file_get_free+0x28>
    800004e6:	2781                	sext.w	a5,a5
    800004e8:	fff9                	bnez	a5,800004c6 <file_get_free+0x14>
    800004ea:	8082                	ret
    800004ec:	4501                	li	a0,0
    800004ee:	8082                	ret

00000000800004f0 <file_incref>:
    800004f0:	4705                	li	a4,1
    800004f2:	00450693          	addi	a3,a0,4
    800004f6:	0f50000f          	fence	iorw,ow
    800004fa:	04e6a7af          	amoadd.w.aq	a5,a4,(a3)
    800004fe:	2781                	sext.w	a5,a5
    80000500:	c391                	beqz	a5,80000504 <file_incref+0x14>
    80000502:	8082                	ret
    80000504:	1141                	addi	sp,sp,-16
    80000506:	00008517          	auipc	a0,0x8
    8000050a:	b8a50513          	addi	a0,a0,-1142 # 80008090 <illegal_insn_trap_table+0x154>
    8000050e:	e406                	sd	ra,8(sp)
    80000510:	48f000ef          	jal	ra,8000119e <kassert_fail>

0000000080000514 <file_decref>:
    80000514:	577d                	li	a4,-1
    80000516:	00450693          	addi	a3,a0,4
    8000051a:	0f50000f          	fence	iorw,ow
    8000051e:	04e6a7af          	amoadd.w.aq	a5,a4,(a3)
    80000522:	2781                	sext.w	a5,a5
    80000524:	4709                	li	a4,2
    80000526:	00e78363          	beq	a5,a4,8000052c <file_decref+0x18>
    8000052a:	8082                	ret
    8000052c:	410c                	lw	a1,0(a0)
    8000052e:	0ff0000f          	fence
    80000532:	4881                	li	a7,0
    80000534:	00052223          	sw	zero,4(a0)
    80000538:	4801                	li	a6,0
    8000053a:	4781                	li	a5,0
    8000053c:	4701                	li	a4,0
    8000053e:	4681                	li	a3,0
    80000540:	4601                	li	a2,0
    80000542:	03900513          	li	a0,57
    80000546:	a9b1                	j	800009a2 <frontend_syscall>

0000000080000548 <file_dup>:
    80000548:	1141                	addi	sp,sp,-16
    8000054a:	e022                	sd	s0,0(sp)
    8000054c:	e406                	sd	ra,8(sp)
    8000054e:	0000c797          	auipc	a5,0xc
    80000552:	ab278793          	addi	a5,a5,-1358 # 8000c000 <fds>
    80000556:	4401                	li	s0,0
    80000558:	08000693          	li	a3,128
    8000055c:	a029                	j	80000566 <file_dup+0x1e>
    8000055e:	2405                	addiw	s0,s0,1
    80000560:	07a1                	addi	a5,a5,8
    80000562:	02d40263          	beq	s0,a3,80000586 <file_dup+0x3e>
    80000566:	0f50000f          	fence	iorw,ow
    8000056a:	1407b72f          	lr.d.aq	a4,(a5)
    8000056e:	e701                	bnez	a4,80000576 <file_dup+0x2e>
    80000570:	1ca7b62f          	sc.d.aq	a2,a0,(a5)
    80000574:	fa7d                	bnez	a2,8000056a <file_dup+0x22>
    80000576:	f765                	bnez	a4,8000055e <file_dup+0x16>
    80000578:	f79ff0ef          	jal	ra,800004f0 <file_incref>
    8000057c:	60a2                	ld	ra,8(sp)
    8000057e:	8522                	mv	a0,s0
    80000580:	6402                	ld	s0,0(sp)
    80000582:	0141                	addi	sp,sp,16
    80000584:	8082                	ret
    80000586:	547d                	li	s0,-1
    80000588:	60a2                	ld	ra,8(sp)
    8000058a:	8522                	mv	a0,s0
    8000058c:	6402                	ld	s0,0(sp)
    8000058e:	0141                	addi	sp,sp,16
    80000590:	8082                	ret

0000000080000592 <file_init>:
    80000592:	1101                	addi	sp,sp,-32
    80000594:	e822                	sd	s0,16(sp)
    80000596:	e426                	sd	s1,8(sp)
    80000598:	ec06                	sd	ra,24(sp)
    8000059a:	4401                	li	s0,0
    8000059c:	448d                	li	s1,3
    8000059e:	f15ff0ef          	jal	ra,800004b2 <file_get_free>
    800005a2:	c100                	sw	s0,0(a0)
    800005a4:	2405                	addiw	s0,s0,1
    800005a6:	fa3ff0ef          	jal	ra,80000548 <file_dup>
    800005aa:	fe941ae3          	bne	s0,s1,8000059e <file_init+0xc>
    800005ae:	60e2                	ld	ra,24(sp)
    800005b0:	6442                	ld	s0,16(sp)
    800005b2:	64a2                	ld	s1,8(sp)
    800005b4:	6105                	addi	sp,sp,32
    800005b6:	8082                	ret

00000000800005b8 <file_get>:
    800005b8:	7179                	addi	sp,sp,-48
    800005ba:	f026                	sd	s1,32(sp)
    800005bc:	ec4a                	sd	s2,24(sp)
    800005be:	0000c497          	auipc	s1,0xc
    800005c2:	a4248493          	addi	s1,s1,-1470 # 8000c000 <fds>
    800005c6:	00351913          	slli	s2,a0,0x3
    800005ca:	012487b3          	add	a5,s1,s2
    800005ce:	639c                	ld	a5,0(a5)
    800005d0:	f406                	sd	ra,40(sp)
    800005d2:	c3b1                	beqz	a5,80000616 <file_get+0x5e>
    800005d4:	07f00793          	li	a5,127
    800005d8:	02a7e963          	bltu	a5,a0,8000060a <file_get+0x52>
    800005dc:	94ca                	add	s1,s1,s2
    800005de:	6088                	ld	a0,0(s1)
    800005e0:	e105                	bnez	a0,80000600 <file_get+0x48>
    800005e2:	a025                	j	8000060a <file_get+0x52>
    800005e4:	00450613          	addi	a2,a0,4
    800005e8:	0f50000f          	fence	iorw,ow
    800005ec:	1406272f          	lr.w.aq	a4,(a2)
    800005f0:	00f71563          	bne	a4,a5,800005fa <file_get+0x42>
    800005f4:	1cd625af          	sc.w.aq	a1,a3,(a2)
    800005f8:	f9f5                	bnez	a1,800005ec <file_get+0x34>
    800005fa:	2701                	sext.w	a4,a4
    800005fc:	00e78863          	beq	a5,a4,8000060c <file_get+0x54>
    80000600:	415c                	lw	a5,4(a0)
    80000602:	2781                	sext.w	a5,a5
    80000604:	0017869b          	addiw	a3,a5,1
    80000608:	fff1                	bnez	a5,800005e4 <file_get+0x2c>
    8000060a:	4501                	li	a0,0
    8000060c:	70a2                	ld	ra,40(sp)
    8000060e:	7482                	ld	s1,32(sp)
    80000610:	6962                	ld	s2,24(sp)
    80000612:	6145                	addi	sp,sp,48
    80000614:	8082                	ret
    80000616:	e42a                	sd	a0,8(sp)
    80000618:	f7bff0ef          	jal	ra,80000592 <file_init>
    8000061c:	6522                	ld	a0,8(sp)
    8000061e:	bf5d                	j	800005d4 <file_get+0x1c>

0000000080000620 <file_openat>:
    80000620:	7179                	addi	sp,sp,-48
    80000622:	f022                	sd	s0,32(sp)
    80000624:	e84a                	sd	s2,16(sp)
    80000626:	e44e                	sd	s3,8(sp)
    80000628:	e052                	sd	s4,0(sp)
    8000062a:	f406                	sd	ra,40(sp)
    8000062c:	ec26                	sd	s1,24(sp)
    8000062e:	892a                	mv	s2,a0
    80000630:	842e                	mv	s0,a1
    80000632:	8a32                	mv	s4,a2
    80000634:	89b6                	mv	s3,a3
    80000636:	e7dff0ef          	jal	ra,800004b2 <file_get_free>
    8000063a:	c125                	beqz	a0,8000069a <file_openat+0x7a>
    8000063c:	84aa                	mv	s1,a0
    8000063e:	8522                	mv	a0,s0
    80000640:	5f5060ef          	jal	ra,80007434 <strlen>
    80000644:	800007b7          	lui	a5,0x80000
    80000648:	fff7c793          	not	a5,a5
    8000064c:	8622                	mv	a2,s0
    8000064e:	00150693          	addi	a3,a0,1
    80000652:	0287f863          	bgeu	a5,s0,80000682 <file_openat+0x62>
    80000656:	4881                	li	a7,0
    80000658:	4801                	li	a6,0
    8000065a:	87ce                	mv	a5,s3
    8000065c:	8752                	mv	a4,s4
    8000065e:	85ca                	mv	a1,s2
    80000660:	03800513          	li	a0,56
    80000664:	33e000ef          	jal	ra,800009a2 <frontend_syscall>
    80000668:	842a                	mv	s0,a0
    8000066a:	02054363          	bltz	a0,80000690 <file_openat+0x70>
    8000066e:	c088                	sw	a0,0(s1)
    80000670:	70a2                	ld	ra,40(sp)
    80000672:	7402                	ld	s0,32(sp)
    80000674:	6942                	ld	s2,16(sp)
    80000676:	69a2                	ld	s3,8(sp)
    80000678:	6a02                	ld	s4,0(sp)
    8000067a:	8526                	mv	a0,s1
    8000067c:	64e2                	ld	s1,24(sp)
    8000067e:	6145                	addi	sp,sp,48
    80000680:	8082                	ret
    80000682:	00019797          	auipc	a5,0x19
    80000686:	c0e7b783          	ld	a5,-1010(a5) # 80019290 <first_free_paddr>
    8000068a:	00f40633          	add	a2,s0,a5
    8000068e:	b7e1                	j	80000656 <file_openat+0x36>
    80000690:	8526                	mv	a0,s1
    80000692:	e83ff0ef          	jal	ra,80000514 <file_decref>
    80000696:	84a2                	mv	s1,s0
    80000698:	bfe1                	j	80000670 <file_openat+0x50>
    8000069a:	54d1                	li	s1,-12
    8000069c:	bfd1                	j	80000670 <file_openat+0x50>

000000008000069e <file_open>:
    8000069e:	86b2                	mv	a3,a2
    800006a0:	862e                	mv	a2,a1
    800006a2:	85aa                	mv	a1,a0
    800006a4:	f9c00513          	li	a0,-100
    800006a8:	bfa5                	j	80000620 <file_openat>

00000000800006aa <fd_close>:
    800006aa:	1101                	addi	sp,sp,-32
    800006ac:	e426                	sd	s1,8(sp)
    800006ae:	ec06                	sd	ra,24(sp)
    800006b0:	e822                	sd	s0,16(sp)
    800006b2:	e04a                	sd	s2,0(sp)
    800006b4:	84aa                	mv	s1,a0
    800006b6:	f03ff0ef          	jal	ra,800005b8 <file_get>
    800006ba:	cd1d                	beqz	a0,800006f8 <fd_close+0x4e>
    800006bc:	0000c797          	auipc	a5,0xc
    800006c0:	94478793          	addi	a5,a5,-1724 # 8000c000 <fds>
    800006c4:	048e                	slli	s1,s1,0x3
    800006c6:	842a                	mv	s0,a0
    800006c8:	94be                	add	s1,s1,a5
    800006ca:	0f50000f          	fence	iorw,ow
    800006ce:	1404b92f          	lr.d.aq	s2,(s1)
    800006d2:	00a91563          	bne	s2,a0,800006dc <fd_close+0x32>
    800006d6:	1c04b7af          	sc.d.aq	a5,zero,(s1)
    800006da:	fbf5                	bnez	a5,800006ce <fd_close+0x24>
    800006dc:	e39ff0ef          	jal	ra,80000514 <file_decref>
    800006e0:	01241c63          	bne	s0,s2,800006f8 <fd_close+0x4e>
    800006e4:	8522                	mv	a0,s0
    800006e6:	e2fff0ef          	jal	ra,80000514 <file_decref>
    800006ea:	4501                	li	a0,0
    800006ec:	60e2                	ld	ra,24(sp)
    800006ee:	6442                	ld	s0,16(sp)
    800006f0:	64a2                	ld	s1,8(sp)
    800006f2:	6902                	ld	s2,0(sp)
    800006f4:	6105                	addi	sp,sp,32
    800006f6:	8082                	ret
    800006f8:	557d                	li	a0,-1
    800006fa:	bfcd                	j	800006ec <fd_close+0x42>

00000000800006fc <file_read>:
    800006fc:	7179                	addi	sp,sp,-48
    800006fe:	87ae                	mv	a5,a1
    80000700:	ec26                	sd	s1,24(sp)
    80000702:	84b2                	mv	s1,a2
    80000704:	e84a                	sd	s2,16(sp)
    80000706:	4609                	li	a2,2
    80000708:	892a                	mv	s2,a0
    8000070a:	85a6                	mv	a1,s1
    8000070c:	853e                	mv	a0,a5
    8000070e:	f406                	sd	ra,40(sp)
    80000710:	f022                	sd	s0,32(sp)
    80000712:	e44e                	sd	s3,8(sp)
    80000714:	843e                	mv	s0,a5
    80000716:	89b6                	mv	s3,a3
    80000718:	01a010ef          	jal	ra,80001732 <populate_mapping>
    8000071c:	85ce                	mv	a1,s3
    8000071e:	8522                	mv	a0,s0
    80000720:	00092903          	lw	s2,0(s2)
    80000724:	084010ef          	jal	ra,800017a8 <__walk_create_user>
    80000728:	800007b7          	lui	a5,0x80000
    8000072c:	fff7c793          	not	a5,a5
    80000730:	6118                	ld	a4,0(a0)
    80000732:	0087e763          	bltu	a5,s0,80000740 <file_read+0x44>
    80000736:	1452                	slli	s0,s0,0x34
    80000738:	8329                	srli	a4,a4,0xa
    8000073a:	0732                	slli	a4,a4,0xc
    8000073c:	9051                	srli	s0,s0,0x34
    8000073e:	8c59                	or	s0,s0,a4
    80000740:	8622                	mv	a2,s0
    80000742:	7402                	ld	s0,32(sp)
    80000744:	70a2                	ld	ra,40(sp)
    80000746:	69a2                	ld	s3,8(sp)
    80000748:	86a6                	mv	a3,s1
    8000074a:	85ca                	mv	a1,s2
    8000074c:	64e2                	ld	s1,24(sp)
    8000074e:	6942                	ld	s2,16(sp)
    80000750:	4881                	li	a7,0
    80000752:	4801                	li	a6,0
    80000754:	4781                	li	a5,0
    80000756:	4701                	li	a4,0
    80000758:	03f00513          	li	a0,63
    8000075c:	6145                	addi	sp,sp,48
    8000075e:	a491                	j	800009a2 <frontend_syscall>

0000000080000760 <file_pread>:
    80000760:	7179                	addi	sp,sp,-48
    80000762:	f022                	sd	s0,32(sp)
    80000764:	ec26                	sd	s1,24(sp)
    80000766:	842e                	mv	s0,a1
    80000768:	84b2                	mv	s1,a2
    8000076a:	e44e                	sd	s3,8(sp)
    8000076c:	4609                	li	a2,2
    8000076e:	89aa                	mv	s3,a0
    80000770:	85a6                	mv	a1,s1
    80000772:	8522                	mv	a0,s0
    80000774:	e84a                	sd	s2,16(sp)
    80000776:	f406                	sd	ra,40(sp)
    80000778:	8936                	mv	s2,a3
    8000077a:	7b9000ef          	jal	ra,80001732 <populate_mapping>
    8000077e:	800007b7          	lui	a5,0x80000
    80000782:	fff7c793          	not	a5,a5
    80000786:	0009a583          	lw	a1,0(s3)
    8000078a:	8622                	mv	a2,s0
    8000078c:	0087e863          	bltu	a5,s0,8000079c <file_pread+0x3c>
    80000790:	00019797          	auipc	a5,0x19
    80000794:	b007b783          	ld	a5,-1280(a5) # 80019290 <first_free_paddr>
    80000798:	00f40633          	add	a2,s0,a5
    8000079c:	7402                	ld	s0,32(sp)
    8000079e:	70a2                	ld	ra,40(sp)
    800007a0:	69a2                	ld	s3,8(sp)
    800007a2:	874a                	mv	a4,s2
    800007a4:	86a6                	mv	a3,s1
    800007a6:	6942                	ld	s2,16(sp)
    800007a8:	64e2                	ld	s1,24(sp)
    800007aa:	4881                	li	a7,0
    800007ac:	4801                	li	a6,0
    800007ae:	4781                	li	a5,0
    800007b0:	04300513          	li	a0,67
    800007b4:	6145                	addi	sp,sp,48
    800007b6:	a2f5                	j	800009a2 <frontend_syscall>

00000000800007b8 <file_pread_pnn>:
    800007b8:	7179                	addi	sp,sp,-48
    800007ba:	f022                	sd	s0,32(sp)
    800007bc:	1115f593          	andi	a1,a1,273
    800007c0:	00c69413          	slli	s0,a3,0xc
    800007c4:	ec26                	sd	s1,24(sp)
    800007c6:	8c4d                	or	s0,s0,a1
    800007c8:	84b2                	mv	s1,a2
    800007ca:	e44e                	sd	s3,8(sp)
    800007cc:	85a6                	mv	a1,s1
    800007ce:	89aa                	mv	s3,a0
    800007d0:	4609                	li	a2,2
    800007d2:	8522                	mv	a0,s0
    800007d4:	e84a                	sd	s2,16(sp)
    800007d6:	f406                	sd	ra,40(sp)
    800007d8:	893a                	mv	s2,a4
    800007da:	759000ef          	jal	ra,80001732 <populate_mapping>
    800007de:	8622                	mv	a2,s0
    800007e0:	7402                	ld	s0,32(sp)
    800007e2:	0009a583          	lw	a1,0(s3)
    800007e6:	70a2                	ld	ra,40(sp)
    800007e8:	69a2                	ld	s3,8(sp)
    800007ea:	874a                	mv	a4,s2
    800007ec:	86a6                	mv	a3,s1
    800007ee:	6942                	ld	s2,16(sp)
    800007f0:	64e2                	ld	s1,24(sp)
    800007f2:	4881                	li	a7,0
    800007f4:	4801                	li	a6,0
    800007f6:	4781                	li	a5,0
    800007f8:	04300513          	li	a0,67
    800007fc:	6145                	addi	sp,sp,48
    800007fe:	a255                	j	800009a2 <frontend_syscall>

0000000080000800 <file_write>:
    80000800:	1101                	addi	sp,sp,-32
    80000802:	e822                	sd	s0,16(sp)
    80000804:	e426                	sd	s1,8(sp)
    80000806:	842e                	mv	s0,a1
    80000808:	84b2                	mv	s1,a2
    8000080a:	e04a                	sd	s2,0(sp)
    8000080c:	4605                	li	a2,1
    8000080e:	892a                	mv	s2,a0
    80000810:	85a6                	mv	a1,s1
    80000812:	8522                	mv	a0,s0
    80000814:	ec06                	sd	ra,24(sp)
    80000816:	71d000ef          	jal	ra,80001732 <populate_mapping>
    8000081a:	800007b7          	lui	a5,0x80000
    8000081e:	fff7c793          	not	a5,a5
    80000822:	00092583          	lw	a1,0(s2)
    80000826:	8622                	mv	a2,s0
    80000828:	0087e863          	bltu	a5,s0,80000838 <file_write+0x38>
    8000082c:	00019797          	auipc	a5,0x19
    80000830:	a647b783          	ld	a5,-1436(a5) # 80019290 <first_free_paddr>
    80000834:	00f40633          	add	a2,s0,a5
    80000838:	6442                	ld	s0,16(sp)
    8000083a:	60e2                	ld	ra,24(sp)
    8000083c:	6902                	ld	s2,0(sp)
    8000083e:	86a6                	mv	a3,s1
    80000840:	64a2                	ld	s1,8(sp)
    80000842:	4881                	li	a7,0
    80000844:	4801                	li	a6,0
    80000846:	4781                	li	a5,0
    80000848:	4701                	li	a4,0
    8000084a:	04000513          	li	a0,64
    8000084e:	6105                	addi	sp,sp,32
    80000850:	aa89                	j	800009a2 <frontend_syscall>

0000000080000852 <file_write_unfixed>:
    80000852:	7179                	addi	sp,sp,-48
    80000854:	ec26                	sd	s1,24(sp)
    80000856:	e44e                	sd	s3,8(sp)
    80000858:	84b2                	mv	s1,a2
    8000085a:	89aa                	mv	s3,a0
    8000085c:	4601                	li	a2,0
    8000085e:	8536                	mv	a0,a3
    80000860:	f406                	sd	ra,40(sp)
    80000862:	f022                	sd	s0,32(sp)
    80000864:	e84a                	sd	s2,16(sp)
    80000866:	842e                	mv	s0,a1
    80000868:	8936                	mv	s2,a3
    8000086a:	6ef000ef          	jal	ra,80001758 <__walk_internal_user>
    8000086e:	6108                	ld	a0,0(a0)
    80000870:	4609                	li	a2,2
    80000872:	85a6                	mv	a1,s1
    80000874:	8129                	srli	a0,a0,0xa
    80000876:	0532                	slli	a0,a0,0xc
    80000878:	6bb000ef          	jal	ra,80001732 <populate_mapping>
    8000087c:	85ca                	mv	a1,s2
    8000087e:	8522                	mv	a0,s0
    80000880:	0009a903          	lw	s2,0(s3)
    80000884:	725000ef          	jal	ra,800017a8 <__walk_create_user>
    80000888:	800007b7          	lui	a5,0x80000
    8000088c:	fff7c793          	not	a5,a5
    80000890:	610c                	ld	a1,0(a0)
    80000892:	0087e763          	bltu	a5,s0,800008a0 <file_write_unfixed+0x4e>
    80000896:	1452                	slli	s0,s0,0x34
    80000898:	81a9                	srli	a1,a1,0xa
    8000089a:	05b2                	slli	a1,a1,0xc
    8000089c:	9051                	srli	s0,s0,0x34
    8000089e:	8c4d                	or	s0,s0,a1
    800008a0:	8622                	mv	a2,s0
    800008a2:	7402                	ld	s0,32(sp)
    800008a4:	70a2                	ld	ra,40(sp)
    800008a6:	69a2                	ld	s3,8(sp)
    800008a8:	86a6                	mv	a3,s1
    800008aa:	85ca                	mv	a1,s2
    800008ac:	64e2                	ld	s1,24(sp)
    800008ae:	6942                	ld	s2,16(sp)
    800008b0:	4881                	li	a7,0
    800008b2:	4801                	li	a6,0
    800008b4:	4781                	li	a5,0
    800008b6:	4701                	li	a4,0
    800008b8:	04000513          	li	a0,64
    800008bc:	6145                	addi	sp,sp,48
    800008be:	a0d5                	j	800009a2 <frontend_syscall>

00000000800008c0 <file_pwrite>:
    800008c0:	7179                	addi	sp,sp,-48
    800008c2:	f022                	sd	s0,32(sp)
    800008c4:	ec26                	sd	s1,24(sp)
    800008c6:	842e                	mv	s0,a1
    800008c8:	84b2                	mv	s1,a2
    800008ca:	e44e                	sd	s3,8(sp)
    800008cc:	4605                	li	a2,1
    800008ce:	89aa                	mv	s3,a0
    800008d0:	85a6                	mv	a1,s1
    800008d2:	8522                	mv	a0,s0
    800008d4:	e84a                	sd	s2,16(sp)
    800008d6:	f406                	sd	ra,40(sp)
    800008d8:	8936                	mv	s2,a3
    800008da:	659000ef          	jal	ra,80001732 <populate_mapping>
    800008de:	800007b7          	lui	a5,0x80000
    800008e2:	fff7c793          	not	a5,a5
    800008e6:	0009a583          	lw	a1,0(s3)
    800008ea:	8622                	mv	a2,s0
    800008ec:	0087e863          	bltu	a5,s0,800008fc <file_pwrite+0x3c>
    800008f0:	00019797          	auipc	a5,0x19
    800008f4:	9a07b783          	ld	a5,-1632(a5) # 80019290 <first_free_paddr>
    800008f8:	00f40633          	add	a2,s0,a5
    800008fc:	7402                	ld	s0,32(sp)
    800008fe:	70a2                	ld	ra,40(sp)
    80000900:	69a2                	ld	s3,8(sp)
    80000902:	874a                	mv	a4,s2
    80000904:	86a6                	mv	a3,s1
    80000906:	6942                	ld	s2,16(sp)
    80000908:	64e2                	ld	s1,24(sp)
    8000090a:	4881                	li	a7,0
    8000090c:	4801                	li	a6,0
    8000090e:	4781                	li	a5,0
    80000910:	04400513          	li	a0,68
    80000914:	6145                	addi	sp,sp,48
    80000916:	a071                	j	800009a2 <frontend_syscall>

0000000080000918 <file_stat>:
    80000918:	7135                	addi	sp,sp,-160
    8000091a:	800007b7          	lui	a5,0x80000
    8000091e:	e922                	sd	s0,144(sp)
    80000920:	e526                	sd	s1,136(sp)
    80000922:	840a                	mv	s0,sp
    80000924:	ed06                	sd	ra,152(sp)
    80000926:	fff7c793          	not	a5,a5
    8000092a:	84ae                	mv	s1,a1
    8000092c:	8622                	mv	a2,s0
    8000092e:	410c                	lw	a1,0(a0)
    80000930:	0087e763          	bltu	a5,s0,8000093e <file_stat+0x26>
    80000934:	00019617          	auipc	a2,0x19
    80000938:	95c63603          	ld	a2,-1700(a2) # 80019290 <first_free_paddr>
    8000093c:	9622                	add	a2,a2,s0
    8000093e:	4881                	li	a7,0
    80000940:	4801                	li	a6,0
    80000942:	4781                	li	a5,0
    80000944:	4701                	li	a4,0
    80000946:	4681                	li	a3,0
    80000948:	05000513          	li	a0,80
    8000094c:	056000ef          	jal	ra,800009a2 <frontend_syscall>
    80000950:	87aa                	mv	a5,a0
    80000952:	85a2                	mv	a1,s0
    80000954:	8526                	mv	a0,s1
    80000956:	843e                	mv	s0,a5
    80000958:	0c8000ef          	jal	ra,80000a20 <copy_stat>
    8000095c:	60ea                	ld	ra,152(sp)
    8000095e:	0004051b          	sext.w	a0,s0
    80000962:	644a                	ld	s0,144(sp)
    80000964:	64aa                	ld	s1,136(sp)
    80000966:	610d                	addi	sp,sp,160
    80000968:	8082                	ret

000000008000096a <file_truncate>:
    8000096a:	862e                	mv	a2,a1
    8000096c:	410c                	lw	a1,0(a0)
    8000096e:	1141                	addi	sp,sp,-16
    80000970:	4881                	li	a7,0
    80000972:	4801                	li	a6,0
    80000974:	4781                	li	a5,0
    80000976:	4701                	li	a4,0
    80000978:	4681                	li	a3,0
    8000097a:	02e00513          	li	a0,46
    8000097e:	e406                	sd	ra,8(sp)
    80000980:	022000ef          	jal	ra,800009a2 <frontend_syscall>
    80000984:	60a2                	ld	ra,8(sp)
    80000986:	2501                	sext.w	a0,a0
    80000988:	0141                	addi	sp,sp,16
    8000098a:	8082                	ret

000000008000098c <file_lseek>:
    8000098c:	832e                	mv	t1,a1
    8000098e:	410c                	lw	a1,0(a0)
    80000990:	86b2                	mv	a3,a2
    80000992:	4881                	li	a7,0
    80000994:	4801                	li	a6,0
    80000996:	4781                	li	a5,0
    80000998:	4701                	li	a4,0
    8000099a:	861a                	mv	a2,t1
    8000099c:	03e00513          	li	a0,62
    800009a0:	a009                	j	800009a2 <frontend_syscall>

00000000800009a2 <frontend_syscall>:
    800009a2:	1141                	addi	sp,sp,-16
    800009a4:	e406                	sd	ra,8(sp)
    800009a6:	e022                	sd	s0,0(sp)
    800009a8:	00018317          	auipc	t1,0x18
    800009ac:	67830313          	addi	t1,t1,1656 # 80019020 <lock.2292>
    800009b0:	5efd                	li	t4,-1
    800009b2:	00032e03          	lw	t3,0(t1)
    800009b6:	2e01                	sext.w	t3,t3
    800009b8:	fe0e1de3          	bnez	t3,800009b2 <frontend_syscall+0x10>
    800009bc:	8e76                	mv	t3,t4
    800009be:	0dc32e2f          	amoswap.w.aq	t3,t3,(t1)
    800009c2:	2e01                	sext.w	t3,t3
    800009c4:	0ff0000f          	fence
    800009c8:	fe0e15e3          	bnez	t3,800009b2 <frontend_syscall+0x10>
    800009cc:	0000c417          	auipc	s0,0xc
    800009d0:	a3440413          	addi	s0,s0,-1484 # 8000c400 <magic_mem.2291>
    800009d4:	e008                	sd	a0,0(s0)
    800009d6:	e40c                	sd	a1,8(s0)
    800009d8:	e810                	sd	a2,16(s0)
    800009da:	ec14                	sd	a3,24(s0)
    800009dc:	f018                	sd	a4,32(s0)
    800009de:	f41c                	sd	a5,40(s0)
    800009e0:	03043823          	sd	a6,48(s0)
    800009e4:	8522                	mv	a0,s0
    800009e6:	03143c23          	sd	a7,56(s0)
    800009ea:	089040ef          	jal	ra,80005272 <htif_syscall>
    800009ee:	6008                	ld	a0,0(s0)
    800009f0:	0ff0000f          	fence
    800009f4:	60a2                	ld	ra,8(sp)
    800009f6:	6402                	ld	s0,0(sp)
    800009f8:	00018797          	auipc	a5,0x18
    800009fc:	6207a423          	sw	zero,1576(a5) # 80019020 <lock.2292>
    80000a00:	0141                	addi	sp,sp,16
    80000a02:	8082                	ret

0000000080000a04 <shutdown>:
    80000a04:	1141                	addi	sp,sp,-16
    80000a06:	85aa                	mv	a1,a0
    80000a08:	4881                	li	a7,0
    80000a0a:	4801                	li	a6,0
    80000a0c:	4781                	li	a5,0
    80000a0e:	4701                	li	a4,0
    80000a10:	4681                	li	a3,0
    80000a12:	4601                	li	a2,0
    80000a14:	05d00513          	li	a0,93
    80000a18:	e406                	sd	ra,8(sp)
    80000a1a:	f89ff0ef          	jal	ra,800009a2 <frontend_syscall>
    80000a1e:	a001                	j	80000a1e <shutdown+0x1a>

0000000080000a20 <copy_stat>:
    80000a20:	0005b383          	ld	t2,0(a1)
    80000a24:	0085b283          	ld	t0,8(a1)
    80000a28:	0105af83          	lw	t6,16(a1)
    80000a2c:	0145af03          	lw	t5,20(a1)
    80000a30:	0185ae83          	lw	t4,24(a1)
    80000a34:	01c5ae03          	lw	t3,28(a1)
    80000a38:	0205b303          	ld	t1,32(a1)
    80000a3c:	0305b883          	ld	a7,48(a1)
    80000a40:	0385e803          	lwu	a6,56(a1)
    80000a44:	61b0                	ld	a2,64(a1)
    80000a46:	65b4                	ld	a3,72(a1)
    80000a48:	6db8                	ld	a4,88(a1)
    80000a4a:	75bc                	ld	a5,104(a1)
    80000a4c:	00751023          	sh	t2,0(a0)
    80000a50:	00551123          	sh	t0,2(a0)
    80000a54:	01f52223          	sw	t6,4(a0)
    80000a58:	01e51423          	sh	t5,8(a0)
    80000a5c:	01d51523          	sh	t4,10(a0)
    80000a60:	01c51623          	sh	t3,12(a0)
    80000a64:	00651723          	sh	t1,14(a0)
    80000a68:	01153823          	sd	a7,16(a0)
    80000a6c:	05053423          	sd	a6,72(a0)
    80000a70:	e930                	sd	a2,80(a0)
    80000a72:	ed14                	sd	a3,24(a0)
    80000a74:	f518                	sd	a4,40(a0)
    80000a76:	fd1c                	sd	a5,56(a0)
    80000a78:	8082                	ret

0000000080000a7a <load_elf_test>:
    80000a7a:	7135                	addi	sp,sp,-160
    80000a7c:	fcce                	sd	s3,120(sp)
    80000a7e:	4601                	li	a2,0
    80000a80:	89ae                	mv	s3,a1
    80000a82:	4581                	li	a1,0
    80000a84:	e8e2                	sd	s8,80(sp)
    80000a86:	ed06                	sd	ra,152(sp)
    80000a88:	e922                	sd	s0,144(sp)
    80000a8a:	e526                	sd	s1,136(sp)
    80000a8c:	e14a                	sd	s2,128(sp)
    80000a8e:	f8d2                	sd	s4,112(sp)
    80000a90:	f4d6                	sd	s5,104(sp)
    80000a92:	f0da                	sd	s6,96(sp)
    80000a94:	ecde                	sd	s7,88(sp)
    80000a96:	e4e6                	sd	s9,72(sp)
    80000a98:	e0ea                	sd	s10,64(sp)
    80000a9a:	8c2a                	mv	s8,a0
    80000a9c:	c03ff0ef          	jal	ra,8000069e <file_open>
    80000aa0:	77fd                	lui	a5,0xfffff
    80000aa2:	16f57063          	bgeu	a0,a5,80000c02 <load_elf_test+0x188>
    80000aa6:	4681                	li	a3,0
    80000aa8:	04000613          	li	a2,64
    80000aac:	858a                	mv	a1,sp
    80000aae:	8aaa                	mv	s5,a0
    80000ab0:	cb1ff0ef          	jal	ra,80000760 <file_pread>
    80000ab4:	03f00793          	li	a5,63
    80000ab8:	14a7d563          	bge	a5,a0,80000c02 <load_elf_test+0x188>
    80000abc:	6782                	ld	a5,0(sp)
    80000abe:	464c4737          	lui	a4,0x464c4
    80000ac2:	57f70713          	addi	a4,a4,1407 # 464c457f <_ftext-0x39b3ba81>
    80000ac6:	02079693          	slli	a3,a5,0x20
    80000aca:	9281                	srli	a3,a3,0x20
    80000acc:	54fd                	li	s1,-1
    80000ace:	12e69a63          	bne	a3,a4,80000c02 <load_elf_test+0x188>
    80000ad2:	0184d713          	srli	a4,s1,0x18
    80000ad6:	8ff9                	and	a5,a5,a4
    80000ad8:	0000b717          	auipc	a4,0xb
    80000adc:	9a873703          	ld	a4,-1624(a4) # 8000b480 <trap_table+0x40>
    80000ae0:	12e79863          	bne	a5,a4,80000c10 <load_elf_test+0x196>
    80000ae4:	03815603          	lhu	a2,56(sp)
    80000ae8:	0189b783          	ld	a5,24(s3)
    80000aec:	00361413          	slli	s0,a2,0x3
    80000af0:	8c11                	sub	s0,s0,a2
    80000af2:	040e                	slli	s0,s0,0x3
    80000af4:	1087e763          	bltu	a5,s0,80000c02 <load_elf_test+0x188>
    80000af8:	7682                	ld	a3,32(sp)
    80000afa:	0109b583          	ld	a1,16(s3)
    80000afe:	8622                	mv	a2,s0
    80000b00:	8556                	mv	a0,s5
    80000b02:	c5fff0ef          	jal	ra,80000760 <file_pread>
    80000b06:	0e854e63          	blt	a0,s0,80000c02 <load_elf_test+0x188>
    80000b0a:	01015a03          	lhu	s4,16(sp)
    80000b0e:	03815683          	lhu	a3,56(sp)
    80000b12:	6762                	ld	a4,24(sp)
    80000b14:	1a75                	addi	s4,s4,-3
    80000b16:	001a3a13          	seqz	s4,s4
    80000b1a:	0a32                	slli	s4,s4,0xc
    80000b1c:	0006879b          	sext.w	a5,a3
    80000b20:	9752                	add	a4,a4,s4
    80000b22:	03800613          	li	a2,56
    80000b26:	00f9a223          	sw	a5,4(s3)
    80000b2a:	00c9a023          	sw	a2,0(s3)
    80000b2e:	02e9b423          	sd	a4,40(s3)
    80000b32:	37fd                	addiw	a5,a5,-1
    80000b34:	0109b583          	ld	a1,16(s3)
    80000b38:	0a978763          	beq	a5,s1,80000be6 <load_elf_test+0x16c>
    80000b3c:	fff6871b          	addiw	a4,a3,-1
    80000b40:	02071613          	slli	a2,a4,0x20
    80000b44:	00369493          	slli	s1,a3,0x3
    80000b48:	9201                	srli	a2,a2,0x20
    80000b4a:	8c95                	sub	s1,s1,a3
    80000b4c:	00379413          	slli	s0,a5,0x3
    80000b50:	048e                	slli	s1,s1,0x3
    80000b52:	00361713          	slli	a4,a2,0x3
    80000b56:	8c1d                	sub	s0,s0,a5
    80000b58:	f9048493          	addi	s1,s1,-112
    80000b5c:	8f11                	sub	a4,a4,a2
    80000b5e:	040e                	slli	s0,s0,0x3
    80000b60:	94ae                	add	s1,s1,a1
    80000b62:	070e                	slli	a4,a4,0x3
    80000b64:	6b85                	lui	s7,0x1
    80000b66:	6b21                	lui	s6,0x8
    80000b68:	942e                	add	s0,s0,a1
    80000b6a:	8c99                	sub	s1,s1,a4
    80000b6c:	4c85                	li	s9,1
    80000b6e:	1bfd                	addi	s7,s7,-1
    80000b70:	0b49                	addi	s6,s6,18
    80000b72:	a029                	j	80000b7c <load_elf_test+0x102>
    80000b74:	fc840413          	addi	s0,s0,-56
    80000b78:	06940763          	beq	s0,s1,80000be6 <load_elf_test+0x16c>
    80000b7c:	401c                	lw	a5,0(s0)
    80000b7e:	ff979be3          	bne	a5,s9,80000b74 <load_elf_test+0xfa>
    80000b82:	741c                	ld	a5,40(s0)
    80000b84:	dbe5                	beqz	a5,80000b74 <load_elf_test+0xfa>
    80000b86:	01043903          	ld	s2,16(s0)
    80000b8a:	0309b703          	ld	a4,48(s3)
    80000b8e:	01490d33          	add	s10,s2,s4
    80000b92:	97ea                	add	a5,a5,s10
    80000b94:	01797933          	and	s2,s2,s7
    80000b98:	00f77463          	bgeu	a4,a5,80000ba0 <load_elf_test+0x126>
    80000b9c:	02f9b823          	sd	a5,48(s3)
    80000ba0:	86da                	mv	a3,s6
    80000ba2:	00091363          	bnez	s2,80000ba8 <load_elf_test+0x12e>
    80000ba6:	46c9                	li	a3,18
    80000ba8:	4058                	lw	a4,4(s0)
    80000baa:	641c                	ld	a5,8(s0)
    80000bac:	700c                	ld	a1,32(s0)
    80000bae:	0027161b          	slliw	a2,a4,0x2
    80000bb2:	0027571b          	srliw	a4,a4,0x2
    80000bb6:	8b05                	andi	a4,a4,1
    80000bb8:	8a11                	andi	a2,a2,4
    80000bba:	412d0d33          	sub	s10,s10,s2
    80000bbe:	8e59                	or	a2,a2,a4
    80000bc0:	412787b3          	sub	a5,a5,s2
    80000bc4:	8756                	mv	a4,s5
    80000bc6:	00266613          	ori	a2,a2,2
    80000bca:	95ca                	add	a1,a1,s2
    80000bcc:	856a                	mv	a0,s10
    80000bce:	789000ef          	jal	ra,80001b56 <__do_mmap>
    80000bd2:	02ad1863          	bne	s10,a0,80000c02 <load_elf_test+0x188>
    80000bd6:	864a                	mv	a2,s2
    80000bd8:	4581                	li	a1,0
    80000bda:	fc840413          	addi	s0,s0,-56
    80000bde:	011060ef          	jal	ra,800073ee <memset>
    80000be2:	f8941de3          	bne	s0,s1,80000b7c <load_elf_test+0x102>
    80000be6:	60ea                	ld	ra,152(sp)
    80000be8:	644a                	ld	s0,144(sp)
    80000bea:	64aa                	ld	s1,136(sp)
    80000bec:	690a                	ld	s2,128(sp)
    80000bee:	79e6                	ld	s3,120(sp)
    80000bf0:	7a46                	ld	s4,112(sp)
    80000bf2:	7aa6                	ld	s5,104(sp)
    80000bf4:	7b06                	ld	s6,96(sp)
    80000bf6:	6be6                	ld	s7,88(sp)
    80000bf8:	6c46                	ld	s8,80(sp)
    80000bfa:	6ca6                	ld	s9,72(sp)
    80000bfc:	6d06                	ld	s10,64(sp)
    80000bfe:	610d                	addi	sp,sp,160
    80000c00:	8082                	ret
    80000c02:	85e2                	mv	a1,s8
    80000c04:	00007517          	auipc	a0,0x7
    80000c08:	4dc50513          	addi	a0,a0,1244 # 800080e0 <illegal_insn_trap_table+0x1a4>
    80000c0c:	56e000ef          	jal	ra,8000117a <do_panic>
    80000c10:	00007517          	auipc	a0,0x7
    80000c14:	4b050513          	addi	a0,a0,1200 # 800080c0 <illegal_insn_trap_table+0x184>
    80000c18:	00007697          	auipc	a3,0x7
    80000c1c:	48868693          	addi	a3,a3,1160 # 800080a0 <illegal_insn_trap_table+0x164>
    80000c20:	02700613          	li	a2,39
    80000c24:	00007597          	auipc	a1,0x7
    80000c28:	48c58593          	addi	a1,a1,1164 # 800080b0 <illegal_insn_trap_table+0x174>
    80000c2c:	7b7030ef          	jal	ra,80004be2 <printm>
    80000c30:	6541                	lui	a0,0x10
    80000c32:	157d                	addi	a0,a0,-1
    80000c34:	01e040ef          	jal	ra,80004c52 <poweroff>

0000000080000c38 <load_elf>:
    80000c38:	7131                	addi	sp,sp,-192
    80000c3a:	ed4e                	sd	s3,152(sp)
    80000c3c:	f8e2                	sd	s8,112(sp)
    80000c3e:	89ae                	mv	s3,a1
    80000c40:	8c2a                	mv	s8,a0
    80000c42:	00018597          	auipc	a1,0x18
    80000c46:	6b65b583          	ld	a1,1718(a1) # 800192f8 <root_page_table>
    80000c4a:	00007517          	auipc	a0,0x7
    80000c4e:	4be50513          	addi	a0,a0,1214 # 80008108 <illegal_insn_trap_table+0x1cc>
    80000c52:	fd06                	sd	ra,184(sp)
    80000c54:	f922                	sd	s0,176(sp)
    80000c56:	f526                	sd	s1,168(sp)
    80000c58:	f14a                	sd	s2,160(sp)
    80000c5a:	e952                	sd	s4,144(sp)
    80000c5c:	e556                	sd	s5,136(sp)
    80000c5e:	e15a                	sd	s6,128(sp)
    80000c60:	fcde                	sd	s7,120(sp)
    80000c62:	f4e6                	sd	s9,104(sp)
    80000c64:	f0ea                	sd	s10,96(sp)
    80000c66:	ecee                	sd	s11,88(sp)
    80000c68:	e462                	sd	s8,8(sp)
    80000c6a:	440000ef          	jal	ra,800010aa <printk>
    80000c6e:	4601                	li	a2,0
    80000c70:	4581                	li	a1,0
    80000c72:	8562                	mv	a0,s8
    80000c74:	a2bff0ef          	jal	ra,8000069e <file_open>
    80000c78:	77fd                	lui	a5,0xfffff
    80000c7a:	18f57363          	bgeu	a0,a5,80000e00 <load_elf+0x1c8>
    80000c7e:	4681                	li	a3,0
    80000c80:	04000613          	li	a2,64
    80000c84:	080c                	addi	a1,sp,16
    80000c86:	8aaa                	mv	s5,a0
    80000c88:	ad9ff0ef          	jal	ra,80000760 <file_pread>
    80000c8c:	03f00793          	li	a5,63
    80000c90:	16a7d863          	bge	a5,a0,80000e00 <load_elf+0x1c8>
    80000c94:	67c2                	ld	a5,16(sp)
    80000c96:	464c4737          	lui	a4,0x464c4
    80000c9a:	57f70713          	addi	a4,a4,1407 # 464c457f <_ftext-0x39b3ba81>
    80000c9e:	02079693          	slli	a3,a5,0x20
    80000ca2:	9281                	srli	a3,a3,0x20
    80000ca4:	54fd                	li	s1,-1
    80000ca6:	14e69d63          	bne	a3,a4,80000e00 <load_elf+0x1c8>
    80000caa:	0184d713          	srli	a4,s1,0x18
    80000cae:	8ff9                	and	a5,a5,a4
    80000cb0:	0000a717          	auipc	a4,0xa
    80000cb4:	7d073703          	ld	a4,2000(a4) # 8000b480 <trap_table+0x40>
    80000cb8:	18e79563          	bne	a5,a4,80000e42 <load_elf+0x20a>
    80000cbc:	04815603          	lhu	a2,72(sp)
    80000cc0:	0189b783          	ld	a5,24(s3)
    80000cc4:	00361413          	slli	s0,a2,0x3
    80000cc8:	8c11                	sub	s0,s0,a2
    80000cca:	040e                	slli	s0,s0,0x3
    80000ccc:	1287ea63          	bltu	a5,s0,80000e00 <load_elf+0x1c8>
    80000cd0:	76c2                	ld	a3,48(sp)
    80000cd2:	0109b583          	ld	a1,16(s3)
    80000cd6:	8622                	mv	a2,s0
    80000cd8:	8556                	mv	a0,s5
    80000cda:	a87ff0ef          	jal	ra,80000760 <file_pread>
    80000cde:	12854163          	blt	a0,s0,80000e00 <load_elf+0x1c8>
    80000ce2:	02015a03          	lhu	s4,32(sp)
    80000ce6:	04815683          	lhu	a3,72(sp)
    80000cea:	7722                	ld	a4,40(sp)
    80000cec:	1a75                	addi	s4,s4,-3
    80000cee:	001a3a13          	seqz	s4,s4
    80000cf2:	0a32                	slli	s4,s4,0xc
    80000cf4:	0006879b          	sext.w	a5,a3
    80000cf8:	9752                	add	a4,a4,s4
    80000cfa:	03800613          	li	a2,56
    80000cfe:	00f9a223          	sw	a5,4(s3)
    80000d02:	00c9a023          	sw	a2,0(s3)
    80000d06:	02e9b423          	sd	a4,40(s3)
    80000d0a:	37fd                	addiw	a5,a5,-1
    80000d0c:	0109b583          	ld	a1,16(s3)
    80000d10:	10978763          	beq	a5,s1,80000e1e <load_elf+0x1e6>
    80000d14:	fff6871b          	addiw	a4,a3,-1
    80000d18:	02071613          	slli	a2,a4,0x20
    80000d1c:	00369d13          	slli	s10,a3,0x3
    80000d20:	9201                	srli	a2,a2,0x20
    80000d22:	40dd0d33          	sub	s10,s10,a3
    80000d26:	00379413          	slli	s0,a5,0x3
    80000d2a:	0d0e                	slli	s10,s10,0x3
    80000d2c:	00361713          	slli	a4,a2,0x3
    80000d30:	8c1d                	sub	s0,s0,a5
    80000d32:	f90d0d13          	addi	s10,s10,-112
    80000d36:	8f11                	sub	a4,a4,a2
    80000d38:	040e                	slli	s0,s0,0x3
    80000d3a:	9d2e                	add	s10,s10,a1
    80000d3c:	070e                	slli	a4,a4,0x3
    80000d3e:	6b85                	lui	s7,0x1
    80000d40:	6b21                	lui	s6,0x8
    80000d42:	942e                	add	s0,s0,a1
    80000d44:	40ed0d33          	sub	s10,s10,a4
    80000d48:	4d85                	li	s11,1
    80000d4a:	1bfd                	addi	s7,s7,-1
    80000d4c:	0b49                	addi	s6,s6,18
    80000d4e:	a029                	j	80000d58 <load_elf+0x120>
    80000d50:	fc840413          	addi	s0,s0,-56
    80000d54:	0da40563          	beq	s0,s10,80000e1e <load_elf+0x1e6>
    80000d58:	401c                	lw	a5,0(s0)
    80000d5a:	ffb79be3          	bne	a5,s11,80000d50 <load_elf+0x118>
    80000d5e:	741c                	ld	a5,40(s0)
    80000d60:	dbe5                	beqz	a5,80000d50 <load_elf+0x118>
    80000d62:	01043c83          	ld	s9,16(s0)
    80000d66:	0309b703          	ld	a4,48(s3)
    80000d6a:	014c8933          	add	s2,s9,s4
    80000d6e:	97ca                	add	a5,a5,s2
    80000d70:	017cfcb3          	and	s9,s9,s7
    80000d74:	00f77463          	bgeu	a4,a5,80000d7c <load_elf+0x144>
    80000d78:	02f9b823          	sd	a5,48(s3)
    80000d7c:	86da                	mv	a3,s6
    80000d7e:	000c9363          	bnez	s9,80000d84 <load_elf+0x14c>
    80000d82:	46c9                	li	a3,18
    80000d84:	4058                	lw	a4,4(s0)
    80000d86:	641c                	ld	a5,8(s0)
    80000d88:	700c                	ld	a1,32(s0)
    80000d8a:	0027149b          	slliw	s1,a4,0x2
    80000d8e:	0027561b          	srliw	a2,a4,0x2
    80000d92:	8a05                	andi	a2,a2,1
    80000d94:	8891                	andi	s1,s1,4
    80000d96:	8cd1                	or	s1,s1,a2
    80000d98:	0024e613          	ori	a2,s1,2
    80000d9c:	41990c33          	sub	s8,s2,s9
    80000da0:	00277813          	andi	a6,a4,2
    80000da4:	419787b3          	sub	a5,a5,s9
    80000da8:	8756                	mv	a4,s5
    80000daa:	2601                	sext.w	a2,a2
    80000dac:	95e6                	add	a1,a1,s9
    80000dae:	8562                	mv	a0,s8
    80000db0:	0104e4b3          	or	s1,s1,a6
    80000db4:	5a3000ef          	jal	ra,80001b56 <__do_mmap>
    80000db8:	04ac1463          	bne	s8,a0,80000e00 <load_elf+0x1c8>
    80000dbc:	8666                	mv	a2,s9
    80000dbe:	4581                	li	a1,0
    80000dc0:	62e060ef          	jal	ra,800073ee <memset>
    80000dc4:	0024f793          	andi	a5,s1,2
    80000dc8:	c3b9                	beqz	a5,80000e0e <load_elf+0x1d6>
    80000dca:	02043803          	ld	a6,32(s0)
    80000dce:	740c                	ld	a1,40(s0)
    80000dd0:	187d                	addi	a6,a6,-1
    80000dd2:	9866                	add	a6,a6,s9
    80000dd4:	00c85813          	srli	a6,a6,0xc
    80000dd8:	0805                	addi	a6,a6,1
    80000dda:	0832                	slli	a6,a6,0xc
    80000ddc:	419807b3          	sub	a5,a6,s9
    80000de0:	f6b7f8e3          	bgeu	a5,a1,80000d50 <load_elf+0x118>
    80000de4:	993e                	add	s2,s2,a5
    80000de6:	95e6                	add	a1,a1,s9
    80000de8:	4781                	li	a5,0
    80000dea:	4701                	li	a4,0
    80000dec:	03200693          	li	a3,50
    80000df0:	8626                	mv	a2,s1
    80000df2:	410585b3          	sub	a1,a1,a6
    80000df6:	854a                	mv	a0,s2
    80000df8:	55f000ef          	jal	ra,80001b56 <__do_mmap>
    80000dfc:	f4a90ae3          	beq	s2,a0,80000d50 <load_elf+0x118>
    80000e00:	65a2                	ld	a1,8(sp)
    80000e02:	00007517          	auipc	a0,0x7
    80000e06:	31e50513          	addi	a0,a0,798 # 80008120 <illegal_insn_trap_table+0x1e4>
    80000e0a:	370000ef          	jal	ra,8000117a <do_panic>
    80000e0e:	700c                	ld	a1,32(s0)
    80000e10:	8626                	mv	a2,s1
    80000e12:	8562                	mv	a0,s8
    80000e14:	95e6                	add	a1,a1,s9
    80000e16:	6d4000ef          	jal	ra,800014ea <do_mprotect>
    80000e1a:	d945                	beqz	a0,80000dca <load_elf+0x192>
    80000e1c:	b7d5                	j	80000e00 <load_elf+0x1c8>
    80000e1e:	8556                	mv	a0,s5
    80000e20:	ef4ff0ef          	jal	ra,80000514 <file_decref>
    80000e24:	70ea                	ld	ra,184(sp)
    80000e26:	744a                	ld	s0,176(sp)
    80000e28:	74aa                	ld	s1,168(sp)
    80000e2a:	790a                	ld	s2,160(sp)
    80000e2c:	69ea                	ld	s3,152(sp)
    80000e2e:	6a4a                	ld	s4,144(sp)
    80000e30:	6aaa                	ld	s5,136(sp)
    80000e32:	6b0a                	ld	s6,128(sp)
    80000e34:	7be6                	ld	s7,120(sp)
    80000e36:	7c46                	ld	s8,112(sp)
    80000e38:	7ca6                	ld	s9,104(sp)
    80000e3a:	7d06                	ld	s10,96(sp)
    80000e3c:	6de6                	ld	s11,88(sp)
    80000e3e:	6129                	addi	sp,sp,192
    80000e40:	8082                	ret
    80000e42:	00007517          	auipc	a0,0x7
    80000e46:	27e50513          	addi	a0,a0,638 # 800080c0 <illegal_insn_trap_table+0x184>
    80000e4a:	00007697          	auipc	a3,0x7
    80000e4e:	25668693          	addi	a3,a3,598 # 800080a0 <illegal_insn_trap_table+0x164>
    80000e52:	06b00613          	li	a2,107
    80000e56:	00007597          	auipc	a1,0x7
    80000e5a:	25a58593          	addi	a1,a1,602 # 800080b0 <illegal_insn_trap_table+0x174>
    80000e5e:	585030ef          	jal	ra,80004be2 <printm>
    80000e62:	6541                	lui	a0,0x10
    80000e64:	157d                	addi	a0,a0,-1
    80000e66:	5ed030ef          	jal	ra,80004c52 <poweroff>

0000000080000e6a <load_elf_user>:
    80000e6a:	7131                	addi	sp,sp,-192
    80000e6c:	e952                	sd	s4,144(sp)
    80000e6e:	ecee                	sd	s11,88(sp)
    80000e70:	8a32                	mv	s4,a2
    80000e72:	8dae                	mv	s11,a1
    80000e74:	4601                	li	a2,0
    80000e76:	4581                	li	a1,0
    80000e78:	fd06                	sd	ra,184(sp)
    80000e7a:	f922                	sd	s0,176(sp)
    80000e7c:	f526                	sd	s1,168(sp)
    80000e7e:	f14a                	sd	s2,160(sp)
    80000e80:	ed4e                	sd	s3,152(sp)
    80000e82:	e556                	sd	s5,136(sp)
    80000e84:	e15a                	sd	s6,128(sp)
    80000e86:	fcde                	sd	s7,120(sp)
    80000e88:	f8e2                	sd	s8,112(sp)
    80000e8a:	f4e6                	sd	s9,104(sp)
    80000e8c:	f0ea                	sd	s10,96(sp)
    80000e8e:	e42a                	sd	a0,8(sp)
    80000e90:	80fff0ef          	jal	ra,8000069e <file_open>
    80000e94:	77fd                	lui	a5,0xfffff
    80000e96:	18f57163          	bgeu	a0,a5,80001018 <load_elf_user+0x1ae>
    80000e9a:	4681                	li	a3,0
    80000e9c:	04000613          	li	a2,64
    80000ea0:	080c                	addi	a1,sp,16
    80000ea2:	89aa                	mv	s3,a0
    80000ea4:	8bdff0ef          	jal	ra,80000760 <file_pread>
    80000ea8:	03f00793          	li	a5,63
    80000eac:	16a7d663          	bge	a5,a0,80001018 <load_elf_user+0x1ae>
    80000eb0:	67c2                	ld	a5,16(sp)
    80000eb2:	464c4737          	lui	a4,0x464c4
    80000eb6:	57f70713          	addi	a4,a4,1407 # 464c457f <_ftext-0x39b3ba81>
    80000eba:	02079693          	slli	a3,a5,0x20
    80000ebe:	9281                	srli	a3,a3,0x20
    80000ec0:	54fd                	li	s1,-1
    80000ec2:	14e69b63          	bne	a3,a4,80001018 <load_elf_user+0x1ae>
    80000ec6:	0184d713          	srli	a4,s1,0x18
    80000eca:	8ff9                	and	a5,a5,a4
    80000ecc:	0000a717          	auipc	a4,0xa
    80000ed0:	5b473703          	ld	a4,1460(a4) # 8000b480 <trap_table+0x40>
    80000ed4:	16e79b63          	bne	a5,a4,8000104a <load_elf_user+0x1e0>
    80000ed8:	04815603          	lhu	a2,72(sp)
    80000edc:	018db783          	ld	a5,24(s11)
    80000ee0:	00361413          	slli	s0,a2,0x3
    80000ee4:	8c11                	sub	s0,s0,a2
    80000ee6:	040e                	slli	s0,s0,0x3
    80000ee8:	1287e863          	bltu	a5,s0,80001018 <load_elf_user+0x1ae>
    80000eec:	76c2                	ld	a3,48(sp)
    80000eee:	010db583          	ld	a1,16(s11)
    80000ef2:	8622                	mv	a2,s0
    80000ef4:	854e                	mv	a0,s3
    80000ef6:	86bff0ef          	jal	ra,80000760 <file_pread>
    80000efa:	10854f63          	blt	a0,s0,80001018 <load_elf_user+0x1ae>
    80000efe:	02015903          	lhu	s2,32(sp)
    80000f02:	04815683          	lhu	a3,72(sp)
    80000f06:	7722                	ld	a4,40(sp)
    80000f08:	1975                	addi	s2,s2,-3
    80000f0a:	00193913          	seqz	s2,s2
    80000f0e:	0932                	slli	s2,s2,0xc
    80000f10:	0006879b          	sext.w	a5,a3
    80000f14:	974a                	add	a4,a4,s2
    80000f16:	03800613          	li	a2,56
    80000f1a:	00fda223          	sw	a5,4(s11)
    80000f1e:	00cda023          	sw	a2,0(s11)
    80000f22:	02edb423          	sd	a4,40(s11)
    80000f26:	37fd                	addiw	a5,a5,-1
    80000f28:	010db583          	ld	a1,16(s11)
    80000f2c:	0e978d63          	beq	a5,s1,80001026 <load_elf_user+0x1bc>
    80000f30:	fff6871b          	addiw	a4,a3,-1
    80000f34:	02071613          	slli	a2,a4,0x20
    80000f38:	00369c93          	slli	s9,a3,0x3
    80000f3c:	9201                	srli	a2,a2,0x20
    80000f3e:	40dc8cb3          	sub	s9,s9,a3
    80000f42:	00379413          	slli	s0,a5,0x3
    80000f46:	0c8e                	slli	s9,s9,0x3
    80000f48:	00361713          	slli	a4,a2,0x3
    80000f4c:	8c1d                	sub	s0,s0,a5
    80000f4e:	f90c8c93          	addi	s9,s9,-112
    80000f52:	8f11                	sub	a4,a4,a2
    80000f54:	6aa1                	lui	s5,0x8
    80000f56:	040e                	slli	s0,s0,0x3
    80000f58:	9cae                	add	s9,s9,a1
    80000f5a:	070e                	slli	a4,a4,0x3
    80000f5c:	6b05                	lui	s6,0x1
    80000f5e:	012a8793          	addi	a5,s5,18 # 8012 <_ftext-0x7fff7fee>
    80000f62:	942e                	add	s0,s0,a1
    80000f64:	40ec8cb3          	sub	s9,s9,a4
    80000f68:	4d05                	li	s10,1
    80000f6a:	1b7d                	addi	s6,s6,-1
    80000f6c:	e03e                	sd	a5,0(sp)
    80000f6e:	a029                	j	80000f78 <load_elf_user+0x10e>
    80000f70:	fc840413          	addi	s0,s0,-56
    80000f74:	0b940963          	beq	s0,s9,80001026 <load_elf_user+0x1bc>
    80000f78:	401c                	lw	a5,0(s0)
    80000f7a:	ffa79be3          	bne	a5,s10,80000f70 <load_elf_user+0x106>
    80000f7e:	741c                	ld	a5,40(s0)
    80000f80:	dbe5                	beqz	a5,80000f70 <load_elf_user+0x106>
    80000f82:	01043c03          	ld	s8,16(s0)
    80000f86:	030db703          	ld	a4,48(s11)
    80000f8a:	012c0bb3          	add	s7,s8,s2
    80000f8e:	97de                	add	a5,a5,s7
    80000f90:	016c7c33          	and	s8,s8,s6
    80000f94:	00f77463          	bgeu	a4,a5,80000f9c <load_elf_user+0x132>
    80000f98:	02fdb823          	sd	a5,48(s11)
    80000f9c:	6682                	ld	a3,0(sp)
    80000f9e:	000c1363          	bnez	s8,80000fa4 <load_elf_user+0x13a>
    80000fa2:	46c9                	li	a3,18
    80000fa4:	4058                	lw	a4,4(s0)
    80000fa6:	641c                	ld	a5,8(s0)
    80000fa8:	700c                	ld	a1,32(s0)
    80000faa:	0027149b          	slliw	s1,a4,0x2
    80000fae:	0027561b          	srliw	a2,a4,0x2
    80000fb2:	8a05                	andi	a2,a2,1
    80000fb4:	8891                	andi	s1,s1,4
    80000fb6:	8cd1                	or	s1,s1,a2
    80000fb8:	0024e613          	ori	a2,s1,2
    80000fbc:	418b8e33          	sub	t3,s7,s8
    80000fc0:	00277893          	andi	a7,a4,2
    80000fc4:	8852                	mv	a6,s4
    80000fc6:	418787b3          	sub	a5,a5,s8
    80000fca:	874e                	mv	a4,s3
    80000fcc:	2601                	sext.w	a2,a2
    80000fce:	95e2                	add	a1,a1,s8
    80000fd0:	8572                	mv	a0,t3
    80000fd2:	8af2                	mv	s5,t3
    80000fd4:	0114e4b3          	or	s1,s1,a7
    80000fd8:	75d000ef          	jal	ra,80001f34 <__do_mmap_user>
    80000fdc:	02aa9e63          	bne	s5,a0,80001018 <load_elf_user+0x1ae>
    80000fe0:	02043883          	ld	a7,32(s0)
    80000fe4:	740c                	ld	a1,40(s0)
    80000fe6:	18fd                	addi	a7,a7,-1
    80000fe8:	98e2                	add	a7,a7,s8
    80000fea:	00c8d893          	srli	a7,a7,0xc
    80000fee:	0885                	addi	a7,a7,1
    80000ff0:	08b2                	slli	a7,a7,0xc
    80000ff2:	418887b3          	sub	a5,a7,s8
    80000ff6:	f6b7fde3          	bgeu	a5,a1,80000f70 <load_elf_user+0x106>
    80000ffa:	9bbe                	add	s7,s7,a5
    80000ffc:	95e2                	add	a1,a1,s8
    80000ffe:	8852                	mv	a6,s4
    80001000:	4781                	li	a5,0
    80001002:	4701                	li	a4,0
    80001004:	03200693          	li	a3,50
    80001008:	8626                	mv	a2,s1
    8000100a:	411585b3          	sub	a1,a1,a7
    8000100e:	855e                	mv	a0,s7
    80001010:	725000ef          	jal	ra,80001f34 <__do_mmap_user>
    80001014:	f4ab8ee3          	beq	s7,a0,80000f70 <load_elf_user+0x106>
    80001018:	65a2                	ld	a1,8(sp)
    8000101a:	00007517          	auipc	a0,0x7
    8000101e:	10650513          	addi	a0,a0,262 # 80008120 <illegal_insn_trap_table+0x1e4>
    80001022:	158000ef          	jal	ra,8000117a <do_panic>
    80001026:	854e                	mv	a0,s3
    80001028:	cecff0ef          	jal	ra,80000514 <file_decref>
    8000102c:	70ea                	ld	ra,184(sp)
    8000102e:	744a                	ld	s0,176(sp)
    80001030:	74aa                	ld	s1,168(sp)
    80001032:	790a                	ld	s2,160(sp)
    80001034:	69ea                	ld	s3,152(sp)
    80001036:	6a4a                	ld	s4,144(sp)
    80001038:	6aaa                	ld	s5,136(sp)
    8000103a:	6b0a                	ld	s6,128(sp)
    8000103c:	7be6                	ld	s7,120(sp)
    8000103e:	7c46                	ld	s8,112(sp)
    80001040:	7ca6                	ld	s9,104(sp)
    80001042:	7d06                	ld	s10,96(sp)
    80001044:	6de6                	ld	s11,88(sp)
    80001046:	6129                	addi	sp,sp,192
    80001048:	8082                	ret
    8000104a:	00007517          	auipc	a0,0x7
    8000104e:	07650513          	addi	a0,a0,118 # 800080c0 <illegal_insn_trap_table+0x184>
    80001052:	00007697          	auipc	a3,0x7
    80001056:	04e68693          	addi	a3,a3,78 # 800080a0 <illegal_insn_trap_table+0x164>
    8000105a:	0b900613          	li	a2,185
    8000105e:	00007597          	auipc	a1,0x7
    80001062:	05258593          	addi	a1,a1,82 # 800080b0 <illegal_insn_trap_table+0x174>
    80001066:	37d030ef          	jal	ra,80004be2 <printm>
    8000106a:	6541                	lui	a0,0x10
    8000106c:	157d                	addi	a0,a0,-1
    8000106e:	3e5030ef          	jal	ra,80004c52 <poweroff>

0000000080001072 <vprintk>:
    80001072:	716d                	addi	sp,sp,-272
    80001074:	862a                	mv	a2,a0
    80001076:	86ae                	mv	a3,a1
    80001078:	850a                	mv	a0,sp
    8000107a:	10000593          	li	a1,256
    8000107e:	e606                	sd	ra,264(sp)
    80001080:	0ca060ef          	jal	ra,8000714a <vsnprintf>
    80001084:	0005071b          	sext.w	a4,a0
    80001088:	0ff00793          	li	a5,255
    8000108c:	10000613          	li	a2,256
    80001090:	00e7e363          	bltu	a5,a4,80001096 <vprintk+0x24>
    80001094:	862a                	mv	a2,a0
    80001096:	858a                	mv	a1,sp
    80001098:	0000a517          	auipc	a0,0xa
    8000109c:	f7850513          	addi	a0,a0,-136 # 8000b010 <files+0x10>
    800010a0:	f60ff0ef          	jal	ra,80000800 <file_write>
    800010a4:	60b2                	ld	ra,264(sp)
    800010a6:	6151                	addi	sp,sp,272
    800010a8:	8082                	ret

00000000800010aa <printk>:
    800010aa:	711d                	addi	sp,sp,-96
    800010ac:	02810313          	addi	t1,sp,40
    800010b0:	f42e                	sd	a1,40(sp)
    800010b2:	859a                	mv	a1,t1
    800010b4:	ec06                	sd	ra,24(sp)
    800010b6:	f832                	sd	a2,48(sp)
    800010b8:	fc36                	sd	a3,56(sp)
    800010ba:	e0ba                	sd	a4,64(sp)
    800010bc:	e4be                	sd	a5,72(sp)
    800010be:	e8c2                	sd	a6,80(sp)
    800010c0:	ecc6                	sd	a7,88(sp)
    800010c2:	e41a                	sd	t1,8(sp)
    800010c4:	fafff0ef          	jal	ra,80001072 <vprintk>
    800010c8:	60e2                	ld	ra,24(sp)
    800010ca:	6125                	addi	sp,sp,96
    800010cc:	8082                	ret

00000000800010ce <dump_tf>:
    800010ce:	7139                	addi	sp,sp,-64
    800010d0:	f426                	sd	s1,40(sp)
    800010d2:	f04a                	sd	s2,32(sp)
    800010d4:	ec4e                	sd	s3,24(sp)
    800010d6:	e852                	sd	s4,16(sp)
    800010d8:	e456                	sd	s5,8(sp)
    800010da:	e05a                	sd	s6,0(sp)
    800010dc:	fc06                	sd	ra,56(sp)
    800010de:	f822                	sd	s0,48(sp)
    800010e0:	00006a17          	auipc	s4,0x6
    800010e4:	410a0a13          	addi	s4,s4,1040 # 800074f0 <regnames.2620>
    800010e8:	892a                	mv	s2,a0
    800010ea:	00053023          	sd	zero,0(a0)
    800010ee:	8b52                	mv	s6,s4
    800010f0:	02000493          	li	s1,32
    800010f4:	00007597          	auipc	a1,0x7
    800010f8:	04c58593          	addi	a1,a1,76 # 80008140 <illegal_insn_trap_table+0x204>
    800010fc:	4601                	li	a2,0
    800010fe:	4a81                	li	s5,0
    80001100:	00007997          	auipc	s3,0x7
    80001104:	04898993          	addi	s3,s3,72 # 80008148 <illegal_insn_trap_table+0x20c>
    80001108:	fe848413          	addi	s0,s1,-24
    8000110c:	02000693          	li	a3,32
    80001110:	854e                	mv	a0,s3
    80001112:	f99ff0ef          	jal	ra,800010aa <printk>
    80001116:	008a0733          	add	a4,s4,s0
    8000111a:	008907b3          	add	a5,s2,s0
    8000111e:	0421                	addi	s0,s0,8
    80001120:	630c                	ld	a1,0(a4)
    80001122:	6390                	ld	a2,0(a5)
    80001124:	fe9414e3          	bne	s0,s1,8000110c <dump_tf+0x3e>
    80001128:	46a9                	li	a3,10
    8000112a:	854e                	mv	a0,s3
    8000112c:	f7fff0ef          	jal	ra,800010aa <printk>
    80001130:	2a91                	addiw	s5,s5,4
    80001132:	02000793          	li	a5,32
    80001136:	020b0b13          	addi	s6,s6,32 # 1020 <_ftext-0x7fffefe0>
    8000113a:	00fa8a63          	beq	s5,a5,8000114e <dump_tf+0x80>
    8000113e:	009907b3          	add	a5,s2,s1
    80001142:	6390                	ld	a2,0(a5)
    80001144:	000b3583          	ld	a1,0(s6)
    80001148:	02048493          	addi	s1,s1,32
    8000114c:	bf75                	j	80001108 <dump_tf+0x3a>
    8000114e:	7442                	ld	s0,48(sp)
    80001150:	10093703          	ld	a4,256(s2)
    80001154:	12092683          	lw	a3,288(s2)
    80001158:	11093603          	ld	a2,272(s2)
    8000115c:	10893583          	ld	a1,264(s2)
    80001160:	70e2                	ld	ra,56(sp)
    80001162:	74a2                	ld	s1,40(sp)
    80001164:	7902                	ld	s2,32(sp)
    80001166:	69e2                	ld	s3,24(sp)
    80001168:	6a42                	ld	s4,16(sp)
    8000116a:	6aa2                	ld	s5,8(sp)
    8000116c:	6b02                	ld	s6,0(sp)
    8000116e:	00007517          	auipc	a0,0x7
    80001172:	fea50513          	addi	a0,a0,-22 # 80008158 <illegal_insn_trap_table+0x21c>
    80001176:	6121                	addi	sp,sp,64
    80001178:	bf0d                	j	800010aa <printk>

000000008000117a <do_panic>:
    8000117a:	711d                	addi	sp,sp,-96
    8000117c:	02810313          	addi	t1,sp,40
    80001180:	f42e                	sd	a1,40(sp)
    80001182:	859a                	mv	a1,t1
    80001184:	ec06                	sd	ra,24(sp)
    80001186:	f832                	sd	a2,48(sp)
    80001188:	fc36                	sd	a3,56(sp)
    8000118a:	e0ba                	sd	a4,64(sp)
    8000118c:	e4be                	sd	a5,72(sp)
    8000118e:	e8c2                	sd	a6,80(sp)
    80001190:	ecc6                	sd	a7,88(sp)
    80001192:	e41a                	sd	t1,8(sp)
    80001194:	edfff0ef          	jal	ra,80001072 <vprintk>
    80001198:	557d                	li	a0,-1
    8000119a:	86bff0ef          	jal	ra,80000a04 <shutdown>

000000008000119e <kassert_fail>:
    8000119e:	1141                	addi	sp,sp,-16
    800011a0:	862a                	mv	a2,a0
    800011a2:	8586                	mv	a1,ra
    800011a4:	00007517          	auipc	a0,0x7
    800011a8:	fdc50513          	addi	a0,a0,-36 # 80008180 <illegal_insn_trap_table+0x244>
    800011ac:	e406                	sd	ra,8(sp)
    800011ae:	fcdff0ef          	jal	ra,8000117a <do_panic>

00000000800011b2 <__page_alloc>:
    800011b2:	00018697          	auipc	a3,0x18
    800011b6:	e7e68693          	addi	a3,a3,-386 # 80019030 <next_free_page>
    800011ba:	629c                	ld	a5,0(a3)
    800011bc:	1141                	addi	sp,sp,-16
    800011be:	e406                	sd	ra,8(sp)
    800011c0:	00018717          	auipc	a4,0x18
    800011c4:	e6873703          	ld	a4,-408(a4) # 80019028 <free_pages>
    800011c8:	02e78363          	beq	a5,a4,800011ee <__page_alloc+0x3c>
    800011cc:	00018617          	auipc	a2,0x18
    800011d0:	e6c63603          	ld	a2,-404(a2) # 80019038 <first_free_page>
    800011d4:	00c79713          	slli	a4,a5,0xc
    800011d8:	9732                	add	a4,a4,a2
    800011da:	0785                	addi	a5,a5,1
    800011dc:	6605                	lui	a2,0x1
    800011de:	4581                	li	a1,0
    800011e0:	853a                	mv	a0,a4
    800011e2:	e29c                	sd	a5,0(a3)
    800011e4:	20a060ef          	jal	ra,800073ee <memset>
    800011e8:	60a2                	ld	ra,8(sp)
    800011ea:	0141                	addi	sp,sp,16
    800011ec:	8082                	ret
    800011ee:	00007517          	auipc	a0,0x7
    800011f2:	0aa50513          	addi	a0,a0,170 # 80008298 <illegal_insn_trap_table+0x35c>
    800011f6:	fa9ff0ef          	jal	ra,8000119e <kassert_fail>

00000000800011fa <__vmr_alloc>:
    800011fa:	7139                	addi	sp,sp,-64
    800011fc:	f822                	sd	s0,48(sp)
    800011fe:	00018417          	auipc	s0,0x18
    80001202:	08240413          	addi	s0,s0,130 # 80019280 <vmrs>
    80001206:	00043803          	ld	a6,0(s0)
    8000120a:	f426                	sd	s1,40(sp)
    8000120c:	f04a                	sd	s2,32(sp)
    8000120e:	ec4e                	sd	s3,24(sp)
    80001210:	e852                	sd	s4,16(sp)
    80001212:	e456                	sd	s5,8(sp)
    80001214:	e05a                	sd	s6,0(sp)
    80001216:	fc06                	sd	ra,56(sp)
    80001218:	8b2a                	mv	s6,a0
    8000121a:	8aae                	mv	s5,a1
    8000121c:	84b2                	mv	s1,a2
    8000121e:	8a36                	mv	s4,a3
    80001220:	89ba                	mv	s3,a4
    80001222:	893e                	mv	s2,a5
    80001224:	04080b63          	beqz	a6,8000127a <__vmr_alloc+0x80>
    80001228:	0ff0000f          	fence
    8000122c:	6000                	ld	s0,0(s0)
    8000122e:	6885                	lui	a7,0x1
    80001230:	18c1                	addi	a7,a7,-16
    80001232:	98a2                	add	a7,a7,s0
    80001234:	a029                	j	8000123e <__vmr_alloc+0x44>
    80001236:	02840413          	addi	s0,s0,40
    8000123a:	06888b63          	beq	a7,s0,800012b0 <__vmr_alloc+0xb6>
    8000123e:	02042803          	lw	a6,32(s0)
    80001242:	fe081ae3          	bnez	a6,80001236 <__vmr_alloc+0x3c>
    80001246:	c481                	beqz	s1,8000124e <__vmr_alloc+0x54>
    80001248:	8526                	mv	a0,s1
    8000124a:	aa6ff0ef          	jal	ra,800004f0 <file_incref>
    8000124e:	01643023          	sd	s6,0(s0)
    80001252:	01543423          	sd	s5,8(s0)
    80001256:	e804                	sd	s1,16(s0)
    80001258:	01443c23          	sd	s4,24(s0)
    8000125c:	03342023          	sw	s3,32(s0)
    80001260:	03242223          	sw	s2,36(s0)
    80001264:	70e2                	ld	ra,56(sp)
    80001266:	8522                	mv	a0,s0
    80001268:	7442                	ld	s0,48(sp)
    8000126a:	74a2                	ld	s1,40(sp)
    8000126c:	7902                	ld	s2,32(sp)
    8000126e:	69e2                	ld	s3,24(sp)
    80001270:	6a42                	ld	s4,16(sp)
    80001272:	6aa2                	ld	s5,8(sp)
    80001274:	6b02                	ld	s6,0(sp)
    80001276:	6121                	addi	sp,sp,64
    80001278:	8082                	ret
    8000127a:	00018897          	auipc	a7,0x18
    8000127e:	dc688893          	addi	a7,a7,-570 # 80019040 <vm_lock>
    80001282:	57fd                	li	a5,-1
    80001284:	0008a803          	lw	a6,0(a7)
    80001288:	2801                	sext.w	a6,a6
    8000128a:	fe081de3          	bnez	a6,80001284 <__vmr_alloc+0x8a>
    8000128e:	883e                	mv	a6,a5
    80001290:	0d08a82f          	amoswap.w.aq	a6,a6,(a7)
    80001294:	2801                	sext.w	a6,a6
    80001296:	0ff0000f          	fence
    8000129a:	fe0815e3          	bnez	a6,80001284 <__vmr_alloc+0x8a>
    8000129e:	601c                	ld	a5,0(s0)
    800012a0:	cb91                	beqz	a5,800012b4 <__vmr_alloc+0xba>
    800012a2:	0ff0000f          	fence
    800012a6:	00018797          	auipc	a5,0x18
    800012aa:	d807ad23          	sw	zero,-614(a5) # 80019040 <vm_lock>
    800012ae:	bfad                	j	80001228 <__vmr_alloc+0x2e>
    800012b0:	4401                	li	s0,0
    800012b2:	bf4d                	j	80001264 <__vmr_alloc+0x6a>
    800012b4:	effff0ef          	jal	ra,800011b2 <__page_alloc>
    800012b8:	0ff0000f          	fence
    800012bc:	e008                	sd	a0,0(s0)
    800012be:	b7d5                	j	800012a2 <__vmr_alloc+0xa8>

00000000800012c0 <__continue_walk_create>:
    800012c0:	1101                	addi	sp,sp,-32
    800012c2:	e822                	sd	s0,16(sp)
    800012c4:	e426                	sd	s1,8(sp)
    800012c6:	ec06                	sd	ra,24(sp)
    800012c8:	84ae                	mv	s1,a1
    800012ca:	842a                	mv	s0,a0
    800012cc:	ee7ff0ef          	jal	ra,800011b2 <__page_alloc>
    800012d0:	00c55793          	srli	a5,a0,0xc
    800012d4:	07aa                	slli	a5,a5,0xa
    800012d6:	0017e793          	ori	a5,a5,1
    800012da:	8522                	mv	a0,s0
    800012dc:	6442                	ld	s0,16(sp)
    800012de:	60e2                	ld	ra,24(sp)
    800012e0:	e09c                	sd	a5,0(s1)
    800012e2:	64a2                	ld	s1,8(sp)
    800012e4:	4585                	li	a1,1
    800012e6:	6105                	addi	sp,sp,32
    800012e8:	a009                	j	800012ea <__walk_internal>

00000000800012ea <__walk_internal>:
    800012ea:	01e55793          	srli	a5,a0,0x1e
    800012ee:	1ff7f793          	andi	a5,a5,511
    800012f2:	00379693          	slli	a3,a5,0x3
    800012f6:	00018797          	auipc	a5,0x18
    800012fa:	0027b783          	ld	a5,2(a5) # 800192f8 <root_page_table>
    800012fe:	97b6                	add	a5,a5,a3
    80001300:	6394                	ld	a3,0(a5)
    80001302:	872a                	mv	a4,a0
    80001304:	0016f613          	andi	a2,a3,1
    80001308:	c60d                	beqz	a2,80001332 <__walk_internal+0x48>
    8000130a:	01555793          	srli	a5,a0,0x15
    8000130e:	82a9                	srli	a3,a3,0xa
    80001310:	1ff7f793          	andi	a5,a5,511
    80001314:	06b2                	slli	a3,a3,0xc
    80001316:	078e                	slli	a5,a5,0x3
    80001318:	97b6                	add	a5,a5,a3
    8000131a:	6394                	ld	a3,0(a5)
    8000131c:	0016f613          	andi	a2,a3,1
    80001320:	ca09                	beqz	a2,80001332 <__walk_internal+0x48>
    80001322:	8131                	srli	a0,a0,0xc
    80001324:	82a9                	srli	a3,a3,0xa
    80001326:	1ff57513          	andi	a0,a0,511
    8000132a:	06b2                	slli	a3,a3,0xc
    8000132c:	050e                	slli	a0,a0,0x3
    8000132e:	9536                	add	a0,a0,a3
    80001330:	8082                	ret
    80001332:	4501                	li	a0,0
    80001334:	e191                	bnez	a1,80001338 <__walk_internal+0x4e>
    80001336:	8082                	ret
    80001338:	85be                	mv	a1,a5
    8000133a:	853a                	mv	a0,a4
    8000133c:	b751                	j	800012c0 <__continue_walk_create>

000000008000133e <__vm_alloc>:
    8000133e:	7139                	addi	sp,sp,-64
    80001340:	00018797          	auipc	a5,0x18
    80001344:	e9078793          	addi	a5,a5,-368 # 800191d0 <current>
    80001348:	ec4e                	sd	s3,24(sp)
    8000134a:	0487b983          	ld	s3,72(a5)
    8000134e:	f426                	sd	s1,40(sp)
    80001350:	7f84                	ld	s1,56(a5)
    80001352:	00c51793          	slli	a5,a0,0xc
    80001356:	fc06                	sd	ra,56(sp)
    80001358:	f822                	sd	s0,48(sp)
    8000135a:	f04a                	sd	s2,32(sp)
    8000135c:	e852                	sd	s4,16(sp)
    8000135e:	e456                	sd	s5,8(sp)
    80001360:	40f989b3          	sub	s3,s3,a5
    80001364:	0299e163          	bltu	s3,s1,80001386 <__vm_alloc+0x48>
    80001368:	157d                	addi	a0,a0,-1
    8000136a:	00c51913          	slli	s2,a0,0xc
    8000136e:	7a7d                	lui	s4,0xfffff
    80001370:	6a85                	lui	s5,0x1
    80001372:	4581                	li	a1,0
    80001374:	8526                	mv	a0,s1
    80001376:	f75ff0ef          	jal	ra,800012ea <__walk_internal>
    8000137a:	c901                	beqz	a0,8000138a <__vm_alloc+0x4c>
    8000137c:	611c                	ld	a5,0(a0)
    8000137e:	c791                	beqz	a5,8000138a <__vm_alloc+0x4c>
    80001380:	94d6                	add	s1,s1,s5
    80001382:	fe99f8e3          	bgeu	s3,s1,80001372 <__vm_alloc+0x34>
    80001386:	4401                	li	s0,0
    80001388:	a831                	j	800013a4 <__vm_alloc+0x66>
    8000138a:	00990433          	add	s0,s2,s1
    8000138e:	0084fb63          	bgeu	s1,s0,800013a4 <__vm_alloc+0x66>
    80001392:	8522                	mv	a0,s0
    80001394:	4581                	li	a1,0
    80001396:	f55ff0ef          	jal	ra,800012ea <__walk_internal>
    8000139a:	cd19                	beqz	a0,800013b8 <__vm_alloc+0x7a>
    8000139c:	611c                	ld	a5,0(a0)
    8000139e:	cf89                	beqz	a5,800013b8 <__vm_alloc+0x7a>
    800013a0:	0284e063          	bltu	s1,s0,800013c0 <__vm_alloc+0x82>
    800013a4:	70e2                	ld	ra,56(sp)
    800013a6:	8522                	mv	a0,s0
    800013a8:	7442                	ld	s0,48(sp)
    800013aa:	74a2                	ld	s1,40(sp)
    800013ac:	7902                	ld	s2,32(sp)
    800013ae:	69e2                	ld	s3,24(sp)
    800013b0:	6a42                	ld	s4,16(sp)
    800013b2:	6aa2                	ld	s5,8(sp)
    800013b4:	6121                	addi	sp,sp,64
    800013b6:	8082                	ret
    800013b8:	9452                	add	s0,s0,s4
    800013ba:	fc84ece3          	bltu	s1,s0,80001392 <__vm_alloc+0x54>
    800013be:	b7dd                	j	800013a4 <__vm_alloc+0x66>
    800013c0:	84a2                	mv	s1,s0
    800013c2:	bf7d                	j	80001380 <__vm_alloc+0x42>

00000000800013c4 <__do_munmap>:
    800013c4:	7179                	addi	sp,sp,-48
    800013c6:	e84a                	sd	s2,16(sp)
    800013c8:	f406                	sd	ra,40(sp)
    800013ca:	f022                	sd	s0,32(sp)
    800013cc:	ec26                	sd	s1,24(sp)
    800013ce:	e44e                	sd	s3,8(sp)
    800013d0:	00b50933          	add	s2,a0,a1
    800013d4:	03257c63          	bgeu	a0,s2,8000140c <__do_munmap+0x48>
    800013d8:	84aa                	mv	s1,a0
    800013da:	6985                	lui	s3,0x1
    800013dc:	8526                	mv	a0,s1
    800013de:	4581                	li	a1,0
    800013e0:	f0bff0ef          	jal	ra,800012ea <__walk_internal>
    800013e4:	842a                	mv	s0,a0
    800013e6:	94ce                	add	s1,s1,s3
    800013e8:	c105                	beqz	a0,80001408 <__do_munmap+0x44>
    800013ea:	611c                	ld	a5,0(a0)
    800013ec:	0017f713          	andi	a4,a5,1
    800013f0:	cf81                	beqz	a5,80001408 <__do_munmap+0x44>
    800013f2:	eb09                	bnez	a4,80001404 <__do_munmap+0x40>
    800013f4:	5398                	lw	a4,32(a5)
    800013f6:	6b88                	ld	a0,16(a5)
    800013f8:	377d                	addiw	a4,a4,-1
    800013fa:	d398                	sw	a4,32(a5)
    800013fc:	e701                	bnez	a4,80001404 <__do_munmap+0x40>
    800013fe:	c119                	beqz	a0,80001404 <__do_munmap+0x40>
    80001400:	914ff0ef          	jal	ra,80000514 <file_decref>
    80001404:	00043023          	sd	zero,0(s0)
    80001408:	fd24eae3          	bltu	s1,s2,800013dc <__do_munmap+0x18>
    8000140c:	12000073          	sfence.vma
    80001410:	70a2                	ld	ra,40(sp)
    80001412:	7402                	ld	s0,32(sp)
    80001414:	64e2                	ld	s1,24(sp)
    80001416:	6942                	ld	s2,16(sp)
    80001418:	69a2                	ld	s3,8(sp)
    8000141a:	6145                	addi	sp,sp,48
    8000141c:	8082                	ret

000000008000141e <__walk>:
    8000141e:	4581                	li	a1,0
    80001420:	b5e9                	j	800012ea <__walk_internal>

0000000080001422 <__walk_create>:
    80001422:	4585                	li	a1,1
    80001424:	b5d9                	j	800012ea <__walk_internal>

0000000080001426 <prot_to_type>:
    80001426:	00257713          	andi	a4,a0,2
    8000142a:	00457793          	andi	a5,a0,4
    8000142e:	8905                	andi	a0,a0,1
    80001430:	2701                	sext.w	a4,a4
    80001432:	2781                	sext.w	a5,a5
    80001434:	e919                	bnez	a0,8000144a <prot_to_type+0x24>
    80001436:	c705                	beqz	a4,8000145e <prot_to_type+0x38>
    80001438:	08400513          	li	a0,132
    8000143c:	c399                	beqz	a5,80001442 <prot_to_type+0x1c>
    8000143e:	04856513          	ori	a0,a0,72
    80001442:	c199                	beqz	a1,80001448 <prot_to_type+0x22>
    80001444:	01056513          	ori	a0,a0,16
    80001448:	8082                	ret
    8000144a:	c701                	beqz	a4,80001452 <prot_to_type+0x2c>
    8000144c:	0c600513          	li	a0,198
    80001450:	b7f5                	j	8000143c <prot_to_type+0x16>
    80001452:	04a00513          	li	a0,74
    80001456:	f7f5                	bnez	a5,80001442 <prot_to_type+0x1c>
    80001458:	04200513          	li	a0,66
    8000145c:	b7dd                	j	80001442 <prot_to_type+0x1c>
    8000145e:	04800513          	li	a0,72
    80001462:	f3e5                	bnez	a5,80001442 <prot_to_type+0x1c>
    80001464:	4509                	li	a0,2
    80001466:	bff1                	j	80001442 <prot_to_type+0x1c>

0000000080001468 <__valid_user_range>:
    80001468:	95aa                	add	a1,a1,a0
    8000146a:	00a5ec63          	bltu	a1,a0,80001482 <__valid_user_range+0x1a>
    8000146e:	00018517          	auipc	a0,0x18
    80001472:	daa53503          	ld	a0,-598(a0) # 80019218 <current+0x48>
    80001476:	00b53533          	sltu	a0,a0,a1
    8000147a:	00154513          	xori	a0,a0,1
    8000147e:	2501                	sext.w	a0,a0
    80001480:	8082                	ret
    80001482:	4501                	li	a0,0
    80001484:	8082                	ret

0000000080001486 <do_munmap>:
    80001486:	1141                	addi	sp,sp,-16
    80001488:	e406                	sd	ra,8(sp)
    8000148a:	e022                	sd	s0,0(sp)
    8000148c:	03451793          	slli	a5,a0,0x34
    80001490:	eba1                	bnez	a5,800014e0 <do_munmap+0x5a>
    80001492:	00b507b3          	add	a5,a0,a1
    80001496:	5429                	li	s0,-22
    80001498:	02a7ef63          	bltu	a5,a0,800014d6 <do_munmap+0x50>
    8000149c:	00018717          	auipc	a4,0x18
    800014a0:	d7c73703          	ld	a4,-644(a4) # 80019218 <current+0x48>
    800014a4:	02f76963          	bltu	a4,a5,800014d6 <do_munmap+0x50>
    800014a8:	00018717          	auipc	a4,0x18
    800014ac:	b9870713          	addi	a4,a4,-1128 # 80019040 <vm_lock>
    800014b0:	56fd                	li	a3,-1
    800014b2:	4300                	lw	s0,0(a4)
    800014b4:	2401                	sext.w	s0,s0
    800014b6:	fc75                	bnez	s0,800014b2 <do_munmap+0x2c>
    800014b8:	87b6                	mv	a5,a3
    800014ba:	0cf727af          	amoswap.w.aq	a5,a5,(a4)
    800014be:	2781                	sext.w	a5,a5
    800014c0:	0ff0000f          	fence
    800014c4:	f7fd                	bnez	a5,800014b2 <do_munmap+0x2c>
    800014c6:	effff0ef          	jal	ra,800013c4 <__do_munmap>
    800014ca:	0ff0000f          	fence
    800014ce:	00018797          	auipc	a5,0x18
    800014d2:	b607a923          	sw	zero,-1166(a5) # 80019040 <vm_lock>
    800014d6:	60a2                	ld	ra,8(sp)
    800014d8:	8522                	mv	a0,s0
    800014da:	6402                	ld	s0,0(sp)
    800014dc:	0141                	addi	sp,sp,16
    800014de:	8082                	ret
    800014e0:	5429                	li	s0,-22
    800014e2:	bfd5                	j	800014d6 <do_munmap+0x50>

00000000800014e4 <do_mremap>:
    800014e4:	fa800513          	li	a0,-88
    800014e8:	8082                	ret

00000000800014ea <do_mprotect>:
    800014ea:	715d                	addi	sp,sp,-80
    800014ec:	e85a                	sd	s6,16(sp)
    800014ee:	e486                	sd	ra,72(sp)
    800014f0:	e0a2                	sd	s0,64(sp)
    800014f2:	fc26                	sd	s1,56(sp)
    800014f4:	f84a                	sd	s2,48(sp)
    800014f6:	f44e                	sd	s3,40(sp)
    800014f8:	f052                	sd	s4,32(sp)
    800014fa:	ec56                	sd	s5,24(sp)
    800014fc:	e45e                	sd	s7,8(sp)
    800014fe:	e062                	sd	s8,0(sp)
    80001500:	03451793          	slli	a5,a0,0x34
    80001504:	5b29                	li	s6,-22
    80001506:	ebe1                	bnez	a5,800015d6 <do_mprotect+0xec>
    80001508:	8c2a                	mv	s8,a0
    8000150a:	8432                	mv	s0,a2
    8000150c:	0347db13          	srli	s6,a5,0x34
    80001510:	00018717          	auipc	a4,0x18
    80001514:	b3070713          	addi	a4,a4,-1232 # 80019040 <vm_lock>
    80001518:	56fd                	li	a3,-1
    8000151a:	431c                	lw	a5,0(a4)
    8000151c:	2781                	sext.w	a5,a5
    8000151e:	fff5                	bnez	a5,8000151a <do_mprotect+0x30>
    80001520:	87b6                	mv	a5,a3
    80001522:	0cf727af          	amoswap.w.aq	a5,a5,(a4)
    80001526:	2781                	sext.w	a5,a5
    80001528:	0ff0000f          	fence
    8000152c:	f7fd                	bnez	a5,8000151a <do_mprotect+0x30>
    8000152e:	00bc04b3          	add	s1,s8,a1
    80001532:	089c7a63          	bgeu	s8,s1,800015c6 <do_mprotect+0xdc>
    80001536:	00147a13          	andi	s4,s0,1
    8000153a:	4a81                	li	s5,0
    8000153c:	0e0a1c63          	bnez	s4,80001634 <do_mprotect+0x14a>
    80001540:	00247913          	andi	s2,s0,2
    80001544:	00447993          	andi	s3,s0,4
    80001548:	084aeb93          	ori	s7,s5,132
    8000154c:	2901                	sext.w	s2,s2
    8000154e:	2981                	sext.w	s3,s3
    80001550:	0ccaea93          	ori	s5,s5,204
    80001554:	a819                	j	8000156a <do_mprotect+0x80>
    80001556:	53d8                	lw	a4,36(a5)
    80001558:	00e466b3          	or	a3,s0,a4
    8000155c:	0ce69f63          	bne	a3,a4,8000163a <do_mprotect+0x150>
    80001560:	d3c0                	sw	s0,36(a5)
    80001562:	6785                	lui	a5,0x1
    80001564:	9c3e                	add	s8,s8,a5
    80001566:	069c7063          	bgeu	s8,s1,800015c6 <do_mprotect+0xdc>
    8000156a:	4581                	li	a1,0
    8000156c:	8562                	mv	a0,s8
    8000156e:	d7dff0ef          	jal	ra,800012ea <__walk_internal>
    80001572:	cd71                	beqz	a0,8000164e <do_mprotect+0x164>
    80001574:	611c                	ld	a5,0(a0)
    80001576:	cfe1                	beqz	a5,8000164e <do_mprotect+0x164>
    80001578:	0017f713          	andi	a4,a5,1
    8000157c:	df69                	beqz	a4,80001556 <do_mprotect+0x6c>
    8000157e:	0107f713          	andi	a4,a5,16
    80001582:	cf45                	beqz	a4,8000163a <do_mprotect+0x150>
    80001584:	000a0563          	beqz	s4,8000158e <do_mprotect+0xa4>
    80001588:	0027f713          	andi	a4,a5,2
    8000158c:	c75d                	beqz	a4,8000163a <do_mprotect+0x150>
    8000158e:	00090563          	beqz	s2,80001598 <do_mprotect+0xae>
    80001592:	0047f713          	andi	a4,a5,4
    80001596:	c355                	beqz	a4,8000163a <do_mprotect+0x150>
    80001598:	00098563          	beqz	s3,800015a2 <do_mprotect+0xb8>
    8000159c:	0087f713          	andi	a4,a5,8
    800015a0:	cf49                	beqz	a4,8000163a <do_mprotect+0x150>
    800015a2:	060a1263          	bnez	s4,80001606 <do_mprotect+0x11c>
    800015a6:	04091563          	bnez	s2,800015f0 <do_mprotect+0x106>
    800015aa:	04800713          	li	a4,72
    800015ae:	06098b63          	beqz	s3,80001624 <do_mprotect+0x13a>
    800015b2:	c007f793          	andi	a5,a5,-1024
    800015b6:	8fd9                	or	a5,a5,a4
    800015b8:	0117e793          	ori	a5,a5,17
    800015bc:	e11c                	sd	a5,0(a0)
    800015be:	6785                	lui	a5,0x1
    800015c0:	9c3e                	add	s8,s8,a5
    800015c2:	fa9c64e3          	bltu	s8,s1,8000156a <do_mprotect+0x80>
    800015c6:	0ff0000f          	fence
    800015ca:	00018797          	auipc	a5,0x18
    800015ce:	a607ab23          	sw	zero,-1418(a5) # 80019040 <vm_lock>
    800015d2:	12000073          	sfence.vma
    800015d6:	60a6                	ld	ra,72(sp)
    800015d8:	6406                	ld	s0,64(sp)
    800015da:	74e2                	ld	s1,56(sp)
    800015dc:	7942                	ld	s2,48(sp)
    800015de:	79a2                	ld	s3,40(sp)
    800015e0:	7a02                	ld	s4,32(sp)
    800015e2:	6ae2                	ld	s5,24(sp)
    800015e4:	6ba2                	ld	s7,8(sp)
    800015e6:	6c02                	ld	s8,0(sp)
    800015e8:	855a                	mv	a0,s6
    800015ea:	6b42                	ld	s6,16(sp)
    800015ec:	6161                	addi	sp,sp,80
    800015ee:	8082                	ret
    800015f0:	875e                	mv	a4,s7
    800015f2:	fc0980e3          	beqz	s3,800015b2 <do_mprotect+0xc8>
    800015f6:	8756                	mv	a4,s5
    800015f8:	c007f793          	andi	a5,a5,-1024
    800015fc:	8fd9                	or	a5,a5,a4
    800015fe:	0117e793          	ori	a5,a5,17
    80001602:	e11c                	sd	a5,0(a0)
    80001604:	bf6d                	j	800015be <do_mprotect+0xd4>
    80001606:	fe0915e3          	bnez	s2,800015f0 <do_mprotect+0x106>
    8000160a:	04a00713          	li	a4,74
    8000160e:	fa0992e3          	bnez	s3,800015b2 <do_mprotect+0xc8>
    80001612:	04200713          	li	a4,66
    80001616:	c007f793          	andi	a5,a5,-1024
    8000161a:	8fd9                	or	a5,a5,a4
    8000161c:	0117e793          	ori	a5,a5,17
    80001620:	e11c                	sd	a5,0(a0)
    80001622:	bf71                	j	800015be <do_mprotect+0xd4>
    80001624:	4709                	li	a4,2
    80001626:	c007f793          	andi	a5,a5,-1024
    8000162a:	8fd9                	or	a5,a5,a4
    8000162c:	0117e793          	ori	a5,a5,17
    80001630:	e11c                	sd	a5,0(a0)
    80001632:	b771                	j	800015be <do_mprotect+0xd4>
    80001634:	04200a93          	li	s5,66
    80001638:	b721                	j	80001540 <do_mprotect+0x56>
    8000163a:	5b4d                	li	s6,-13
    8000163c:	0ff0000f          	fence
    80001640:	00018797          	auipc	a5,0x18
    80001644:	a007a023          	sw	zero,-1536(a5) # 80019040 <vm_lock>
    80001648:	12000073          	sfence.vma
    8000164c:	b769                	j	800015d6 <do_mprotect+0xec>
    8000164e:	5b51                	li	s6,-12
    80001650:	0ff0000f          	fence
    80001654:	00018797          	auipc	a5,0x18
    80001658:	9e07a623          	sw	zero,-1556(a5) # 80019040 <vm_lock>
    8000165c:	12000073          	sfence.vma
    80001660:	bf9d                	j	800015d6 <do_mprotect+0xec>

0000000080001662 <__map_kernel_range>:
    80001662:	fff60793          	addi	a5,a2,-1 # fff <_ftext-0x7ffff001>
    80001666:	83b1                	srli	a5,a5,0xc
    80001668:	715d                	addi	sp,sp,-80
    8000166a:	0785                	addi	a5,a5,1
    8000166c:	f84a                	sd	s2,48(sp)
    8000166e:	e486                	sd	ra,72(sp)
    80001670:	e0a2                	sd	s0,64(sp)
    80001672:	fc26                	sd	s1,56(sp)
    80001674:	f44e                	sd	s3,40(sp)
    80001676:	f052                	sd	s4,32(sp)
    80001678:	ec56                	sd	s5,24(sp)
    8000167a:	e85a                	sd	s6,16(sp)
    8000167c:	e45e                	sd	s7,8(sp)
    8000167e:	07b2                	slli	a5,a5,0xc
    80001680:	40a58933          	sub	s2,a1,a0
    80001684:	cfbd                	beqz	a5,80001702 <__map_kernel_range+0xa0>
    80001686:	0016fa13          	andi	s4,a3,1
    8000168a:	8baa                	mv	s7,a0
    8000168c:	00c7d493          	srli	s1,a5,0xc
    80001690:	4b01                	li	s6,0
    80001692:	080a1763          	bnez	s4,80001720 <__map_kernel_range+0xbe>
    80001696:	0026f993          	andi	s3,a3,2
    8000169a:	04b2                	slli	s1,s1,0xc
    8000169c:	8a91                	andi	a3,a3,4
    8000169e:	084b6a93          	ori	s5,s6,132
    800016a2:	94de                	add	s1,s1,s7
    800016a4:	2981                	sext.w	s3,s3
    800016a6:	0006841b          	sext.w	s0,a3
    800016aa:	0ccb6b13          	ori	s6,s6,204
    800016ae:	a005                	j	800016ce <__map_kernel_range+0x6c>
    800016b0:	06099463          	bnez	s3,80001718 <__map_kernel_range+0xb6>
    800016b4:	04800713          	li	a4,72
    800016b8:	e011                	bnez	s0,800016bc <__map_kernel_range+0x5a>
    800016ba:	4709                	li	a4,2
    800016bc:	07aa                	slli	a5,a5,0xa
    800016be:	8fd9                	or	a5,a5,a4
    800016c0:	0017e793          	ori	a5,a5,1
    800016c4:	e11c                	sd	a5,0(a0)
    800016c6:	6785                	lui	a5,0x1
    800016c8:	9bbe                	add	s7,s7,a5
    800016ca:	029b8c63          	beq	s7,s1,80001702 <__map_kernel_range+0xa0>
    800016ce:	4585                	li	a1,1
    800016d0:	855e                	mv	a0,s7
    800016d2:	c19ff0ef          	jal	ra,800012ea <__walk_internal>
    800016d6:	c921                	beqz	a0,80001726 <__map_kernel_range+0xc4>
    800016d8:	017907b3          	add	a5,s2,s7
    800016dc:	83b1                	srli	a5,a5,0xc
    800016de:	fc0a09e3          	beqz	s4,800016b0 <__map_kernel_range+0x4e>
    800016e2:	02099b63          	bnez	s3,80001718 <__map_kernel_range+0xb6>
    800016e6:	04a00713          	li	a4,74
    800016ea:	f869                	bnez	s0,800016bc <__map_kernel_range+0x5a>
    800016ec:	04200713          	li	a4,66
    800016f0:	07aa                	slli	a5,a5,0xa
    800016f2:	8fd9                	or	a5,a5,a4
    800016f4:	0017e793          	ori	a5,a5,1
    800016f8:	e11c                	sd	a5,0(a0)
    800016fa:	6785                	lui	a5,0x1
    800016fc:	9bbe                	add	s7,s7,a5
    800016fe:	fc9b98e3          	bne	s7,s1,800016ce <__map_kernel_range+0x6c>
    80001702:	60a6                	ld	ra,72(sp)
    80001704:	6406                	ld	s0,64(sp)
    80001706:	74e2                	ld	s1,56(sp)
    80001708:	7942                	ld	s2,48(sp)
    8000170a:	79a2                	ld	s3,40(sp)
    8000170c:	7a02                	ld	s4,32(sp)
    8000170e:	6ae2                	ld	s5,24(sp)
    80001710:	6b42                	ld	s6,16(sp)
    80001712:	6ba2                	ld	s7,8(sp)
    80001714:	6161                	addi	sp,sp,80
    80001716:	8082                	ret
    80001718:	8756                	mv	a4,s5
    8000171a:	d04d                	beqz	s0,800016bc <__map_kernel_range+0x5a>
    8000171c:	875a                	mv	a4,s6
    8000171e:	bf79                	j	800016bc <__map_kernel_range+0x5a>
    80001720:	04200b13          	li	s6,66
    80001724:	bf8d                	j	80001696 <__map_kernel_range+0x34>
    80001726:	00007517          	auipc	a0,0x7
    8000172a:	b9250513          	addi	a0,a0,-1134 # 800082b8 <illegal_insn_trap_table+0x37c>
    8000172e:	a71ff0ef          	jal	ra,8000119e <kassert_fail>

0000000080001732 <populate_mapping>:
    80001732:	77fd                	lui	a5,0xfffff
    80001734:	8a09                	andi	a2,a2,2
    80001736:	8fe9                	and	a5,a5,a0
    80001738:	95aa                	add	a1,a1,a0
    8000173a:	2601                	sext.w	a2,a2
    8000173c:	6705                	lui	a4,0x1
    8000173e:	00b7f763          	bgeu	a5,a1,8000174c <populate_mapping+0x1a>
    80001742:	e611                	bnez	a2,8000174e <populate_mapping+0x1c>
    80001744:	4394                	lw	a3,0(a5)
    80001746:	97ba                	add	a5,a5,a4
    80001748:	feb7ede3          	bltu	a5,a1,80001742 <populate_mapping+0x10>
    8000174c:	8082                	ret
    8000174e:	0f50000f          	fence	iorw,ow
    80001752:	0407a02f          	amoadd.w.aq	zero,zero,(a5)
    80001756:	bfc5                	j	80001746 <populate_mapping+0x14>

0000000080001758 <__walk_internal_user>:
    80001758:	01e5d793          	srli	a5,a1,0x1e
    8000175c:	1ff7f793          	andi	a5,a5,511
    80001760:	078e                	slli	a5,a5,0x3
    80001762:	97aa                	add	a5,a5,a0
    80001764:	872e                	mv	a4,a1
    80001766:	638c                	ld	a1,0(a5)
    80001768:	882a                	mv	a6,a0
    8000176a:	0015f693          	andi	a3,a1,1
    8000176e:	c695                	beqz	a3,8000179a <__walk_internal_user+0x42>
    80001770:	01575793          	srli	a5,a4,0x15
    80001774:	81a9                	srli	a1,a1,0xa
    80001776:	1ff7f793          	andi	a5,a5,511
    8000177a:	05b2                	slli	a1,a1,0xc
    8000177c:	078e                	slli	a5,a5,0x3
    8000177e:	97ae                	add	a5,a5,a1
    80001780:	6394                	ld	a3,0(a5)
    80001782:	0016f593          	andi	a1,a3,1
    80001786:	c991                	beqz	a1,8000179a <__walk_internal_user+0x42>
    80001788:	00c75513          	srli	a0,a4,0xc
    8000178c:	82a9                	srli	a3,a3,0xa
    8000178e:	1ff57513          	andi	a0,a0,511
    80001792:	06b2                	slli	a3,a3,0xc
    80001794:	050e                	slli	a0,a0,0x3
    80001796:	9536                	add	a0,a0,a3
    80001798:	8082                	ret
    8000179a:	4501                	li	a0,0
    8000179c:	e211                	bnez	a2,800017a0 <__walk_internal_user+0x48>
    8000179e:	8082                	ret
    800017a0:	8642                	mv	a2,a6
    800017a2:	85be                	mv	a1,a5
    800017a4:	853a                	mv	a0,a4
    800017a6:	afa9                	j	80001f00 <__continue_walk_create_user>

00000000800017a8 <__walk_create_user>:
    800017a8:	87ae                	mv	a5,a1
    800017aa:	4605                	li	a2,1
    800017ac:	85aa                	mv	a1,a0
    800017ae:	853e                	mv	a0,a5
    800017b0:	b765                	j	80001758 <__walk_internal_user>

00000000800017b2 <__handle_page_fault_user>:
    800017b2:	7139                	addi	sp,sp,-64
    800017b4:	777d                	lui	a4,0xfffff
    800017b6:	e852                	sd	s4,16(sp)
    800017b8:	87b2                	mv	a5,a2
    800017ba:	00e57a33          	and	s4,a0,a4
    800017be:	f426                	sd	s1,40(sp)
    800017c0:	4605                	li	a2,1
    800017c2:	84ae                	mv	s1,a1
    800017c4:	853e                	mv	a0,a5
    800017c6:	85d2                	mv	a1,s4
    800017c8:	fc06                	sd	ra,56(sp)
    800017ca:	f822                	sd	s0,48(sp)
    800017cc:	f04a                	sd	s2,32(sp)
    800017ce:	ec4e                	sd	s3,24(sp)
    800017d0:	e456                	sd	s5,8(sp)
    800017d2:	f87ff0ef          	jal	ra,80001758 <__walk_internal_user>
    800017d6:	16050063          	beqz	a0,80001936 <__handle_page_fault_user+0x184>
    800017da:	611c                	ld	a5,0(a0)
    800017dc:	892a                	mv	s2,a0
    800017de:	14078c63          	beqz	a5,80001936 <__handle_page_fault_user+0x184>
    800017e2:	001a0713          	addi	a4,s4,1 # fffffffffffff001 <_end+0xffffffff7ffe5001>
    800017e6:	00018697          	auipc	a3,0x18
    800017ea:	a326b683          	ld	a3,-1486(a3) # 80019218 <current+0x48>
    800017ee:	14e6e463          	bltu	a3,a4,80001936 <__handle_page_fault_user+0x184>
    800017f2:	0017f713          	andi	a4,a5,1
    800017f6:	eb55                	bnez	a4,800018aa <__handle_page_fault_user+0xf8>
    800017f8:	00018797          	auipc	a5,0x18
    800017fc:	9c87b783          	ld	a5,-1592(a5) # 800191c0 <pmm_manager>
    80001800:	6f9c                	ld	a5,24(a5)
    80001802:	4505                	li	a0,1
    80001804:	9782                	jalr	a5
    80001806:	00018697          	auipc	a3,0x18
    8000180a:	aaa6b683          	ld	a3,-1366(a3) # 800192b0 <pages>
    8000180e:	40d506b3          	sub	a3,a0,a3
    80001812:	868d                	srai	a3,a3,0x3
    80001814:	0000a517          	auipc	a0,0xa
    80001818:	c7453503          	ld	a0,-908(a0) # 8000b488 <trap_table+0x48>
    8000181c:	02a686b3          	mul	a3,a3,a0
    80001820:	00018797          	auipc	a5,0x18
    80001824:	a587b783          	ld	a5,-1448(a5) # 80019278 <nbase>
    80001828:	00093983          	ld	s3,0(s2)
    8000182c:	96be                	add	a3,a3,a5
    8000182e:	00a69413          	slli	s0,a3,0xa
    80001832:	0c746793          	ori	a5,s0,199
    80001836:	00c69a93          	slli	s5,a3,0xc
    8000183a:	00f93023          	sd	a5,0(s2)
    8000183e:	12000073          	sfence.vma
    80001842:	0109b503          	ld	a0,16(s3) # 1010 <_ftext-0x7fffeff0>
    80001846:	cd61                	beqz	a0,8000191e <__handle_page_fault_user+0x16c>
    80001848:	0009b783          	ld	a5,0(s3)
    8000184c:	0089b603          	ld	a2,8(s3)
    80001850:	0189b703          	ld	a4,24(s3)
    80001854:	6585                	lui	a1,0x1
    80001856:	963e                	add	a2,a2,a5
    80001858:	9752                	add	a4,a4,s4
    8000185a:	41460633          	sub	a2,a2,s4
    8000185e:	8f1d                	sub	a4,a4,a5
    80001860:	0ac5e163          	bltu	a1,a2,80001902 <__handle_page_fault_user+0x150>
    80001864:	85d2                	mv	a1,s4
    80001866:	f53fe0ef          	jal	ra,800007b8 <file_pread_pnn>
    8000186a:	0ca05863          	blez	a0,8000193a <__handle_page_fault_user+0x188>
    8000186e:	6605                	lui	a2,0x1
    80001870:	0ac54d63          	blt	a0,a2,8000192a <__handle_page_fault_user+0x178>
    80001874:	0249a783          	lw	a5,36(s3)
    80001878:	0027f713          	andi	a4,a5,2
    8000187c:	0047f693          	andi	a3,a5,4
    80001880:	8b85                	andi	a5,a5,1
    80001882:	2701                	sext.w	a4,a4
    80001884:	2681                	sext.w	a3,a3
    80001886:	e799                	bnez	a5,80001894 <__handle_page_fault_user+0xe2>
    80001888:	e749                	bnez	a4,80001912 <__handle_page_fault_user+0x160>
    8000188a:	04800793          	li	a5,72
    8000188e:	ea89                	bnez	a3,800018a0 <__handle_page_fault_user+0xee>
    80001890:	4789                	li	a5,2
    80001892:	a039                	j	800018a0 <__handle_page_fault_user+0xee>
    80001894:	eb2d                	bnez	a4,80001906 <__handle_page_fault_user+0x154>
    80001896:	04a00793          	li	a5,74
    8000189a:	e299                	bnez	a3,800018a0 <__handle_page_fault_user+0xee>
    8000189c:	04200793          	li	a5,66
    800018a0:	8fc1                	or	a5,a5,s0
    800018a2:	0117e793          	ori	a5,a5,17
    800018a6:	00f93023          	sd	a5,0(s2)
    800018aa:	0024f713          	andi	a4,s1,2
    800018ae:	0044f693          	andi	a3,s1,4
    800018b2:	8885                	andi	s1,s1,1
    800018b4:	2701                	sext.w	a4,a4
    800018b6:	2681                	sext.w	a3,a3
    800018b8:	c485                	beqz	s1,800018e0 <__handle_page_fault_user+0x12e>
    800018ba:	eb0d                	bnez	a4,800018ec <__handle_page_fault_user+0x13a>
    800018bc:	05b00713          	li	a4,91
    800018c0:	cea1                	beqz	a3,80001918 <__handle_page_fault_user+0x166>
    800018c2:	8ff9                	and	a5,a5,a4
    800018c4:	06e79963          	bne	a5,a4,80001936 <__handle_page_fault_user+0x184>
    800018c8:	12000073          	sfence.vma
    800018cc:	4501                	li	a0,0
    800018ce:	70e2                	ld	ra,56(sp)
    800018d0:	7442                	ld	s0,48(sp)
    800018d2:	74a2                	ld	s1,40(sp)
    800018d4:	7902                	ld	s2,32(sp)
    800018d6:	69e2                	ld	s3,24(sp)
    800018d8:	6a42                	ld	s4,16(sp)
    800018da:	6aa2                	ld	s5,8(sp)
    800018dc:	6121                	addi	sp,sp,64
    800018de:	8082                	ret
    800018e0:	ef11                	bnez	a4,800018fc <__handle_page_fault_user+0x14a>
    800018e2:	05900713          	li	a4,89
    800018e6:	fef1                	bnez	a3,800018c2 <__handle_page_fault_user+0x110>
    800018e8:	474d                	li	a4,19
    800018ea:	bfe1                	j	800018c2 <__handle_page_fault_user+0x110>
    800018ec:	0c600613          	li	a2,198
    800018f0:	05966713          	ori	a4,a2,89
    800018f4:	f6f9                	bnez	a3,800018c2 <__handle_page_fault_user+0x110>
    800018f6:	01166713          	ori	a4,a2,17
    800018fa:	b7e1                	j	800018c2 <__handle_page_fault_user+0x110>
    800018fc:	08400613          	li	a2,132
    80001900:	bfc5                	j	800018f0 <__handle_page_fault_user+0x13e>
    80001902:	6605                	lui	a2,0x1
    80001904:	b785                	j	80001864 <__handle_page_fault_user+0xb2>
    80001906:	0c600793          	li	a5,198
    8000190a:	dad9                	beqz	a3,800018a0 <__handle_page_fault_user+0xee>
    8000190c:	0487e793          	ori	a5,a5,72
    80001910:	bf41                	j	800018a0 <__handle_page_fault_user+0xee>
    80001912:	08400793          	li	a5,132
    80001916:	bfd5                	j	8000190a <__handle_page_fault_user+0x158>
    80001918:	05300713          	li	a4,83
    8000191c:	b75d                	j	800018c2 <__handle_page_fault_user+0x110>
    8000191e:	6605                	lui	a2,0x1
    80001920:	4581                	li	a1,0
    80001922:	8556                	mv	a0,s5
    80001924:	2cb050ef          	jal	ra,800073ee <memset>
    80001928:	b7b1                	j	80001874 <__handle_page_fault_user+0xc2>
    8000192a:	8e09                	sub	a2,a2,a0
    8000192c:	4581                	li	a1,0
    8000192e:	9556                	add	a0,a0,s5
    80001930:	2bf050ef          	jal	ra,800073ee <memset>
    80001934:	b781                	j	80001874 <__handle_page_fault_user+0xc2>
    80001936:	557d                	li	a0,-1
    80001938:	bf59                	j	800018ce <__handle_page_fault_user+0x11c>
    8000193a:	00007517          	auipc	a0,0x7
    8000193e:	98650513          	addi	a0,a0,-1658 # 800082c0 <illegal_insn_trap_table+0x384>
    80001942:	85dff0ef          	jal	ra,8000119e <kassert_fail>

0000000080001946 <__handle_page_fault>:
    80001946:	7179                	addi	sp,sp,-48
    80001948:	ec26                	sd	s1,24(sp)
    8000194a:	00018497          	auipc	s1,0x18
    8000194e:	88648493          	addi	s1,s1,-1914 # 800191d0 <current>
    80001952:	64bc                	ld	a5,72(s1)
    80001954:	f406                	sd	ra,40(sp)
    80001956:	f022                	sd	s0,32(sp)
    80001958:	e84a                	sd	s2,16(sp)
    8000195a:	e44e                	sd	s3,8(sp)
    8000195c:	e052                	sd	s4,0(sp)
    8000195e:	14f56063          	bltu	a0,a5,80001a9e <__handle_page_fault+0x158>
    80001962:	842a                	mv	s0,a0
    80001964:	757d                	lui	a0,0xfffff
    80001966:	8c69                	and	s0,s0,a0
    80001968:	892e                	mv	s2,a1
    8000196a:	8522                	mv	a0,s0
    8000196c:	4581                	li	a1,0
    8000196e:	97dff0ef          	jal	ra,800012ea <__walk_internal>
    80001972:	6110                	ld	a2,0(a0)
    80001974:	89aa                	mv	s3,a0
    80001976:	85a2                	mv	a1,s0
    80001978:	00007517          	auipc	a0,0x7
    8000197c:	95050513          	addi	a0,a0,-1712 # 800082c8 <illegal_insn_trap_table+0x38c>
    80001980:	f2aff0ef          	jal	ra,800010aa <printk>
    80001984:	18098563          	beqz	s3,80001b0e <__handle_page_fault+0x1c8>
    80001988:	0009b783          	ld	a5,0(s3)
    8000198c:	18078163          	beqz	a5,80001b0e <__handle_page_fault+0x1c8>
    80001990:	64b8                	ld	a4,72(s1)
    80001992:	00140693          	addi	a3,s0,1
    80001996:	16d76c63          	bltu	a4,a3,80001b0e <__handle_page_fault+0x1c8>
    8000199a:	0017f713          	andi	a4,a5,1
    8000199e:	ef45                	bnez	a4,80001a56 <__handle_page_fault+0x110>
    800019a0:	00018797          	auipc	a5,0x18
    800019a4:	8207b783          	ld	a5,-2016(a5) # 800191c0 <pmm_manager>
    800019a8:	6f9c                	ld	a5,24(a5)
    800019aa:	4505                	li	a0,1
    800019ac:	9782                	jalr	a5
    800019ae:	00018697          	auipc	a3,0x18
    800019b2:	9026b683          	ld	a3,-1790(a3) # 800192b0 <pages>
    800019b6:	40d506b3          	sub	a3,a0,a3
    800019ba:	868d                	srai	a3,a3,0x3
    800019bc:	0000a517          	auipc	a0,0xa
    800019c0:	acc53503          	ld	a0,-1332(a0) # 8000b488 <trap_table+0x48>
    800019c4:	02a686b3          	mul	a3,a3,a0
    800019c8:	00018797          	auipc	a5,0x18
    800019cc:	8b07b783          	ld	a5,-1872(a5) # 80019278 <nbase>
    800019d0:	0009ba03          	ld	s4,0(s3)
    800019d4:	96be                	add	a3,a3,a5
    800019d6:	00a69493          	slli	s1,a3,0xa
    800019da:	0c74e793          	ori	a5,s1,199
    800019de:	00f9b023          	sd	a5,0(s3)
    800019e2:	12000073          	sfence.vma
    800019e6:	010a3503          	ld	a0,16(s4)
    800019ea:	10050063          	beqz	a0,80001aea <__handle_page_fault+0x1a4>
    800019ee:	000a3783          	ld	a5,0(s4)
    800019f2:	008a3603          	ld	a2,8(s4)
    800019f6:	018a3703          	ld	a4,24(s4)
    800019fa:	6585                	lui	a1,0x1
    800019fc:	963e                	add	a2,a2,a5
    800019fe:	9722                	add	a4,a4,s0
    80001a00:	8e01                	sub	a2,a2,s0
    80001a02:	8f1d                	sub	a4,a4,a5
    80001a04:	0cc5eb63          	bltu	a1,a2,80001ada <__handle_page_fault+0x194>
    80001a08:	85a2                	mv	a1,s0
    80001a0a:	daffe0ef          	jal	ra,800007b8 <file_pread_pnn>
    80001a0e:	10a05263          	blez	a0,80001b12 <__handle_page_fault+0x1cc>
    80001a12:	6605                	lui	a2,0x1
    80001a14:	0cc54563          	blt	a0,a2,80001ade <__handle_page_fault+0x198>
    80001a18:	020a2783          	lw	a5,32(s4)
    80001a1c:	010a3503          	ld	a0,16(s4)
    80001a20:	fff7871b          	addiw	a4,a5,-1
    80001a24:	02ea2023          	sw	a4,32(s4)
    80001a28:	e701                	bnez	a4,80001a30 <__handle_page_fault+0xea>
    80001a2a:	c119                	beqz	a0,80001a30 <__handle_page_fault+0xea>
    80001a2c:	ae9fe0ef          	jal	ra,80000514 <file_decref>
    80001a30:	024a2783          	lw	a5,36(s4)
    80001a34:	0027f693          	andi	a3,a5,2
    80001a38:	0047f713          	andi	a4,a5,4
    80001a3c:	8b85                	andi	a5,a5,1
    80001a3e:	2681                	sext.w	a3,a3
    80001a40:	2701                	sext.w	a4,a4
    80001a42:	cbbd                	beqz	a5,80001ab8 <__handle_page_fault+0x172>
    80001a44:	eedd                	bnez	a3,80001b02 <__handle_page_fault+0x1bc>
    80001a46:	04a00793          	li	a5,74
    80001a4a:	cf5d                	beqz	a4,80001b08 <__handle_page_fault+0x1c2>
    80001a4c:	8fc5                	or	a5,a5,s1
    80001a4e:	0117e793          	ori	a5,a5,17
    80001a52:	00f9b023          	sd	a5,0(s3)
    80001a56:	00297713          	andi	a4,s2,2
    80001a5a:	00497693          	andi	a3,s2,4
    80001a5e:	00197913          	andi	s2,s2,1
    80001a62:	2701                	sext.w	a4,a4
    80001a64:	2681                	sext.w	a3,a3
    80001a66:	02090663          	beqz	s2,80001a92 <__handle_page_fault+0x14c>
    80001a6a:	ef29                	bnez	a4,80001ac4 <__handle_page_fault+0x17e>
    80001a6c:	05b00713          	li	a4,91
    80001a70:	e299                	bnez	a3,80001a76 <__handle_page_fault+0x130>
    80001a72:	05300713          	li	a4,83
    80001a76:	8ff9                	and	a5,a5,a4
    80001a78:	08e79b63          	bne	a5,a4,80001b0e <__handle_page_fault+0x1c8>
    80001a7c:	12000073          	sfence.vma
    80001a80:	4501                	li	a0,0
    80001a82:	70a2                	ld	ra,40(sp)
    80001a84:	7402                	ld	s0,32(sp)
    80001a86:	64e2                	ld	s1,24(sp)
    80001a88:	6942                	ld	s2,16(sp)
    80001a8a:	69a2                	ld	s3,8(sp)
    80001a8c:	6a02                	ld	s4,0(sp)
    80001a8e:	6145                	addi	sp,sp,48
    80001a90:	8082                	ret
    80001a92:	e329                	bnez	a4,80001ad4 <__handle_page_fault+0x18e>
    80001a94:	05900713          	li	a4,89
    80001a98:	fef9                	bnez	a3,80001a76 <__handle_page_fault+0x130>
    80001a9a:	474d                	li	a4,19
    80001a9c:	bfe9                	j	80001a76 <__handle_page_fault+0x130>
    80001a9e:	7402                	ld	s0,32(sp)
    80001aa0:	00017797          	auipc	a5,0x17
    80001aa4:	5b07b783          	ld	a5,1456(a5) # 80019050 <currentproc>
    80001aa8:	70a2                	ld	ra,40(sp)
    80001aaa:	64e2                	ld	s1,24(sp)
    80001aac:	6942                	ld	s2,16(sp)
    80001aae:	69a2                	ld	s3,8(sp)
    80001ab0:	6a02                	ld	s4,0(sp)
    80001ab2:	63f0                	ld	a2,192(a5)
    80001ab4:	6145                	addi	sp,sp,48
    80001ab6:	b9f5                	j	800017b2 <__handle_page_fault_user>
    80001ab8:	ee9d                	bnez	a3,80001af6 <__handle_page_fault+0x1b0>
    80001aba:	04800793          	li	a5,72
    80001abe:	f759                	bnez	a4,80001a4c <__handle_page_fault+0x106>
    80001ac0:	4789                	li	a5,2
    80001ac2:	b769                	j	80001a4c <__handle_page_fault+0x106>
    80001ac4:	0c600613          	li	a2,198
    80001ac8:	05966713          	ori	a4,a2,89
    80001acc:	f6cd                	bnez	a3,80001a76 <__handle_page_fault+0x130>
    80001ace:	01166713          	ori	a4,a2,17
    80001ad2:	b755                	j	80001a76 <__handle_page_fault+0x130>
    80001ad4:	08400613          	li	a2,132
    80001ad8:	bfc5                	j	80001ac8 <__handle_page_fault+0x182>
    80001ada:	6605                	lui	a2,0x1
    80001adc:	b735                	j	80001a08 <__handle_page_fault+0xc2>
    80001ade:	8e09                	sub	a2,a2,a0
    80001ae0:	4581                	li	a1,0
    80001ae2:	9522                	add	a0,a0,s0
    80001ae4:	10b050ef          	jal	ra,800073ee <memset>
    80001ae8:	bf05                	j	80001a18 <__handle_page_fault+0xd2>
    80001aea:	6605                	lui	a2,0x1
    80001aec:	4581                	li	a1,0
    80001aee:	8522                	mv	a0,s0
    80001af0:	0ff050ef          	jal	ra,800073ee <memset>
    80001af4:	b715                	j	80001a18 <__handle_page_fault+0xd2>
    80001af6:	08400793          	li	a5,132
    80001afa:	db29                	beqz	a4,80001a4c <__handle_page_fault+0x106>
    80001afc:	0487e793          	ori	a5,a5,72
    80001b00:	b7b1                	j	80001a4c <__handle_page_fault+0x106>
    80001b02:	0c600793          	li	a5,198
    80001b06:	bfd5                	j	80001afa <__handle_page_fault+0x1b4>
    80001b08:	04200793          	li	a5,66
    80001b0c:	b781                	j	80001a4c <__handle_page_fault+0x106>
    80001b0e:	557d                	li	a0,-1
    80001b10:	bf8d                	j	80001a82 <__handle_page_fault+0x13c>
    80001b12:	00006517          	auipc	a0,0x6
    80001b16:	7ae50513          	addi	a0,a0,1966 # 800082c0 <illegal_insn_trap_table+0x384>
    80001b1a:	e84ff0ef          	jal	ra,8000119e <kassert_fail>

0000000080001b1e <handle_page_fault>:
    80001b1e:	1141                	addi	sp,sp,-16
    80001b20:	e406                	sd	ra,8(sp)
    80001b22:	00017797          	auipc	a5,0x17
    80001b26:	51e78793          	addi	a5,a5,1310 # 80019040 <vm_lock>
    80001b2a:	56fd                	li	a3,-1
    80001b2c:	4398                	lw	a4,0(a5)
    80001b2e:	2701                	sext.w	a4,a4
    80001b30:	ff75                	bnez	a4,80001b2c <handle_page_fault+0xe>
    80001b32:	8736                	mv	a4,a3
    80001b34:	0ce7a72f          	amoswap.w.aq	a4,a4,(a5)
    80001b38:	2701                	sext.w	a4,a4
    80001b3a:	0ff0000f          	fence
    80001b3e:	f77d                	bnez	a4,80001b2c <handle_page_fault+0xe>
    80001b40:	e07ff0ef          	jal	ra,80001946 <__handle_page_fault>
    80001b44:	0ff0000f          	fence
    80001b48:	60a2                	ld	ra,8(sp)
    80001b4a:	00017797          	auipc	a5,0x17
    80001b4e:	4e07ab23          	sw	zero,1270(a5) # 80019040 <vm_lock>
    80001b52:	0141                	addi	sp,sp,16
    80001b54:	8082                	ret

0000000080001b56 <__do_mmap>:
    80001b56:	7139                	addi	sp,sp,-64
    80001b58:	fff58813          	addi	a6,a1,-1 # fff <_ftext-0x7ffff001>
    80001b5c:	f822                	sd	s0,48(sp)
    80001b5e:	f426                	sd	s1,40(sp)
    80001b60:	f04a                	sd	s2,32(sp)
    80001b62:	e852                	sd	s4,16(sp)
    80001b64:	e456                	sd	s5,8(sp)
    80001b66:	e05a                	sd	s6,0(sp)
    80001b68:	00c85813          	srli	a6,a6,0xc
    80001b6c:	8b36                	mv	s6,a3
    80001b6e:	fc06                	sd	ra,56(sp)
    80001b70:	ec4e                	sd	s3,24(sp)
    80001b72:	8ac1                	andi	a3,a3,16
    80001b74:	892e                	mv	s2,a1
    80001b76:	8ab2                	mv	s5,a2
    80001b78:	84ba                	mv	s1,a4
    80001b7a:	8a3e                	mv	s4,a5
    80001b7c:	00180413          	addi	s0,a6,1
    80001b80:	c2cd                	beqz	a3,80001c22 <__do_mmap+0xcc>
    80001b82:	03451793          	slli	a5,a0,0x34
    80001b86:	e3dd                	bnez	a5,80001c2c <__do_mmap+0xd6>
    80001b88:	00a587b3          	add	a5,a1,a0
    80001b8c:	0aa7e063          	bltu	a5,a0,80001c2c <__do_mmap+0xd6>
    80001b90:	00017717          	auipc	a4,0x17
    80001b94:	68873703          	ld	a4,1672(a4) # 80019218 <current+0x48>
    80001b98:	89aa                	mv	s3,a0
    80001b9a:	08f76963          	bltu	a4,a5,80001c2c <__do_mmap+0xd6>
    80001b9e:	86d2                	mv	a3,s4
    80001ba0:	87d6                	mv	a5,s5
    80001ba2:	0004071b          	sext.w	a4,s0
    80001ba6:	8626                	mv	a2,s1
    80001ba8:	85ca                	mv	a1,s2
    80001baa:	854e                	mv	a0,s3
    80001bac:	e4eff0ef          	jal	ra,800011fa <__vmr_alloc>
    80001bb0:	8a2a                	mv	s4,a0
    80001bb2:	cd2d                	beqz	a0,80001c2c <__do_mmap+0xd6>
    80001bb4:	994e                	add	s2,s2,s3
    80001bb6:	0729fc63          	bgeu	s3,s2,80001c2e <__do_mmap+0xd8>
    80001bba:	84ce                	mv	s1,s3
    80001bbc:	a039                	j	80001bca <__do_mmap+0x74>
    80001bbe:	6785                	lui	a5,0x1
    80001bc0:	01443023          	sd	s4,0(s0)
    80001bc4:	94be                	add	s1,s1,a5
    80001bc6:	0324f463          	bgeu	s1,s2,80001bee <__do_mmap+0x98>
    80001bca:	4585                	li	a1,1
    80001bcc:	8526                	mv	a0,s1
    80001bce:	f1cff0ef          	jal	ra,800012ea <__walk_internal>
    80001bd2:	842a                	mv	s0,a0
    80001bd4:	c925                	beqz	a0,80001c44 <__do_mmap+0xee>
    80001bd6:	611c                	ld	a5,0(a0)
    80001bd8:	d3fd                	beqz	a5,80001bbe <__do_mmap+0x68>
    80001bda:	8526                	mv	a0,s1
    80001bdc:	6585                	lui	a1,0x1
    80001bde:	fe6ff0ef          	jal	ra,800013c4 <__do_munmap>
    80001be2:	6785                	lui	a5,0x1
    80001be4:	01443023          	sd	s4,0(s0)
    80001be8:	94be                	add	s1,s1,a5
    80001bea:	ff24e0e3          	bltu	s1,s2,80001bca <__do_mmap+0x74>
    80001bee:	0000a797          	auipc	a5,0xa
    80001bf2:	8ba7a783          	lw	a5,-1862(a5) # 8000b4a8 <demand_paging>
    80001bf6:	844e                	mv	s0,s3
    80001bf8:	c789                	beqz	a5,80001c02 <__do_mmap+0xac>
    80001bfa:	030b1793          	slli	a5,s6,0x30
    80001bfe:	0207d863          	bgez	a5,80001c2e <__do_mmap+0xd8>
    80001c02:	6485                	lui	s1,0x1
    80001c04:	a021                	j	80001c0c <__do_mmap+0xb6>
    80001c06:	9426                	add	s0,s0,s1
    80001c08:	03247363          	bgeu	s0,s2,80001c2e <__do_mmap+0xd8>
    80001c0c:	85d6                	mv	a1,s5
    80001c0e:	8522                	mv	a0,s0
    80001c10:	d37ff0ef          	jal	ra,80001946 <__handle_page_fault>
    80001c14:	d96d                	beqz	a0,80001c06 <__do_mmap+0xb0>
    80001c16:	00006517          	auipc	a0,0x6
    80001c1a:	6da50513          	addi	a0,a0,1754 # 800082f0 <illegal_insn_trap_table+0x3b4>
    80001c1e:	d80ff0ef          	jal	ra,8000119e <kassert_fail>
    80001c22:	8522                	mv	a0,s0
    80001c24:	f1aff0ef          	jal	ra,8000133e <__vm_alloc>
    80001c28:	89aa                	mv	s3,a0
    80001c2a:	f935                	bnez	a0,80001b9e <__do_mmap+0x48>
    80001c2c:	59fd                	li	s3,-1
    80001c2e:	70e2                	ld	ra,56(sp)
    80001c30:	7442                	ld	s0,48(sp)
    80001c32:	74a2                	ld	s1,40(sp)
    80001c34:	7902                	ld	s2,32(sp)
    80001c36:	6a42                	ld	s4,16(sp)
    80001c38:	6aa2                	ld	s5,8(sp)
    80001c3a:	6b02                	ld	s6,0(sp)
    80001c3c:	854e                	mv	a0,s3
    80001c3e:	69e2                	ld	s3,24(sp)
    80001c40:	6121                	addi	sp,sp,64
    80001c42:	8082                	ret
    80001c44:	00006517          	auipc	a0,0x6
    80001c48:	67450513          	addi	a0,a0,1652 # 800082b8 <illegal_insn_trap_table+0x37c>
    80001c4c:	d52ff0ef          	jal	ra,8000119e <kassert_fail>

0000000080001c50 <do_mmap>:
    80001c50:	7139                	addi	sp,sp,-64
    80001c52:	f822                	sd	s0,48(sp)
    80001c54:	fc06                	sd	ra,56(sp)
    80001c56:	f426                	sd	s1,40(sp)
    80001c58:	f04a                	sd	s2,32(sp)
    80001c5a:	0026f813          	andi	a6,a3,2
    80001c5e:	5429                	li	s0,-22
    80001c60:	08080063          	beqz	a6,80001ce0 <do_mmap+0x90>
    80001c64:	cdb5                	beqz	a1,80001ce0 <do_mmap+0x90>
    80001c66:	892a                	mv	s2,a0
    80001c68:	03479513          	slli	a0,a5,0x34
    80001c6c:	e935                	bnez	a0,80001ce0 <do_mmap+0x90>
    80001c6e:	0206f513          	andi	a0,a3,32
    80001c72:	ed35                	bnez	a0,80001cee <do_mmap+0x9e>
    80001c74:	853a                	mv	a0,a4
    80001c76:	ec3e                	sd	a5,24(sp)
    80001c78:	e836                	sd	a3,16(sp)
    80001c7a:	e432                	sd	a2,8(sp)
    80001c7c:	e02e                	sd	a1,0(sp)
    80001c7e:	93bfe0ef          	jal	ra,800005b8 <file_get>
    80001c82:	6582                	ld	a1,0(sp)
    80001c84:	6622                	ld	a2,8(sp)
    80001c86:	66c2                	ld	a3,16(sp)
    80001c88:	67e2                	ld	a5,24(sp)
    80001c8a:	84aa                	mv	s1,a0
    80001c8c:	c13d                	beqz	a0,80001cf2 <do_mmap+0xa2>
    80001c8e:	00017897          	auipc	a7,0x17
    80001c92:	3b288893          	addi	a7,a7,946 # 80019040 <vm_lock>
    80001c96:	577d                	li	a4,-1
    80001c98:	0008a803          	lw	a6,0(a7)
    80001c9c:	2801                	sext.w	a6,a6
    80001c9e:	fe081de3          	bnez	a6,80001c98 <do_mmap+0x48>
    80001ca2:	883a                	mv	a6,a4
    80001ca4:	0d08a82f          	amoswap.w.aq	a6,a6,(a7)
    80001ca8:	2801                	sext.w	a6,a6
    80001caa:	0ff0000f          	fence
    80001cae:	fe0815e3          	bnez	a6,80001c98 <do_mmap+0x48>
    80001cb2:	8726                	mv	a4,s1
    80001cb4:	854a                	mv	a0,s2
    80001cb6:	ea1ff0ef          	jal	ra,80001b56 <__do_mmap>
    80001cba:	00017797          	auipc	a5,0x17
    80001cbe:	51678793          	addi	a5,a5,1302 # 800191d0 <current>
    80001cc2:	63b8                	ld	a4,64(a5)
    80001cc4:	842a                	mv	s0,a0
    80001cc6:	00e57363          	bgeu	a0,a4,80001ccc <do_mmap+0x7c>
    80001cca:	e3a8                	sd	a0,64(a5)
    80001ccc:	0ff0000f          	fence
    80001cd0:	00017797          	auipc	a5,0x17
    80001cd4:	3607a823          	sw	zero,880(a5) # 80019040 <vm_lock>
    80001cd8:	c481                	beqz	s1,80001ce0 <do_mmap+0x90>
    80001cda:	8526                	mv	a0,s1
    80001cdc:	839fe0ef          	jal	ra,80000514 <file_decref>
    80001ce0:	70e2                	ld	ra,56(sp)
    80001ce2:	8522                	mv	a0,s0
    80001ce4:	7442                	ld	s0,48(sp)
    80001ce6:	74a2                	ld	s1,40(sp)
    80001ce8:	7902                	ld	s2,32(sp)
    80001cea:	6121                	addi	sp,sp,64
    80001cec:	8082                	ret
    80001cee:	4481                	li	s1,0
    80001cf0:	bf79                	j	80001c8e <do_mmap+0x3e>
    80001cf2:	545d                	li	s0,-9
    80001cf4:	b7f5                	j	80001ce0 <do_mmap+0x90>

0000000080001cf6 <__do_brk>:
    80001cf6:	1101                	addi	sp,sp,-32
    80001cf8:	e426                	sd	s1,8(sp)
    80001cfa:	00017497          	auipc	s1,0x17
    80001cfe:	4d648493          	addi	s1,s1,1238 # 800191d0 <current>
    80001d02:	789c                	ld	a5,48(s1)
    80001d04:	e04a                	sd	s2,0(sp)
    80001d06:	ec06                	sd	ra,24(sp)
    80001d08:	e822                	sd	s0,16(sp)
    80001d0a:	893e                	mv	s2,a5
    80001d0c:	00f56663          	bltu	a0,a5,80001d18 <__do_brk+0x22>
    80001d10:	0404b903          	ld	s2,64(s1)
    80001d14:	03256b63          	bltu	a0,s2,80001d4a <__do_brk+0x54>
    80001d18:	7c88                	ld	a0,56(s1)
    80001d1a:	e519                	bnez	a0,80001d28 <__do_brk+0x32>
    80001d1c:	fff78513          	addi	a0,a5,-1
    80001d20:	8131                	srli	a0,a0,0xc
    80001d22:	0505                	addi	a0,a0,1
    80001d24:	0532                	slli	a0,a0,0xc
    80001d26:	fc88                	sd	a0,56(s1)
    80001d28:	fff90413          	addi	s0,s2,-1
    80001d2c:	8031                	srli	s0,s0,0xc
    80001d2e:	0405                	addi	s0,s0,1
    80001d30:	0432                	slli	s0,s0,0xc
    80001d32:	04a46063          	bltu	s0,a0,80001d72 <__do_brk+0x7c>
    80001d36:	00856c63          	bltu	a0,s0,80001d4e <__do_brk+0x58>
    80001d3a:	fc80                	sd	s0,56(s1)
    80001d3c:	60e2                	ld	ra,24(sp)
    80001d3e:	6442                	ld	s0,16(sp)
    80001d40:	64a2                	ld	s1,8(sp)
    80001d42:	854a                	mv	a0,s2
    80001d44:	6902                	ld	s2,0(sp)
    80001d46:	6105                	addi	sp,sp,32
    80001d48:	8082                	ret
    80001d4a:	892a                	mv	s2,a0
    80001d4c:	b7f1                	j	80001d18 <__do_brk+0x22>
    80001d4e:	4781                	li	a5,0
    80001d50:	4701                	li	a4,0
    80001d52:	03200693          	li	a3,50
    80001d56:	567d                	li	a2,-1
    80001d58:	40a405b3          	sub	a1,s0,a0
    80001d5c:	dfbff0ef          	jal	ra,80001b56 <__do_mmap>
    80001d60:	7c9c                	ld	a5,56(s1)
    80001d62:	fcf50ce3          	beq	a0,a5,80001d3a <__do_brk+0x44>
    80001d66:	00006517          	auipc	a0,0x6
    80001d6a:	5b250513          	addi	a0,a0,1458 # 80008318 <illegal_insn_trap_table+0x3dc>
    80001d6e:	c30ff0ef          	jal	ra,8000119e <kassert_fail>
    80001d72:	408505b3          	sub	a1,a0,s0
    80001d76:	8522                	mv	a0,s0
    80001d78:	e4cff0ef          	jal	ra,800013c4 <__do_munmap>
    80001d7c:	60e2                	ld	ra,24(sp)
    80001d7e:	fc80                	sd	s0,56(s1)
    80001d80:	6442                	ld	s0,16(sp)
    80001d82:	64a2                	ld	s1,8(sp)
    80001d84:	854a                	mv	a0,s2
    80001d86:	6902                	ld	s2,0(sp)
    80001d88:	6105                	addi	sp,sp,32
    80001d8a:	8082                	ret

0000000080001d8c <do_brk>:
    80001d8c:	1141                	addi	sp,sp,-16
    80001d8e:	e406                	sd	ra,8(sp)
    80001d90:	00017797          	auipc	a5,0x17
    80001d94:	2b078793          	addi	a5,a5,688 # 80019040 <vm_lock>
    80001d98:	56fd                	li	a3,-1
    80001d9a:	4398                	lw	a4,0(a5)
    80001d9c:	2701                	sext.w	a4,a4
    80001d9e:	ff75                	bnez	a4,80001d9a <do_brk+0xe>
    80001da0:	8736                	mv	a4,a3
    80001da2:	0ce7a72f          	amoswap.w.aq	a4,a4,(a5)
    80001da6:	2701                	sext.w	a4,a4
    80001da8:	0ff0000f          	fence
    80001dac:	f77d                	bnez	a4,80001d9a <do_brk+0xe>
    80001dae:	f49ff0ef          	jal	ra,80001cf6 <__do_brk>
    80001db2:	0ff0000f          	fence
    80001db6:	60a2                	ld	ra,8(sp)
    80001db8:	00017797          	auipc	a5,0x17
    80001dbc:	2807a423          	sw	zero,648(a5) # 80019040 <vm_lock>
    80001dc0:	0141                	addi	sp,sp,16
    80001dc2:	8082                	ret

0000000080001dc4 <pk_vm_init>:
    80001dc4:	7139                	addi	sp,sp,-64
    80001dc6:	e456                	sd	s5,8(sp)
    80001dc8:	00017a97          	auipc	s5,0x17
    80001dcc:	518a8a93          	addi	s5,s5,1304 # 800192e0 <mem_size>
    80001dd0:	f822                	sd	s0,48(sp)
    80001dd2:	000ab403          	ld	s0,0(s5)
    80001dd6:	4785                	li	a5,1
    80001dd8:	fc06                	sd	ra,56(sp)
    80001dda:	f426                	sd	s1,40(sp)
    80001ddc:	f04a                	sd	s2,32(sp)
    80001dde:	ec4e                	sd	s3,24(sp)
    80001de0:	e852                	sd	s4,16(sp)
    80001de2:	07fe                	slli	a5,a5,0x1f
    80001de4:	0087f363          	bgeu	a5,s0,80001dea <pk_vm_init+0x26>
    80001de8:	843e                	mv	s0,a5
    80001dea:	008ab023          	sd	s0,0(s5)
    80001dee:	01445913          	srli	s2,s0,0x14
    80001df2:	47a1                	li	a5,8
    80001df4:	00f97363          	bgeu	s2,a5,80001dfa <pk_vm_init+0x36>
    80001df8:	4921                	li	s2,8
    80001dfa:	00018797          	auipc	a5,0x18
    80001dfe:	20578793          	addi	a5,a5,517 # 80019fff <hart_mask+0xccf>
    80001e02:	83b1                	srli	a5,a5,0xc
    80001e04:	0785                	addi	a5,a5,1
    80001e06:	07b2                	slli	a5,a5,0xc
    80001e08:	00c91713          	slli	a4,s2,0xc
    80001e0c:	00017997          	auipc	s3,0x17
    80001e10:	48498993          	addi	s3,s3,1156 # 80019290 <first_free_paddr>
    80001e14:	973e                	add	a4,a4,a5
    80001e16:	00017697          	auipc	a3,0x17
    80001e1a:	22f6b123          	sd	a5,546(a3) # 80019038 <first_free_page>
    80001e1e:	00017697          	auipc	a3,0x17
    80001e22:	2126b523          	sd	s2,522(a3) # 80019028 <free_pages>
    80001e26:	00e9b023          	sd	a4,0(s3)
    80001e2a:	b88ff0ef          	jal	ra,800011b2 <__page_alloc>
    80001e2e:	0009b703          	ld	a4,0(s3)
    80001e32:	4485                	li	s1,1
    80001e34:	01f49593          	slli	a1,s1,0x1f
    80001e38:	80000637          	lui	a2,0x80000
    80001e3c:	87aa                	mv	a5,a0
    80001e3e:	963a                	add	a2,a2,a4
    80001e40:	852e                	mv	a0,a1
    80001e42:	469d                	li	a3,7
    80001e44:	00017a17          	auipc	s4,0x17
    80001e48:	4b4a0a13          	addi	s4,s4,1204 # 800192f8 <root_page_table>
    80001e4c:	00fa3023          	sd	a5,0(s4)
    80001e50:	813ff0ef          	jal	ra,80001662 <__map_kernel_range>
    80001e54:	0009b583          	ld	a1,0(s3)
    80001e58:	00c45613          	srli	a2,s0,0xc
    80001e5c:	41260633          	sub	a2,a2,s2
    80001e60:	852e                	mv	a0,a1
    80001e62:	469d                	li	a3,7
    80001e64:	0632                	slli	a2,a2,0xc
    80001e66:	ffcff0ef          	jal	ra,80001662 <__map_kernel_range>
    80001e6a:	000ab503          	ld	a0,0(s5)
    80001e6e:	0009b703          	ld	a4,0(s3)
    80001e72:	01f49793          	slli	a5,s1,0x1f
    80001e76:	953e                	add	a0,a0,a5
    80001e78:	8d19                	sub	a0,a0,a4
    80001e7a:	00a7f363          	bgeu	a5,a0,80001e80 <pk_vm_init+0xbc>
    80001e7e:	853e                	mv	a0,a5
    80001e80:	00017497          	auipc	s1,0x17
    80001e84:	35048493          	addi	s1,s1,848 # 800191d0 <current>
    80001e88:	6785                	lui	a5,0x1
    80001e8a:	e0a8                	sd	a0,64(s1)
    80001e8c:	e4a8                	sd	a0,72(s1)
    80001e8e:	8045                	srli	s0,s0,0x11
    80001e90:	80078793          	addi	a5,a5,-2048 # 800 <_ftext-0x7ffff800>
    80001e94:	0087f363          	bgeu	a5,s0,80001e9a <pk_vm_init+0xd6>
    80001e98:	843e                	mv	s0,a5
    80001e9a:	0432                	slli	s0,s0,0xc
    80001e9c:	4701                	li	a4,0
    80001e9e:	4781                	li	a5,0
    80001ea0:	03200693          	li	a3,50
    80001ea4:	461d                	li	a2,7
    80001ea6:	85a2                	mv	a1,s0
    80001ea8:	8d01                	sub	a0,a0,s0
    80001eaa:	cadff0ef          	jal	ra,80001b56 <__do_mmap>
    80001eae:	577d                	li	a4,-1
    80001eb0:	04e50263          	beq	a0,a4,80001ef4 <pk_vm_init+0x130>
    80001eb4:	942a                	add	s0,s0,a0
    80001eb6:	e8a0                	sd	s0,80(s1)
    80001eb8:	12000073          	sfence.vma
    80001ebc:	000a3783          	ld	a5,0(s4)
    80001ec0:	177e                	slli	a4,a4,0x3f
    80001ec2:	83b1                	srli	a5,a5,0xc
    80001ec4:	8fd9                	or	a5,a5,a4
    80001ec6:	18079073          	csrw	satp,a5
    80001eca:	00009717          	auipc	a4,0x9
    80001ece:	5e673703          	ld	a4,1510(a4) # 8000b4b0 <k_satp_p>
    80001ed2:	e31c                	sd	a5,0(a4)
    80001ed4:	adeff0ef          	jal	ra,800011b2 <__page_alloc>
    80001ed8:	842a                	mv	s0,a0
    80001eda:	719000ef          	jal	ra,80002df2 <pmm_init>
    80001ede:	6505                	lui	a0,0x1
    80001ee0:	70e2                	ld	ra,56(sp)
    80001ee2:	9522                	add	a0,a0,s0
    80001ee4:	7442                	ld	s0,48(sp)
    80001ee6:	74a2                	ld	s1,40(sp)
    80001ee8:	7902                	ld	s2,32(sp)
    80001eea:	69e2                	ld	s3,24(sp)
    80001eec:	6a42                	ld	s4,16(sp)
    80001eee:	6aa2                	ld	s5,8(sp)
    80001ef0:	6121                	addi	sp,sp,64
    80001ef2:	8082                	ret
    80001ef4:	00006517          	auipc	a0,0x6
    80001ef8:	49450513          	addi	a0,a0,1172 # 80008388 <illegal_insn_trap_table+0x44c>
    80001efc:	aa2ff0ef          	jal	ra,8000119e <kassert_fail>

0000000080001f00 <__continue_walk_create_user>:
    80001f00:	1101                	addi	sp,sp,-32
    80001f02:	e822                	sd	s0,16(sp)
    80001f04:	e426                	sd	s1,8(sp)
    80001f06:	e04a                	sd	s2,0(sp)
    80001f08:	ec06                	sd	ra,24(sp)
    80001f0a:	892e                	mv	s2,a1
    80001f0c:	8432                	mv	s0,a2
    80001f0e:	84aa                	mv	s1,a0
    80001f10:	aa2ff0ef          	jal	ra,800011b2 <__page_alloc>
    80001f14:	00c55793          	srli	a5,a0,0xc
    80001f18:	07aa                	slli	a5,a5,0xa
    80001f1a:	0017e793          	ori	a5,a5,1
    80001f1e:	8522                	mv	a0,s0
    80001f20:	6442                	ld	s0,16(sp)
    80001f22:	60e2                	ld	ra,24(sp)
    80001f24:	00f93023          	sd	a5,0(s2)
    80001f28:	85a6                	mv	a1,s1
    80001f2a:	6902                	ld	s2,0(sp)
    80001f2c:	64a2                	ld	s1,8(sp)
    80001f2e:	4605                	li	a2,1
    80001f30:	6105                	addi	sp,sp,32
    80001f32:	b01d                	j	80001758 <__walk_internal_user>

0000000080001f34 <__do_mmap_user>:
    80001f34:	715d                	addi	sp,sp,-80
    80001f36:	fff58893          	addi	a7,a1,-1 # fff <_ftext-0x7ffff001>
    80001f3a:	e0a2                	sd	s0,64(sp)
    80001f3c:	fc26                	sd	s1,56(sp)
    80001f3e:	f84a                	sd	s2,48(sp)
    80001f40:	f44e                	sd	s3,40(sp)
    80001f42:	ec56                	sd	s5,24(sp)
    80001f44:	e85a                	sd	s6,16(sp)
    80001f46:	e45e                	sd	s7,8(sp)
    80001f48:	8b36                	mv	s6,a3
    80001f4a:	00c8d893          	srli	a7,a7,0xc
    80001f4e:	e486                	sd	ra,72(sp)
    80001f50:	f052                	sd	s4,32(sp)
    80001f52:	8ac1                	andi	a3,a3,16
    80001f54:	84ae                	mv	s1,a1
    80001f56:	8ab2                	mv	s5,a2
    80001f58:	89ba                	mv	s3,a4
    80001f5a:	8bbe                	mv	s7,a5
    80001f5c:	8942                	mv	s2,a6
    80001f5e:	00188413          	addi	s0,a7,1
    80001f62:	cac1                	beqz	a3,80001ff2 <__do_mmap_user+0xbe>
    80001f64:	03451793          	slli	a5,a0,0x34
    80001f68:	ebd1                	bnez	a5,80001ffc <__do_mmap_user+0xc8>
    80001f6a:	00a587b3          	add	a5,a1,a0
    80001f6e:	08a7e763          	bltu	a5,a0,80001ffc <__do_mmap_user+0xc8>
    80001f72:	00017717          	auipc	a4,0x17
    80001f76:	2a673703          	ld	a4,678(a4) # 80019218 <current+0x48>
    80001f7a:	8a2a                	mv	s4,a0
    80001f7c:	08f76063          	bltu	a4,a5,80001ffc <__do_mmap_user+0xc8>
    80001f80:	864e                	mv	a2,s3
    80001f82:	87d6                	mv	a5,s5
    80001f84:	0004071b          	sext.w	a4,s0
    80001f88:	86de                	mv	a3,s7
    80001f8a:	85a6                	mv	a1,s1
    80001f8c:	8552                	mv	a0,s4
    80001f8e:	a6cff0ef          	jal	ra,800011fa <__vmr_alloc>
    80001f92:	89aa                	mv	s3,a0
    80001f94:	c525                	beqz	a0,80001ffc <__do_mmap_user+0xc8>
    80001f96:	94d2                	add	s1,s1,s4
    80001f98:	069a7363          	bgeu	s4,s1,80001ffe <__do_mmap_user+0xca>
    80001f9c:	8452                	mv	s0,s4
    80001f9e:	6b85                	lui	s7,0x1
    80001fa0:	4605                	li	a2,1
    80001fa2:	85a2                	mv	a1,s0
    80001fa4:	854a                	mv	a0,s2
    80001fa6:	fb2ff0ef          	jal	ra,80001758 <__walk_internal_user>
    80001faa:	c535                	beqz	a0,80002016 <__do_mmap_user+0xe2>
    80001fac:	611c                	ld	a5,0(a0)
    80001fae:	ebb5                	bnez	a5,80002022 <__do_mmap_user+0xee>
    80001fb0:	01353023          	sd	s3,0(a0)
    80001fb4:	945e                	add	s0,s0,s7
    80001fb6:	fe9465e3          	bltu	s0,s1,80001fa0 <__do_mmap_user+0x6c>
    80001fba:	00009797          	auipc	a5,0x9
    80001fbe:	4ee7a783          	lw	a5,1262(a5) # 8000b4a8 <demand_paging>
    80001fc2:	8452                	mv	s0,s4
    80001fc4:	c791                	beqz	a5,80001fd0 <__do_mmap_user+0x9c>
    80001fc6:	030b1793          	slli	a5,s6,0x30
    80001fca:	0207da63          	bgez	a5,80001ffe <__do_mmap_user+0xca>
    80001fce:	8452                	mv	s0,s4
    80001fd0:	6985                	lui	s3,0x1
    80001fd2:	a021                	j	80001fda <__do_mmap_user+0xa6>
    80001fd4:	944e                	add	s0,s0,s3
    80001fd6:	02947463          	bgeu	s0,s1,80001ffe <__do_mmap_user+0xca>
    80001fda:	864a                	mv	a2,s2
    80001fdc:	85d6                	mv	a1,s5
    80001fde:	8522                	mv	a0,s0
    80001fe0:	fd2ff0ef          	jal	ra,800017b2 <__handle_page_fault_user>
    80001fe4:	d965                	beqz	a0,80001fd4 <__do_mmap_user+0xa0>
    80001fe6:	00006517          	auipc	a0,0x6
    80001fea:	3d250513          	addi	a0,a0,978 # 800083b8 <illegal_insn_trap_table+0x47c>
    80001fee:	9b0ff0ef          	jal	ra,8000119e <kassert_fail>
    80001ff2:	8522                	mv	a0,s0
    80001ff4:	b4aff0ef          	jal	ra,8000133e <__vm_alloc>
    80001ff8:	8a2a                	mv	s4,a0
    80001ffa:	f159                	bnez	a0,80001f80 <__do_mmap_user+0x4c>
    80001ffc:	5a7d                	li	s4,-1
    80001ffe:	60a6                	ld	ra,72(sp)
    80002000:	6406                	ld	s0,64(sp)
    80002002:	74e2                	ld	s1,56(sp)
    80002004:	7942                	ld	s2,48(sp)
    80002006:	79a2                	ld	s3,40(sp)
    80002008:	6ae2                	ld	s5,24(sp)
    8000200a:	6b42                	ld	s6,16(sp)
    8000200c:	6ba2                	ld	s7,8(sp)
    8000200e:	8552                	mv	a0,s4
    80002010:	7a02                	ld	s4,32(sp)
    80002012:	6161                	addi	sp,sp,80
    80002014:	8082                	ret
    80002016:	00006517          	auipc	a0,0x6
    8000201a:	2a250513          	addi	a0,a0,674 # 800082b8 <illegal_insn_trap_table+0x37c>
    8000201e:	980ff0ef          	jal	ra,8000119e <kassert_fail>
    80002022:	00006517          	auipc	a0,0x6
    80002026:	38650513          	addi	a0,a0,902 # 800083a8 <illegal_insn_trap_table+0x46c>
    8000202a:	950ff0ef          	jal	ra,8000117a <do_panic>

000000008000202e <__map_kernel_range_pgtbl>:
    8000202e:	fff60793          	addi	a5,a2,-1 # ffffffff7fffffff <_end+0xfffffffefffe5fff>
    80002032:	83b1                	srli	a5,a5,0xc
    80002034:	715d                	addi	sp,sp,-80
    80002036:	0785                	addi	a5,a5,1
    80002038:	f44e                	sd	s3,40(sp)
    8000203a:	e486                	sd	ra,72(sp)
    8000203c:	e0a2                	sd	s0,64(sp)
    8000203e:	fc26                	sd	s1,56(sp)
    80002040:	f84a                	sd	s2,48(sp)
    80002042:	f052                	sd	s4,32(sp)
    80002044:	ec56                	sd	s5,24(sp)
    80002046:	e85a                	sd	s6,16(sp)
    80002048:	e45e                	sd	s7,8(sp)
    8000204a:	e062                	sd	s8,0(sp)
    8000204c:	07b2                	slli	a5,a5,0xc
    8000204e:	40a589b3          	sub	s3,a1,a0
    80002052:	c3c9                	beqz	a5,800020d4 <__map_kernel_range_pgtbl+0xa6>
    80002054:	0016fa93          	andi	s5,a3,1
    80002058:	8c2a                	mv	s8,a0
    8000205a:	893a                	mv	s2,a4
    8000205c:	00c7d493          	srli	s1,a5,0xc
    80002060:	4b81                	li	s7,0
    80002062:	080a9963          	bnez	s5,800020f4 <__map_kernel_range_pgtbl+0xc6>
    80002066:	0026fa13          	andi	s4,a3,2
    8000206a:	04b2                	slli	s1,s1,0xc
    8000206c:	8a91                	andi	a3,a3,4
    8000206e:	084beb13          	ori	s6,s7,132
    80002072:	94e2                	add	s1,s1,s8
    80002074:	2a01                	sext.w	s4,s4
    80002076:	0006841b          	sext.w	s0,a3
    8000207a:	0ccbeb93          	ori	s7,s7,204
    8000207e:	a005                	j	8000209e <__map_kernel_range_pgtbl+0x70>
    80002080:	060a1663          	bnez	s4,800020ec <__map_kernel_range_pgtbl+0xbe>
    80002084:	04800713          	li	a4,72
    80002088:	e011                	bnez	s0,8000208c <__map_kernel_range_pgtbl+0x5e>
    8000208a:	4709                	li	a4,2
    8000208c:	07aa                	slli	a5,a5,0xa
    8000208e:	8fd9                	or	a5,a5,a4
    80002090:	0017e793          	ori	a5,a5,1
    80002094:	e11c                	sd	a5,0(a0)
    80002096:	6785                	lui	a5,0x1
    80002098:	9c3e                	add	s8,s8,a5
    8000209a:	029c0d63          	beq	s8,s1,800020d4 <__map_kernel_range_pgtbl+0xa6>
    8000209e:	4605                	li	a2,1
    800020a0:	85e2                	mv	a1,s8
    800020a2:	854a                	mv	a0,s2
    800020a4:	eb4ff0ef          	jal	ra,80001758 <__walk_internal_user>
    800020a8:	c929                	beqz	a0,800020fa <__map_kernel_range_pgtbl+0xcc>
    800020aa:	018987b3          	add	a5,s3,s8
    800020ae:	83b1                	srli	a5,a5,0xc
    800020b0:	fc0a88e3          	beqz	s5,80002080 <__map_kernel_range_pgtbl+0x52>
    800020b4:	020a1c63          	bnez	s4,800020ec <__map_kernel_range_pgtbl+0xbe>
    800020b8:	04a00713          	li	a4,74
    800020bc:	f861                	bnez	s0,8000208c <__map_kernel_range_pgtbl+0x5e>
    800020be:	04200713          	li	a4,66
    800020c2:	07aa                	slli	a5,a5,0xa
    800020c4:	8fd9                	or	a5,a5,a4
    800020c6:	0017e793          	ori	a5,a5,1
    800020ca:	e11c                	sd	a5,0(a0)
    800020cc:	6785                	lui	a5,0x1
    800020ce:	9c3e                	add	s8,s8,a5
    800020d0:	fc9c17e3          	bne	s8,s1,8000209e <__map_kernel_range_pgtbl+0x70>
    800020d4:	60a6                	ld	ra,72(sp)
    800020d6:	6406                	ld	s0,64(sp)
    800020d8:	74e2                	ld	s1,56(sp)
    800020da:	7942                	ld	s2,48(sp)
    800020dc:	79a2                	ld	s3,40(sp)
    800020de:	7a02                	ld	s4,32(sp)
    800020e0:	6ae2                	ld	s5,24(sp)
    800020e2:	6b42                	ld	s6,16(sp)
    800020e4:	6ba2                	ld	s7,8(sp)
    800020e6:	6c02                	ld	s8,0(sp)
    800020e8:	6161                	addi	sp,sp,80
    800020ea:	8082                	ret
    800020ec:	875a                	mv	a4,s6
    800020ee:	dc59                	beqz	s0,8000208c <__map_kernel_range_pgtbl+0x5e>
    800020f0:	875e                	mv	a4,s7
    800020f2:	bf69                	j	8000208c <__map_kernel_range_pgtbl+0x5e>
    800020f4:	04200b93          	li	s7,66
    800020f8:	b7bd                	j	80002066 <__map_kernel_range_pgtbl+0x38>
    800020fa:	00006517          	auipc	a0,0x6
    800020fe:	1be50513          	addi	a0,a0,446 # 800082b8 <illegal_insn_trap_table+0x37c>
    80002102:	89cff0ef          	jal	ra,8000119e <kassert_fail>

0000000080002106 <walkaddr.part.0>:
    80002106:	1141                	addi	sp,sp,-16
    80002108:	4601                	li	a2,0
    8000210a:	e406                	sd	ra,8(sp)
    8000210c:	e4cff0ef          	jal	ra,80001758 <__walk_internal_user>
    80002110:	c10d                	beqz	a0,80002132 <walkaddr.part.0+0x2c>
    80002112:	611c                	ld	a5,0(a0)
    80002114:	4745                	li	a4,17
    80002116:	4501                	li	a0,0
    80002118:	0117f693          	andi	a3,a5,17
    8000211c:	00e68563          	beq	a3,a4,80002126 <walkaddr.part.0+0x20>
    80002120:	60a2                	ld	ra,8(sp)
    80002122:	0141                	addi	sp,sp,16
    80002124:	8082                	ret
    80002126:	60a2                	ld	ra,8(sp)
    80002128:	83a9                	srli	a5,a5,0xa
    8000212a:	00c79513          	slli	a0,a5,0xc
    8000212e:	0141                	addi	sp,sp,16
    80002130:	8082                	ret
    80002132:	60a2                	ld	ra,8(sp)
    80002134:	4501                	li	a0,0
    80002136:	0141                	addi	sp,sp,16
    80002138:	8082                	ret

000000008000213a <mappages>:
    8000213a:	7139                	addi	sp,sp,-64
    8000213c:	f426                	sd	s1,40(sp)
    8000213e:	167d                	addi	a2,a2,-1
    80002140:	74fd                	lui	s1,0xfffff
    80002142:	f822                	sd	s0,48(sp)
    80002144:	962e                	add	a2,a2,a1
    80002146:	0095f433          	and	s0,a1,s1
    8000214a:	f04a                	sd	s2,32(sp)
    8000214c:	ec4e                	sd	s3,24(sp)
    8000214e:	e852                	sd	s4,16(sp)
    80002150:	e456                	sd	s5,8(sp)
    80002152:	fc06                	sd	ra,56(sp)
    80002154:	8a2a                	mv	s4,a0
    80002156:	89ba                	mv	s3,a4
    80002158:	8cf1                	and	s1,s1,a2
    8000215a:	40868933          	sub	s2,a3,s0
    8000215e:	6a85                	lui	s5,0x1
    80002160:	a029                	j	8000216a <mappages+0x30>
    80002162:	e11c                	sd	a5,0(a0)
    80002164:	02940b63          	beq	s0,s1,8000219a <mappages+0x60>
    80002168:	9456                	add	s0,s0,s5
    8000216a:	85a2                	mv	a1,s0
    8000216c:	4605                	li	a2,1
    8000216e:	8552                	mv	a0,s4
    80002170:	de8ff0ef          	jal	ra,80001758 <__walk_internal_user>
    80002174:	008907b3          	add	a5,s2,s0
    80002178:	83b1                	srli	a5,a5,0xc
    8000217a:	07aa                	slli	a5,a5,0xa
    8000217c:	0137e7b3          	or	a5,a5,s3
    80002180:	0017e793          	ori	a5,a5,1
    80002184:	fd79                	bnez	a0,80002162 <mappages+0x28>
    80002186:	557d                	li	a0,-1
    80002188:	70e2                	ld	ra,56(sp)
    8000218a:	7442                	ld	s0,48(sp)
    8000218c:	74a2                	ld	s1,40(sp)
    8000218e:	7902                	ld	s2,32(sp)
    80002190:	69e2                	ld	s3,24(sp)
    80002192:	6a42                	ld	s4,16(sp)
    80002194:	6aa2                	ld	s5,8(sp)
    80002196:	6121                	addi	sp,sp,64
    80002198:	8082                	ret
    8000219a:	4501                	li	a0,0
    8000219c:	b7f5                	j	80002188 <mappages+0x4e>

000000008000219e <vmcopy>:
    8000219e:	711d                	addi	sp,sp,-96
    800021a0:	fc4e                	sd	s3,56(sp)
    800021a2:	00017997          	auipc	s3,0x17
    800021a6:	02e98993          	addi	s3,s3,46 # 800191d0 <current>
    800021aa:	0489b783          	ld	a5,72(s3)
    800021ae:	ec86                	sd	ra,88(sp)
    800021b0:	e8a2                	sd	s0,80(sp)
    800021b2:	e4a6                	sd	s1,72(sp)
    800021b4:	e0ca                	sd	s2,64(sp)
    800021b6:	f852                	sd	s4,48(sp)
    800021b8:	f456                	sd	s5,40(sp)
    800021ba:	f05a                	sd	s6,32(sp)
    800021bc:	ec5e                	sd	s7,24(sp)
    800021be:	e862                	sd	s8,16(sp)
    800021c0:	e466                	sd	s9,8(sp)
    800021c2:	e06a                	sd	s10,0(sp)
    800021c4:	c7dd                	beqz	a5,80002272 <vmcopy+0xd4>
    800021c6:	892a                	mv	s2,a0
    800021c8:	8a2e                	mv	s4,a1
    800021ca:	4c81                	li	s9,0
    800021cc:	00017c17          	auipc	s8,0x17
    800021d0:	ff4c0c13          	addi	s8,s8,-12 # 800191c0 <pmm_manager>
    800021d4:	00017b97          	auipc	s7,0x17
    800021d8:	0dcb8b93          	addi	s7,s7,220 # 800192b0 <pages>
    800021dc:	00009b17          	auipc	s6,0x9
    800021e0:	2acb3b03          	ld	s6,684(s6) # 8000b488 <trap_table+0x48>
    800021e4:	00017a97          	auipc	s5,0x17
    800021e8:	094a8a93          	addi	s5,s5,148 # 80019278 <nbase>
    800021ec:	6485                	lui	s1,0x1
    800021ee:	4601                	li	a2,0
    800021f0:	85e6                	mv	a1,s9
    800021f2:	854a                	mv	a0,s2
    800021f4:	d64ff0ef          	jal	ra,80001758 <__walk_internal_user>
    800021f8:	842a                	mv	s0,a0
    800021fa:	c53d                	beqz	a0,80002268 <vmcopy+0xca>
    800021fc:	6118                	ld	a4,0(a0)
    800021fe:	00177793          	andi	a5,a4,1
    80002202:	cbb5                	beqz	a5,80002276 <vmcopy+0xd8>
    80002204:	000c3683          	ld	a3,0(s8)
    80002208:	00a75793          	srli	a5,a4,0xa
    8000220c:	4505                	li	a0,1
    8000220e:	6e94                	ld	a3,24(a3)
    80002210:	00c79413          	slli	s0,a5,0xc
    80002214:	3ff77d13          	andi	s10,a4,1023
    80002218:	9682                	jalr	a3
    8000221a:	000bb683          	ld	a3,0(s7)
    8000221e:	000ab783          	ld	a5,0(s5)
    80002222:	40d506b3          	sub	a3,a0,a3
    80002226:	868d                	srai	a3,a3,0x3
    80002228:	036686b3          	mul	a3,a3,s6
    8000222c:	96be                	add	a3,a3,a5
    8000222e:	06b2                	slli	a3,a3,0xc
    80002230:	cab9                	beqz	a3,80002286 <vmcopy+0xe8>
    80002232:	87a2                	mv	a5,s0
    80002234:	8636                	mv	a2,a3
    80002236:	009408b3          	add	a7,s0,s1
    8000223a:	0007b803          	ld	a6,0(a5) # 1000 <_ftext-0x7ffff000>
    8000223e:	6788                	ld	a0,8(a5)
    80002240:	6b8c                	ld	a1,16(a5)
    80002242:	6f98                	ld	a4,24(a5)
    80002244:	01063023          	sd	a6,0(a2)
    80002248:	e608                	sd	a0,8(a2)
    8000224a:	ea0c                	sd	a1,16(a2)
    8000224c:	ee18                	sd	a4,24(a2)
    8000224e:	02078793          	addi	a5,a5,32
    80002252:	02060613          	addi	a2,a2,32
    80002256:	ff1792e3          	bne	a5,a7,8000223a <vmcopy+0x9c>
    8000225a:	876a                	mv	a4,s10
    8000225c:	6605                	lui	a2,0x1
    8000225e:	85e6                	mv	a1,s9
    80002260:	8552                	mv	a0,s4
    80002262:	ed9ff0ef          	jal	ra,8000213a <mappages>
    80002266:	e105                	bnez	a0,80002286 <vmcopy+0xe8>
    80002268:	0489b783          	ld	a5,72(s3)
    8000226c:	9ca6                	add	s9,s9,s1
    8000226e:	f8fce0e3          	bltu	s9,a5,800021ee <vmcopy+0x50>
    80002272:	4501                	li	a0,0
    80002274:	a811                	j	80002288 <vmcopy+0xea>
    80002276:	4605                	li	a2,1
    80002278:	85e6                	mv	a1,s9
    8000227a:	8552                	mv	a0,s4
    8000227c:	cdcff0ef          	jal	ra,80001758 <__walk_internal_user>
    80002280:	601c                	ld	a5,0(s0)
    80002282:	e11c                	sd	a5,0(a0)
    80002284:	b7d5                	j	80002268 <vmcopy+0xca>
    80002286:	557d                	li	a0,-1
    80002288:	60e6                	ld	ra,88(sp)
    8000228a:	6446                	ld	s0,80(sp)
    8000228c:	64a6                	ld	s1,72(sp)
    8000228e:	6906                	ld	s2,64(sp)
    80002290:	79e2                	ld	s3,56(sp)
    80002292:	7a42                	ld	s4,48(sp)
    80002294:	7aa2                	ld	s5,40(sp)
    80002296:	7b02                	ld	s6,32(sp)
    80002298:	6be2                	ld	s7,24(sp)
    8000229a:	6c42                	ld	s8,16(sp)
    8000229c:	6ca2                	ld	s9,8(sp)
    8000229e:	6d02                	ld	s10,0(sp)
    800022a0:	6125                	addi	sp,sp,96
    800022a2:	8082                	ret

00000000800022a4 <uvmcopy>:
    800022a4:	711d                	addi	sp,sp,-96
    800022a6:	fc4e                	sd	s3,56(sp)
    800022a8:	00017997          	auipc	s3,0x17
    800022ac:	f2898993          	addi	s3,s3,-216 # 800191d0 <current>
    800022b0:	0489b783          	ld	a5,72(s3)
    800022b4:	ec86                	sd	ra,88(sp)
    800022b6:	e8a2                	sd	s0,80(sp)
    800022b8:	e4a6                	sd	s1,72(sp)
    800022ba:	e0ca                	sd	s2,64(sp)
    800022bc:	f852                	sd	s4,48(sp)
    800022be:	f456                	sd	s5,40(sp)
    800022c0:	f05a                	sd	s6,32(sp)
    800022c2:	ec5e                	sd	s7,24(sp)
    800022c4:	e862                	sd	s8,16(sp)
    800022c6:	e466                	sd	s9,8(sp)
    800022c8:	e06a                	sd	s10,0(sp)
    800022ca:	c7dd                	beqz	a5,80002378 <uvmcopy+0xd4>
    800022cc:	892a                	mv	s2,a0
    800022ce:	8a2e                	mv	s4,a1
    800022d0:	4c81                	li	s9,0
    800022d2:	00017c17          	auipc	s8,0x17
    800022d6:	eeec0c13          	addi	s8,s8,-274 # 800191c0 <pmm_manager>
    800022da:	00017b97          	auipc	s7,0x17
    800022de:	fd6b8b93          	addi	s7,s7,-42 # 800192b0 <pages>
    800022e2:	00009b17          	auipc	s6,0x9
    800022e6:	1a6b3b03          	ld	s6,422(s6) # 8000b488 <trap_table+0x48>
    800022ea:	00017a97          	auipc	s5,0x17
    800022ee:	f8ea8a93          	addi	s5,s5,-114 # 80019278 <nbase>
    800022f2:	6485                	lui	s1,0x1
    800022f4:	4601                	li	a2,0
    800022f6:	85e6                	mv	a1,s9
    800022f8:	854a                	mv	a0,s2
    800022fa:	c5eff0ef          	jal	ra,80001758 <__walk_internal_user>
    800022fe:	842a                	mv	s0,a0
    80002300:	c53d                	beqz	a0,8000236e <uvmcopy+0xca>
    80002302:	6118                	ld	a4,0(a0)
    80002304:	00177793          	andi	a5,a4,1
    80002308:	cbb5                	beqz	a5,8000237c <uvmcopy+0xd8>
    8000230a:	000c3683          	ld	a3,0(s8)
    8000230e:	00a75793          	srli	a5,a4,0xa
    80002312:	4505                	li	a0,1
    80002314:	6e94                	ld	a3,24(a3)
    80002316:	00c79413          	slli	s0,a5,0xc
    8000231a:	3ff77d13          	andi	s10,a4,1023
    8000231e:	9682                	jalr	a3
    80002320:	000bb683          	ld	a3,0(s7)
    80002324:	000ab783          	ld	a5,0(s5)
    80002328:	40d506b3          	sub	a3,a0,a3
    8000232c:	868d                	srai	a3,a3,0x3
    8000232e:	036686b3          	mul	a3,a3,s6
    80002332:	96be                	add	a3,a3,a5
    80002334:	06b2                	slli	a3,a3,0xc
    80002336:	cab9                	beqz	a3,8000238c <uvmcopy+0xe8>
    80002338:	87a2                	mv	a5,s0
    8000233a:	8636                	mv	a2,a3
    8000233c:	009408b3          	add	a7,s0,s1
    80002340:	0007b803          	ld	a6,0(a5)
    80002344:	6788                	ld	a0,8(a5)
    80002346:	6b8c                	ld	a1,16(a5)
    80002348:	6f98                	ld	a4,24(a5)
    8000234a:	01063023          	sd	a6,0(a2) # 1000 <_ftext-0x7ffff000>
    8000234e:	e608                	sd	a0,8(a2)
    80002350:	ea0c                	sd	a1,16(a2)
    80002352:	ee18                	sd	a4,24(a2)
    80002354:	02078793          	addi	a5,a5,32
    80002358:	02060613          	addi	a2,a2,32
    8000235c:	ff1792e3          	bne	a5,a7,80002340 <uvmcopy+0x9c>
    80002360:	876a                	mv	a4,s10
    80002362:	6605                	lui	a2,0x1
    80002364:	85e6                	mv	a1,s9
    80002366:	8552                	mv	a0,s4
    80002368:	dd3ff0ef          	jal	ra,8000213a <mappages>
    8000236c:	e105                	bnez	a0,8000238c <uvmcopy+0xe8>
    8000236e:	0489b783          	ld	a5,72(s3)
    80002372:	9ca6                	add	s9,s9,s1
    80002374:	f8fce0e3          	bltu	s9,a5,800022f4 <uvmcopy+0x50>
    80002378:	4501                	li	a0,0
    8000237a:	a811                	j	8000238e <uvmcopy+0xea>
    8000237c:	4605                	li	a2,1
    8000237e:	85e6                	mv	a1,s9
    80002380:	8552                	mv	a0,s4
    80002382:	bd6ff0ef          	jal	ra,80001758 <__walk_internal_user>
    80002386:	601c                	ld	a5,0(s0)
    80002388:	e11c                	sd	a5,0(a0)
    8000238a:	b7d5                	j	8000236e <uvmcopy+0xca>
    8000238c:	557d                	li	a0,-1
    8000238e:	60e6                	ld	ra,88(sp)
    80002390:	6446                	ld	s0,80(sp)
    80002392:	64a6                	ld	s1,72(sp)
    80002394:	6906                	ld	s2,64(sp)
    80002396:	79e2                	ld	s3,56(sp)
    80002398:	7a42                	ld	s4,48(sp)
    8000239a:	7aa2                	ld	s5,40(sp)
    8000239c:	7b02                	ld	s6,32(sp)
    8000239e:	6be2                	ld	s7,24(sp)
    800023a0:	6c42                	ld	s8,16(sp)
    800023a2:	6ca2                	ld	s9,8(sp)
    800023a4:	6d02                	ld	s10,0(sp)
    800023a6:	6125                	addi	sp,sp,96
    800023a8:	8082                	ret

00000000800023aa <vmprint_help>:
    800023aa:	7159                	addi	sp,sp,-112
    800023ac:	f45e                	sd	s7,40(sp)
    800023ae:	00359b93          	slli	s7,a1,0x3
    800023b2:	f0a2                	sd	s0,96(sp)
    800023b4:	eca6                	sd	s1,88(sp)
    800023b6:	e8ca                	sd	s2,80(sp)
    800023b8:	e0d2                	sd	s4,64(sp)
    800023ba:	f85a                	sd	s6,48(sp)
    800023bc:	f062                	sd	s8,32(sp)
    800023be:	e46e                	sd	s11,8(sp)
    800023c0:	f486                	sd	ra,104(sp)
    800023c2:	e4ce                	sd	s3,72(sp)
    800023c4:	fc56                	sd	s5,56(sp)
    800023c6:	ec66                	sd	s9,24(sp)
    800023c8:	e86a                	sd	s10,16(sp)
    800023ca:	842e                	mv	s0,a1
    800023cc:	8c32                	mv	s8,a2
    800023ce:	9bb2                	add	s7,s7,a2
    800023d0:	892a                	mv	s2,a0
    800023d2:	4481                	li	s1,0
    800023d4:	00158a1b          	addiw	s4,a1,1
    800023d8:	00006d97          	auipc	s11,0x6
    800023dc:	028d8d93          	addi	s11,s11,40 # 80008400 <illegal_insn_trap_table+0x4c4>
    800023e0:	00006b17          	auipc	s6,0x6
    800023e4:	018b0b13          	addi	s6,s6,24 # 800083f8 <illegal_insn_trap_table+0x4bc>
    800023e8:	00048a9b          	sext.w	s5,s1
    800023ec:	e00d                	bnez	s0,8000240e <vmprint_help+0x64>
    800023ee:	cc9d                	beqz	s1,8000242c <vmprint_help+0x82>
    800023f0:	70a6                	ld	ra,104(sp)
    800023f2:	7406                	ld	s0,96(sp)
    800023f4:	64e6                	ld	s1,88(sp)
    800023f6:	6946                	ld	s2,80(sp)
    800023f8:	69a6                	ld	s3,72(sp)
    800023fa:	6a06                	ld	s4,64(sp)
    800023fc:	7ae2                	ld	s5,56(sp)
    800023fe:	7b42                	ld	s6,48(sp)
    80002400:	7ba2                	ld	s7,40(sp)
    80002402:	7c02                	ld	s8,32(sp)
    80002404:	6ce2                	ld	s9,24(sp)
    80002406:	6d42                	ld	s10,16(sp)
    80002408:	6da2                	ld	s11,8(sp)
    8000240a:	6165                	addi	sp,sp,112
    8000240c:	8082                	ret
    8000240e:	009bb023          	sd	s1,0(s7)
    80002412:	00093983          	ld	s3,0(s2)
    80002416:	001a8c9b          	addiw	s9,s5,1
    8000241a:	08099c63          	bnez	s3,800024b2 <vmprint_help+0x108>
    8000241e:	20000793          	li	a5,512
    80002422:	fcfc87e3          	beq	s9,a5,800023f0 <vmprint_help+0x46>
    80002426:	0485                	addi	s1,s1,1
    80002428:	0921                	addi	s2,s2,8
    8000242a:	bf7d                	j	800023e8 <vmprint_help+0x3e>
    8000242c:	000bb023          	sd	zero,0(s7)
    80002430:	00093983          	ld	s3,0(s2)
    80002434:	001a8c9b          	addiw	s9,s5,1
    80002438:	fe0987e3          	beqz	s3,80002426 <vmprint_help+0x7c>
    8000243c:	00006517          	auipc	a0,0x6
    80002440:	fb450513          	addi	a0,a0,-76 # 800083f0 <illegal_insn_trap_table+0x4b4>
    80002444:	c67fe0ef          	jal	ra,800010aa <printk>
    80002448:	4d01                	li	s10,0
    8000244a:	a031                	j	80002456 <vmprint_help+0xac>
    8000244c:	2d05                	addiw	s10,s10,1
    8000244e:	c5dfe0ef          	jal	ra,800010aa <printk>
    80002452:	014d0b63          	beq	s10,s4,80002468 <vmprint_help+0xbe>
    80002456:	855a                	mv	a0,s6
    80002458:	ffa41ae3          	bne	s0,s10,8000244c <vmprint_help+0xa2>
    8000245c:	856e                	mv	a0,s11
    8000245e:	2d05                	addiw	s10,s10,1
    80002460:	c4bfe0ef          	jal	ra,800010aa <printk>
    80002464:	ff4d19e3          	bne	s10,s4,80002456 <vmprint_help+0xac>
    80002468:	00a9d693          	srli	a3,s3,0xa
    8000246c:	0079f793          	andi	a5,s3,7
    80002470:	4705                	li	a4,1
    80002472:	00c69993          	slli	s3,a3,0xc
    80002476:	04e78763          	beq	a5,a4,800024c4 <vmprint_help+0x11a>
    8000247a:	000c3583          	ld	a1,0(s8)
    8000247e:	008c3783          	ld	a5,8(s8)
    80002482:	010c3703          	ld	a4,16(s8)
    80002486:	05ca                	slli	a1,a1,0x12
    80002488:	07a6                	slli	a5,a5,0x9
    8000248a:	8ddd                	or	a1,a1,a5
    8000248c:	8dd9                	or	a1,a1,a4
    8000248e:	05b2                	slli	a1,a1,0xc
    80002490:	00006517          	auipc	a0,0x6
    80002494:	f9050513          	addi	a0,a0,-112 # 80008420 <illegal_insn_trap_table+0x4e4>
    80002498:	c13fe0ef          	jal	ra,800010aa <printk>
    8000249c:	00093603          	ld	a2,0(s2)
    800024a0:	86ce                	mv	a3,s3
    800024a2:	85d6                	mv	a1,s5
    800024a4:	00006517          	auipc	a0,0x6
    800024a8:	f8450513          	addi	a0,a0,-124 # 80008428 <illegal_insn_trap_table+0x4ec>
    800024ac:	bfffe0ef          	jal	ra,800010aa <printk>
    800024b0:	b7bd                	j	8000241e <vmprint_help+0x74>
    800024b2:	00006517          	auipc	a0,0x6
    800024b6:	f3e50513          	addi	a0,a0,-194 # 800083f0 <illegal_insn_trap_table+0x4b4>
    800024ba:	bf1fe0ef          	jal	ra,800010aa <printk>
    800024be:	f80455e3          	bgez	s0,80002448 <vmprint_help+0x9e>
    800024c2:	b75d                	j	80002468 <vmprint_help+0xbe>
    800024c4:	00093603          	ld	a2,0(s2)
    800024c8:	85d6                	mv	a1,s5
    800024ca:	86ce                	mv	a3,s3
    800024cc:	00006517          	auipc	a0,0x6
    800024d0:	f3c50513          	addi	a0,a0,-196 # 80008408 <illegal_insn_trap_table+0x4cc>
    800024d4:	bd7fe0ef          	jal	ra,800010aa <printk>
    800024d8:	8662                	mv	a2,s8
    800024da:	85d2                	mv	a1,s4
    800024dc:	854e                	mv	a0,s3
    800024de:	ecdff0ef          	jal	ra,800023aa <vmprint_help>
    800024e2:	bf35                	j	8000241e <vmprint_help+0x74>

00000000800024e4 <uvmprint_help>:
    800024e4:	7159                	addi	sp,sp,-112
    800024e6:	f45e                	sd	s7,40(sp)
    800024e8:	00359b93          	slli	s7,a1,0x3
    800024ec:	f0a2                	sd	s0,96(sp)
    800024ee:	eca6                	sd	s1,88(sp)
    800024f0:	e4ce                	sd	s3,72(sp)
    800024f2:	e0d2                	sd	s4,64(sp)
    800024f4:	fc56                	sd	s5,56(sp)
    800024f6:	f062                	sd	s8,32(sp)
    800024f8:	ec66                	sd	s9,24(sp)
    800024fa:	e86a                	sd	s10,16(sp)
    800024fc:	f486                	sd	ra,104(sp)
    800024fe:	e8ca                	sd	s2,80(sp)
    80002500:	f85a                	sd	s6,48(sp)
    80002502:	e46e                	sd	s11,8(sp)
    80002504:	89ae                	mv	s3,a1
    80002506:	8c32                	mv	s8,a2
    80002508:	9bb2                	add	s7,s7,a2
    8000250a:	84aa                	mv	s1,a0
    8000250c:	4401                	li	s0,0
    8000250e:	00006d17          	auipc	s10,0x6
    80002512:	ee2d0d13          	addi	s10,s10,-286 # 800083f0 <illegal_insn_trap_table+0x4b4>
    80002516:	00158a1b          	addiw	s4,a1,1
    8000251a:	00006c97          	auipc	s9,0x6
    8000251e:	ee6c8c93          	addi	s9,s9,-282 # 80008400 <illegal_insn_trap_table+0x4c4>
    80002522:	00006a97          	auipc	s5,0x6
    80002526:	ed6a8a93          	addi	s5,s5,-298 # 800083f8 <illegal_insn_trap_table+0x4bc>
    8000252a:	a039                	j	80002538 <uvmprint_help+0x54>
    8000252c:	0405                	addi	s0,s0,1
    8000252e:	20000793          	li	a5,512
    80002532:	04a1                	addi	s1,s1,8
    80002534:	08f40863          	beq	s0,a5,800025c4 <uvmprint_help+0xe0>
    80002538:	008bb023          	sd	s0,0(s7)
    8000253c:	0004b903          	ld	s2,0(s1) # 1000 <_ftext-0x7ffff000>
    80002540:	00040b1b          	sext.w	s6,s0
    80002544:	fe0904e3          	beqz	s2,8000252c <uvmprint_help+0x48>
    80002548:	856a                	mv	a0,s10
    8000254a:	b61fe0ef          	jal	ra,800010aa <printk>
    8000254e:	4d81                	li	s11,0
    80002550:	0009d863          	bgez	s3,80002560 <uvmprint_help+0x7c>
    80002554:	a839                	j	80002572 <uvmprint_help+0x8e>
    80002556:	2d85                	addiw	s11,s11,1
    80002558:	b53fe0ef          	jal	ra,800010aa <printk>
    8000255c:	01ba0b63          	beq	s4,s11,80002572 <uvmprint_help+0x8e>
    80002560:	8556                	mv	a0,s5
    80002562:	ffb99ae3          	bne	s3,s11,80002556 <uvmprint_help+0x72>
    80002566:	8566                	mv	a0,s9
    80002568:	2d85                	addiw	s11,s11,1
    8000256a:	b41fe0ef          	jal	ra,800010aa <printk>
    8000256e:	ffba19e3          	bne	s4,s11,80002560 <uvmprint_help+0x7c>
    80002572:	00a95693          	srli	a3,s2,0xa
    80002576:	00797793          	andi	a5,s2,7
    8000257a:	4705                	li	a4,1
    8000257c:	00c69913          	slli	s2,a3,0xc
    80002580:	06e78163          	beq	a5,a4,800025e2 <uvmprint_help+0xfe>
    80002584:	000c3583          	ld	a1,0(s8)
    80002588:	008c3783          	ld	a5,8(s8)
    8000258c:	010c3703          	ld	a4,16(s8)
    80002590:	05ca                	slli	a1,a1,0x12
    80002592:	07a6                	slli	a5,a5,0x9
    80002594:	8ddd                	or	a1,a1,a5
    80002596:	8dd9                	or	a1,a1,a4
    80002598:	05b2                	slli	a1,a1,0xc
    8000259a:	00006517          	auipc	a0,0x6
    8000259e:	e8650513          	addi	a0,a0,-378 # 80008420 <illegal_insn_trap_table+0x4e4>
    800025a2:	b09fe0ef          	jal	ra,800010aa <printk>
    800025a6:	6090                	ld	a2,0(s1)
    800025a8:	86ca                	mv	a3,s2
    800025aa:	85da                	mv	a1,s6
    800025ac:	00006517          	auipc	a0,0x6
    800025b0:	e7c50513          	addi	a0,a0,-388 # 80008428 <illegal_insn_trap_table+0x4ec>
    800025b4:	af7fe0ef          	jal	ra,800010aa <printk>
    800025b8:	0405                	addi	s0,s0,1
    800025ba:	20000793          	li	a5,512
    800025be:	04a1                	addi	s1,s1,8
    800025c0:	f6f41ce3          	bne	s0,a5,80002538 <uvmprint_help+0x54>
    800025c4:	70a6                	ld	ra,104(sp)
    800025c6:	7406                	ld	s0,96(sp)
    800025c8:	64e6                	ld	s1,88(sp)
    800025ca:	6946                	ld	s2,80(sp)
    800025cc:	69a6                	ld	s3,72(sp)
    800025ce:	6a06                	ld	s4,64(sp)
    800025d0:	7ae2                	ld	s5,56(sp)
    800025d2:	7b42                	ld	s6,48(sp)
    800025d4:	7ba2                	ld	s7,40(sp)
    800025d6:	7c02                	ld	s8,32(sp)
    800025d8:	6ce2                	ld	s9,24(sp)
    800025da:	6d42                	ld	s10,16(sp)
    800025dc:	6da2                	ld	s11,8(sp)
    800025de:	6165                	addi	sp,sp,112
    800025e0:	8082                	ret
    800025e2:	6090                	ld	a2,0(s1)
    800025e4:	85da                	mv	a1,s6
    800025e6:	86ca                	mv	a3,s2
    800025e8:	00006517          	auipc	a0,0x6
    800025ec:	e2050513          	addi	a0,a0,-480 # 80008408 <illegal_insn_trap_table+0x4cc>
    800025f0:	abbfe0ef          	jal	ra,800010aa <printk>
    800025f4:	8662                	mv	a2,s8
    800025f6:	85d2                	mv	a1,s4
    800025f8:	854a                	mv	a0,s2
    800025fa:	db1ff0ef          	jal	ra,800023aa <vmprint_help>
    800025fe:	b73d                	j	8000252c <uvmprint_help+0x48>

0000000080002600 <vmprint>:
    80002600:	7179                	addi	sp,sp,-48
    80002602:	f022                	sd	s0,32(sp)
    80002604:	85aa                	mv	a1,a0
    80002606:	842a                	mv	s0,a0
    80002608:	00006517          	auipc	a0,0x6
    8000260c:	e3850513          	addi	a0,a0,-456 # 80008440 <illegal_insn_trap_table+0x504>
    80002610:	f406                	sd	ra,40(sp)
    80002612:	a99fe0ef          	jal	ra,800010aa <printk>
    80002616:	0030                	addi	a2,sp,8
    80002618:	8522                	mv	a0,s0
    8000261a:	4581                	li	a1,0
    8000261c:	d8fff0ef          	jal	ra,800023aa <vmprint_help>
    80002620:	70a2                	ld	ra,40(sp)
    80002622:	7402                	ld	s0,32(sp)
    80002624:	6145                	addi	sp,sp,48
    80002626:	8082                	ret

0000000080002628 <uvmprint>:
    80002628:	7179                	addi	sp,sp,-48
    8000262a:	f022                	sd	s0,32(sp)
    8000262c:	85aa                	mv	a1,a0
    8000262e:	842a                	mv	s0,a0
    80002630:	00006517          	auipc	a0,0x6
    80002634:	e1050513          	addi	a0,a0,-496 # 80008440 <illegal_insn_trap_table+0x504>
    80002638:	f406                	sd	ra,40(sp)
    8000263a:	a71fe0ef          	jal	ra,800010aa <printk>
    8000263e:	0030                	addi	a2,sp,8
    80002640:	8522                	mv	a0,s0
    80002642:	4581                	li	a1,0
    80002644:	ea1ff0ef          	jal	ra,800024e4 <uvmprint_help>
    80002648:	70a2                	ld	ra,40(sp)
    8000264a:	7402                	ld	s0,32(sp)
    8000264c:	6145                	addi	sp,sp,48
    8000264e:	8082                	ret

0000000080002650 <printPage>:
    80002650:	7179                	addi	sp,sp,-48
    80002652:	f022                	sd	s0,32(sp)
    80002654:	ec26                	sd	s1,24(sp)
    80002656:	e84a                	sd	s2,16(sp)
    80002658:	e44e                	sd	s3,8(sp)
    8000265a:	f406                	sd	ra,40(sp)
    8000265c:	84aa                	mv	s1,a0
    8000265e:	00006997          	auipc	s3,0x6
    80002662:	dfa98993          	addi	s3,s3,-518 # 80008458 <illegal_insn_trap_table+0x51c>
    80002666:	4401                	li	s0,0
    80002668:	0f000913          	li	s2,240
    8000266c:	e19d                	bnez	a1,80002692 <printPage+0x42>
    8000266e:	009467b3          	or	a5,s0,s1
    80002672:	6394                	ld	a3,0(a5)
    80002674:	8622                	mv	a2,s0
    80002676:	85a6                	mv	a1,s1
    80002678:	0421                	addi	s0,s0,8
    8000267a:	854e                	mv	a0,s3
    8000267c:	a2ffe0ef          	jal	ra,800010aa <printk>
    80002680:	ff2417e3          	bne	s0,s2,8000266e <printPage+0x1e>
    80002684:	70a2                	ld	ra,40(sp)
    80002686:	7402                	ld	s0,32(sp)
    80002688:	64e2                	ld	s1,24(sp)
    8000268a:	6942                	ld	s2,16(sp)
    8000268c:	69a2                	ld	s3,8(sp)
    8000268e:	6145                	addi	sp,sp,48
    80002690:	8082                	ret
    80002692:	1115e613          	ori	a2,a1,273
    80002696:	7402                	ld	s0,32(sp)
    80002698:	00c567b3          	or	a5,a0,a2
    8000269c:	70a2                	ld	ra,40(sp)
    8000269e:	64e2                	ld	s1,24(sp)
    800026a0:	6942                	ld	s2,16(sp)
    800026a2:	6394                	ld	a3,0(a5)
    800026a4:	85aa                	mv	a1,a0
    800026a6:	854e                	mv	a0,s3
    800026a8:	69a2                	ld	s3,8(sp)
    800026aa:	6145                	addi	sp,sp,48
    800026ac:	9fffe06f          	j	800010aa <printk>

00000000800026b0 <printPlot>:
    800026b0:	1141                	addi	sp,sp,-16
    800026b2:	e022                	sd	s0,0(sp)
    800026b4:	e406                	sd	ra,8(sp)
    800026b6:	00157793          	andi	a5,a0,1
    800026ba:	842a                	mv	s0,a0
    800026bc:	ef99                	bnez	a5,800026da <printPlot+0x2a>
    800026be:	00247793          	andi	a5,s0,2
    800026c2:	e78d                	bnez	a5,800026ec <printPlot+0x3c>
    800026c4:	8811                	andi	s0,s0,4
    800026c6:	e81d                	bnez	s0,800026fc <printPlot+0x4c>
    800026c8:	6402                	ld	s0,0(sp)
    800026ca:	60a2                	ld	ra,8(sp)
    800026cc:	00006517          	auipc	a0,0x6
    800026d0:	2f450513          	addi	a0,a0,756 # 800089c0 <illegal_insn_trap_table+0xa84>
    800026d4:	0141                	addi	sp,sp,16
    800026d6:	9d5fe06f          	j	800010aa <printk>
    800026da:	00006517          	auipc	a0,0x6
    800026de:	d9e50513          	addi	a0,a0,-610 # 80008478 <illegal_insn_trap_table+0x53c>
    800026e2:	9c9fe0ef          	jal	ra,800010aa <printk>
    800026e6:	00247793          	andi	a5,s0,2
    800026ea:	dfe9                	beqz	a5,800026c4 <printPlot+0x14>
    800026ec:	00006517          	auipc	a0,0x6
    800026f0:	d9c50513          	addi	a0,a0,-612 # 80008488 <illegal_insn_trap_table+0x54c>
    800026f4:	8811                	andi	s0,s0,4
    800026f6:	9b5fe0ef          	jal	ra,800010aa <printk>
    800026fa:	d479                	beqz	s0,800026c8 <printPlot+0x18>
    800026fc:	00006517          	auipc	a0,0x6
    80002700:	d9c50513          	addi	a0,a0,-612 # 80008498 <illegal_insn_trap_table+0x55c>
    80002704:	9a7fe0ef          	jal	ra,800010aa <printk>
    80002708:	6402                	ld	s0,0(sp)
    8000270a:	60a2                	ld	ra,8(sp)
    8000270c:	00006517          	auipc	a0,0x6
    80002710:	2b450513          	addi	a0,a0,692 # 800089c0 <illegal_insn_trap_table+0xa84>
    80002714:	0141                	addi	sp,sp,16
    80002716:	995fe06f          	j	800010aa <printk>

000000008000271a <walkaddr>:
    8000271a:	00017797          	auipc	a5,0x17
    8000271e:	afe7b783          	ld	a5,-1282(a5) # 80019218 <current+0x48>
    80002722:	00f5e463          	bltu	a1,a5,8000272a <walkaddr+0x10>
    80002726:	4501                	li	a0,0
    80002728:	8082                	ret
    8000272a:	baf1                	j	80002106 <walkaddr.part.0>

000000008000272c <copyin>:
    8000272c:	ced1                	beqz	a3,800027c8 <copyin+0x9c>
    8000272e:	715d                	addi	sp,sp,-80
    80002730:	e0a2                	sd	s0,64(sp)
    80002732:	f84a                	sd	s2,48(sp)
    80002734:	f44e                	sd	s3,40(sp)
    80002736:	f052                	sd	s4,32(sp)
    80002738:	ec56                	sd	s5,24(sp)
    8000273a:	e85a                	sd	s6,16(sp)
    8000273c:	e45e                	sd	s7,8(sp)
    8000273e:	e486                	sd	ra,72(sp)
    80002740:	fc26                	sd	s1,56(sp)
    80002742:	8936                	mv	s2,a3
    80002744:	8a2a                	mv	s4,a0
    80002746:	89ae                	mv	s3,a1
    80002748:	8432                	mv	s0,a2
    8000274a:	00017b97          	auipc	s7,0x17
    8000274e:	a86b8b93          	addi	s7,s7,-1402 # 800191d0 <current>
    80002752:	7afd                	lui	s5,0xfffff
    80002754:	6b05                	lui	s6,0x1
    80002756:	048bb783          	ld	a5,72(s7)
    8000275a:	015474b3          	and	s1,s0,s5
    8000275e:	8552                	mv	a0,s4
    80002760:	85a6                	mv	a1,s1
    80002762:	00f4ee63          	bltu	s1,a5,8000277e <copyin+0x52>
    80002766:	557d                	li	a0,-1
    80002768:	60a6                	ld	ra,72(sp)
    8000276a:	6406                	ld	s0,64(sp)
    8000276c:	74e2                	ld	s1,56(sp)
    8000276e:	7942                	ld	s2,48(sp)
    80002770:	79a2                	ld	s3,40(sp)
    80002772:	7a02                	ld	s4,32(sp)
    80002774:	6ae2                	ld	s5,24(sp)
    80002776:	6b42                	ld	s6,16(sp)
    80002778:	6ba2                	ld	s7,8(sp)
    8000277a:	6161                	addi	sp,sp,80
    8000277c:	8082                	ret
    8000277e:	989ff0ef          	jal	ra,80002106 <walkaddr.part.0>
    80002782:	409405b3          	sub	a1,s0,s1
    80002786:	87aa                	mv	a5,a0
    80002788:	40848433          	sub	s0,s1,s0
    8000278c:	854e                	mv	a0,s3
    8000278e:	95be                	add	a1,a1,a5
    80002790:	945a                	add	s0,s0,s6
    80002792:	dbf1                	beqz	a5,80002766 <copyin+0x3a>
    80002794:	00896e63          	bltu	s2,s0,800027b0 <copyin+0x84>
    80002798:	8622                	mv	a2,s0
    8000279a:	40890933          	sub	s2,s2,s0
    8000279e:	99a2                	add	s3,s3,s0
    800027a0:	3ff040ef          	jal	ra,8000739e <memcpy>
    800027a4:	01648433          	add	s0,s1,s6
    800027a8:	fa0917e3          	bnez	s2,80002756 <copyin+0x2a>
    800027ac:	4501                	li	a0,0
    800027ae:	bf6d                	j	80002768 <copyin+0x3c>
    800027b0:	844a                	mv	s0,s2
    800027b2:	8622                	mv	a2,s0
    800027b4:	40890933          	sub	s2,s2,s0
    800027b8:	99a2                	add	s3,s3,s0
    800027ba:	3e5040ef          	jal	ra,8000739e <memcpy>
    800027be:	01648433          	add	s0,s1,s6
    800027c2:	f8091ae3          	bnez	s2,80002756 <copyin+0x2a>
    800027c6:	b7dd                	j	800027ac <copyin+0x80>
    800027c8:	4501                	li	a0,0
    800027ca:	8082                	ret

00000000800027cc <trap_entry>:
    800027cc:	14011173          	csrrw	sp,sscratch,sp
    800027d0:	06011663          	bnez	sp,8000283c <write_stap>
    800027d4:	14002173          	csrr	sp,sscratch
    800027d8:	7129                	addi	sp,sp,-320
    800027da:	e406                	sd	ra,8(sp)
    800027dc:	ec0e                	sd	gp,24(sp)
    800027de:	f012                	sd	tp,32(sp)
    800027e0:	f416                	sd	t0,40(sp)
    800027e2:	f81a                	sd	t1,48(sp)
    800027e4:	fc1e                	sd	t2,56(sp)
    800027e6:	e0a2                	sd	s0,64(sp)
    800027e8:	e4a6                	sd	s1,72(sp)
    800027ea:	e8aa                	sd	a0,80(sp)
    800027ec:	ecae                	sd	a1,88(sp)
    800027ee:	f0b2                	sd	a2,96(sp)
    800027f0:	f4b6                	sd	a3,104(sp)
    800027f2:	f8ba                	sd	a4,112(sp)
    800027f4:	fcbe                	sd	a5,120(sp)
    800027f6:	e142                	sd	a6,128(sp)
    800027f8:	e546                	sd	a7,136(sp)
    800027fa:	e94a                	sd	s2,144(sp)
    800027fc:	ed4e                	sd	s3,152(sp)
    800027fe:	f152                	sd	s4,160(sp)
    80002800:	f556                	sd	s5,168(sp)
    80002802:	f95a                	sd	s6,176(sp)
    80002804:	fd5e                	sd	s7,184(sp)
    80002806:	e1e2                	sd	s8,192(sp)
    80002808:	e5e6                	sd	s9,200(sp)
    8000280a:	e9ea                	sd	s10,208(sp)
    8000280c:	edee                	sd	s11,216(sp)
    8000280e:	f1f2                	sd	t3,224(sp)
    80002810:	f5f6                	sd	t4,232(sp)
    80002812:	f9fa                	sd	t5,240(sp)
    80002814:	fdfe                	sd	t6,248(sp)
    80002816:	140012f3          	csrrw	t0,sscratch,zero
    8000281a:	10002473          	csrr	s0,sstatus
    8000281e:	14102373          	csrr	t1,sepc
    80002822:	143023f3          	csrr	t2,stval
    80002826:	14202e73          	csrr	t3,scause
    8000282a:	e816                	sd	t0,16(sp)
    8000282c:	e222                	sd	s0,256(sp)
    8000282e:	e61a                	sd	t1,264(sp)
    80002830:	ea1e                	sd	t2,272(sp)
    80002832:	ee72                	sd	t3,280(sp)
    80002834:	52fd                	li	t0,-1
    80002836:	f216                	sd	t0,288(sp)
    80002838:	064000ef          	jal	ra,8000289c <write_stap+0x60>

000000008000283c <write_stap>:
    8000283c:	7129                	addi	sp,sp,-320
    8000283e:	e406                	sd	ra,8(sp)
    80002840:	ec0e                	sd	gp,24(sp)
    80002842:	f012                	sd	tp,32(sp)
    80002844:	f416                	sd	t0,40(sp)
    80002846:	f81a                	sd	t1,48(sp)
    80002848:	fc1e                	sd	t2,56(sp)
    8000284a:	e0a2                	sd	s0,64(sp)
    8000284c:	e4a6                	sd	s1,72(sp)
    8000284e:	e8aa                	sd	a0,80(sp)
    80002850:	ecae                	sd	a1,88(sp)
    80002852:	f0b2                	sd	a2,96(sp)
    80002854:	f4b6                	sd	a3,104(sp)
    80002856:	f8ba                	sd	a4,112(sp)
    80002858:	fcbe                	sd	a5,120(sp)
    8000285a:	e142                	sd	a6,128(sp)
    8000285c:	e546                	sd	a7,136(sp)
    8000285e:	e94a                	sd	s2,144(sp)
    80002860:	ed4e                	sd	s3,152(sp)
    80002862:	f152                	sd	s4,160(sp)
    80002864:	f556                	sd	s5,168(sp)
    80002866:	f95a                	sd	s6,176(sp)
    80002868:	fd5e                	sd	s7,184(sp)
    8000286a:	e1e2                	sd	s8,192(sp)
    8000286c:	e5e6                	sd	s9,200(sp)
    8000286e:	e9ea                	sd	s10,208(sp)
    80002870:	edee                	sd	s11,216(sp)
    80002872:	f1f2                	sd	t3,224(sp)
    80002874:	f5f6                	sd	t4,232(sp)
    80002876:	f9fa                	sd	t5,240(sp)
    80002878:	fdfe                	sd	t6,248(sp)
    8000287a:	140012f3          	csrrw	t0,sscratch,zero
    8000287e:	10002473          	csrr	s0,sstatus
    80002882:	14102373          	csrr	t1,sepc
    80002886:	143023f3          	csrr	t2,stval
    8000288a:	14202e73          	csrr	t3,scause
    8000288e:	e816                	sd	t0,16(sp)
    80002890:	e222                	sd	s0,256(sp)
    80002892:	e61a                	sd	t1,264(sp)
    80002894:	ea1e                	sd	t2,272(sp)
    80002896:	ee72                	sd	t3,280(sp)
    80002898:	52fd                	li	t0,-1
    8000289a:	f216                	sd	t0,288(sp)
    8000289c:	850a                	mv	a0,sp
    8000289e:	12853303          	ld	t1,296(a0)
    800028a2:	18031073          	csrw	satp,t1
    800028a6:	12000073          	sfence.vma
    800028aa:	850a                	mv	a0,sp
    800028ac:	0c5010ef          	jal	ra,80004170 <handle_trap>
    800028b0:	850a                	mv	a0,sp
    800028b2:	10047413          	andi	s0,s0,256
    800028b6:	e401                	bnez	s0,800028be <start_user>
    800028b8:	6131                	addi	sp,sp,320
    800028ba:	14011073          	csrw	sscratch,sp

00000000800028be <start_user>:
    800028be:	10053283          	ld	t0,256(a0)
    800028c2:	10853303          	ld	t1,264(a0)
    800028c6:	10029073          	csrw	sstatus,t0
    800028ca:	14131073          	csrw	sepc,t1
    800028ce:	00853083          	ld	ra,8(a0)
    800028d2:	01053103          	ld	sp,16(a0)
    800028d6:	01853183          	ld	gp,24(a0)
    800028da:	02053203          	ld	tp,32(a0)
    800028de:	02853283          	ld	t0,40(a0)
    800028e2:	03053303          	ld	t1,48(a0)
    800028e6:	03853383          	ld	t2,56(a0)
    800028ea:	6120                	ld	s0,64(a0)
    800028ec:	6524                	ld	s1,72(a0)
    800028ee:	6d2c                	ld	a1,88(a0)
    800028f0:	7130                	ld	a2,96(a0)
    800028f2:	7534                	ld	a3,104(a0)
    800028f4:	7938                	ld	a4,112(a0)
    800028f6:	7d3c                	ld	a5,120(a0)
    800028f8:	08053803          	ld	a6,128(a0)
    800028fc:	08853883          	ld	a7,136(a0)
    80002900:	09053903          	ld	s2,144(a0)
    80002904:	09853983          	ld	s3,152(a0)
    80002908:	0a053a03          	ld	s4,160(a0)
    8000290c:	0a853a83          	ld	s5,168(a0)
    80002910:	0b053b03          	ld	s6,176(a0)
    80002914:	0b853b83          	ld	s7,184(a0)
    80002918:	0c053c03          	ld	s8,192(a0)
    8000291c:	0c853c83          	ld	s9,200(a0)
    80002920:	0d053d03          	ld	s10,208(a0)
    80002924:	0d853d83          	ld	s11,216(a0)
    80002928:	0e053e03          	ld	t3,224(a0)
    8000292c:	0e853e83          	ld	t4,232(a0)
    80002930:	0f053f03          	ld	t5,240(a0)
    80002934:	0f853f83          	ld	t6,248(a0)
    80002938:	6928                	ld	a0,80(a0)
    8000293a:	10200073          	sret

000000008000293e <forkrets>:
    8000293e:	10047413          	andi	s0,s0,256
    80002942:	fc35                	bnez	s0,800028be <start_user>
    80002944:	812a                	mv	sp,a0
    80002946:	18059073          	csrw	satp,a1
    8000294a:	12000073          	sfence.vma
    8000294e:	6131                	addi	sp,sp,320
    80002950:	14011073          	csrw	sscratch,sp
    80002954:	b7ad                	j	800028be <start_user>

0000000080002956 <default_init>:
    80002956:	00017797          	auipc	a5,0x17
    8000295a:	94278793          	addi	a5,a5,-1726 # 80019298 <free_area>
    8000295e:	e79c                	sd	a5,8(a5)
    80002960:	e39c                	sd	a5,0(a5)
    80002962:	0007a823          	sw	zero,16(a5)
    80002966:	8082                	ret

0000000080002968 <default_alloc_pages>:
    80002968:	00017617          	auipc	a2,0x17
    8000296c:	93060613          	addi	a2,a2,-1744 # 80019298 <free_area>
    80002970:	4a0c                	lw	a1,16(a2)
    80002972:	86aa                	mv	a3,a0
    80002974:	02059793          	slli	a5,a1,0x20
    80002978:	9381                	srli	a5,a5,0x20
    8000297a:	00a7eb63          	bltu	a5,a0,80002990 <default_alloc_pages+0x28>
    8000297e:	87b2                	mv	a5,a2
    80002980:	a029                	j	8000298a <default_alloc_pages+0x22>
    80002982:	ff87b703          	ld	a4,-8(a5)
    80002986:	00d77763          	bgeu	a4,a3,80002994 <default_alloc_pages+0x2c>
    8000298a:	679c                	ld	a5,8(a5)
    8000298c:	fec79be3          	bne	a5,a2,80002982 <default_alloc_pages+0x1a>
    80002990:	4501                	li	a0,0
    80002992:	8082                	ret
    80002994:	fe878513          	addi	a0,a5,-24
    80002998:	dd6d                	beqz	a0,80002992 <default_alloc_pages+0x2a>
    8000299a:	0007b803          	ld	a6,0(a5)
    8000299e:	0087b883          	ld	a7,8(a5)
    800029a2:	01183423          	sd	a7,8(a6)
    800029a6:	0108b023          	sd	a6,0(a7)
    800029aa:	02e6f363          	bgeu	a3,a4,800029d0 <default_alloc_pages+0x68>
    800029ae:	00269793          	slli	a5,a3,0x2
    800029b2:	97b6                	add	a5,a5,a3
    800029b4:	078e                	slli	a5,a5,0x3
    800029b6:	97aa                	add	a5,a5,a0
    800029b8:	8f15                	sub	a4,a4,a3
    800029ba:	eb98                	sd	a4,16(a5)
    800029bc:	01878713          	addi	a4,a5,24
    800029c0:	00e8b023          	sd	a4,0(a7)
    800029c4:	00e83423          	sd	a4,8(a6)
    800029c8:	0317b023          	sd	a7,32(a5)
    800029cc:	0107bc23          	sd	a6,24(a5)
    800029d0:	40d586bb          	subw	a3,a1,a3
    800029d4:	ca14                	sw	a3,16(a2)
    800029d6:	8082                	ret

00000000800029d8 <default_free_pages>:
    800029d8:	00259713          	slli	a4,a1,0x2
    800029dc:	972e                	add	a4,a4,a1
    800029de:	070e                	slli	a4,a4,0x3
    800029e0:	972a                	add	a4,a4,a0
    800029e2:	87aa                	mv	a5,a0
    800029e4:	00e50a63          	beq	a0,a4,800029f8 <default_free_pages+0x20>
    800029e8:	0007b423          	sd	zero,8(a5)
    800029ec:	0007b023          	sd	zero,0(a5)
    800029f0:	02878793          	addi	a5,a5,40
    800029f4:	fee79ae3          	bne	a5,a4,800029e8 <default_free_pages+0x10>
    800029f8:	00017697          	auipc	a3,0x17
    800029fc:	8a068693          	addi	a3,a3,-1888 # 80019298 <free_area>
    80002a00:	4a98                	lw	a4,16(a3)
    80002a02:	669c                	ld	a5,8(a3)
    80002a04:	e90c                	sd	a1,16(a0)
    80002a06:	9f2d                	addw	a4,a4,a1
    80002a08:	ca98                	sw	a4,16(a3)
    80002a0a:	01850613          	addi	a2,a0,24
    80002a0e:	0ad78763          	beq	a5,a3,80002abc <default_free_pages+0xe4>
    80002a12:	fe878713          	addi	a4,a5,-24
    80002a16:	0006b803          	ld	a6,0(a3)
    80002a1a:	4881                	li	a7,0
    80002a1c:	00e56a63          	bltu	a0,a4,80002a30 <default_free_pages+0x58>
    80002a20:	6798                	ld	a4,8(a5)
    80002a22:	04d70d63          	beq	a4,a3,80002a7c <default_free_pages+0xa4>
    80002a26:	87ba                	mv	a5,a4
    80002a28:	fe878713          	addi	a4,a5,-24
    80002a2c:	fee57ae3          	bgeu	a0,a4,80002a20 <default_free_pages+0x48>
    80002a30:	00088463          	beqz	a7,80002a38 <default_free_pages+0x60>
    80002a34:	0106b023          	sd	a6,0(a3)
    80002a38:	0007b803          	ld	a6,0(a5)
    80002a3c:	e390                	sd	a2,0(a5)
    80002a3e:	00c83423          	sd	a2,8(a6)
    80002a42:	f11c                	sd	a5,32(a0)
    80002a44:	01053c23          	sd	a6,24(a0)
    80002a48:	02d80163          	beq	a6,a3,80002a6a <default_free_pages+0x92>
    80002a4c:	ff883603          	ld	a2,-8(a6)
    80002a50:	fe880893          	addi	a7,a6,-24
    80002a54:	00261713          	slli	a4,a2,0x2
    80002a58:	9732                	add	a4,a4,a2
    80002a5a:	070e                	slli	a4,a4,0x3
    80002a5c:	9746                	add	a4,a4,a7
    80002a5e:	04e50263          	beq	a0,a4,80002aa2 <default_free_pages+0xca>
    80002a62:	00d78c63          	beq	a5,a3,80002a7a <default_free_pages+0xa2>
    80002a66:	fe878713          	addi	a4,a5,-24
    80002a6a:	6910                	ld	a2,16(a0)
    80002a6c:	00261693          	slli	a3,a2,0x2
    80002a70:	96b2                	add	a3,a3,a2
    80002a72:	068e                	slli	a3,a3,0x3
    80002a74:	96aa                	add	a3,a3,a0
    80002a76:	00d70d63          	beq	a4,a3,80002a90 <default_free_pages+0xb8>
    80002a7a:	8082                	ret
    80002a7c:	e790                	sd	a2,8(a5)
    80002a7e:	f114                	sd	a3,32(a0)
    80002a80:	6798                	ld	a4,8(a5)
    80002a82:	ed1c                	sd	a5,24(a0)
    80002a84:	8832                	mv	a6,a2
    80002a86:	02d70763          	beq	a4,a3,80002ab4 <default_free_pages+0xdc>
    80002a8a:	4885                	li	a7,1
    80002a8c:	87ba                	mv	a5,a4
    80002a8e:	bf69                	j	80002a28 <default_free_pages+0x50>
    80002a90:	ff87b703          	ld	a4,-8(a5)
    80002a94:	6394                	ld	a3,0(a5)
    80002a96:	679c                	ld	a5,8(a5)
    80002a98:	963a                	add	a2,a2,a4
    80002a9a:	e910                	sd	a2,16(a0)
    80002a9c:	e69c                	sd	a5,8(a3)
    80002a9e:	e394                	sd	a3,0(a5)
    80002aa0:	8082                	ret
    80002aa2:	95b2                	add	a1,a1,a2
    80002aa4:	feb83c23          	sd	a1,-8(a6)
    80002aa8:	00f83423          	sd	a5,8(a6)
    80002aac:	0107b023          	sd	a6,0(a5)
    80002ab0:	8546                	mv	a0,a7
    80002ab2:	bf45                	j	80002a62 <default_free_pages+0x8a>
    80002ab4:	883e                	mv	a6,a5
    80002ab6:	e290                	sd	a2,0(a3)
    80002ab8:	87b6                	mv	a5,a3
    80002aba:	bf49                	j	80002a4c <default_free_pages+0x74>
    80002abc:	e390                	sd	a2,0(a5)
    80002abe:	e790                	sd	a2,8(a5)
    80002ac0:	f11c                	sd	a5,32(a0)
    80002ac2:	ed1c                	sd	a5,24(a0)
    80002ac4:	8082                	ret

0000000080002ac6 <default_nr_free_pages>:
    80002ac6:	00016517          	auipc	a0,0x16
    80002aca:	7e256503          	lwu	a0,2018(a0) # 800192a8 <free_area+0x10>
    80002ace:	8082                	ret

0000000080002ad0 <basic_check>:
    80002ad0:	715d                	addi	sp,sp,-80
    80002ad2:	e0a2                	sd	s0,64(sp)
    80002ad4:	00016417          	auipc	s0,0x16
    80002ad8:	6ec40413          	addi	s0,s0,1772 # 800191c0 <pmm_manager>
    80002adc:	601c                	ld	a5,0(s0)
    80002ade:	e486                	sd	ra,72(sp)
    80002ae0:	fc26                	sd	s1,56(sp)
    80002ae2:	6f9c                	ld	a5,24(a5)
    80002ae4:	f84a                	sd	s2,48(sp)
    80002ae6:	f44e                	sd	s3,40(sp)
    80002ae8:	f052                	sd	s4,32(sp)
    80002aea:	ec56                	sd	s5,24(sp)
    80002aec:	e85a                	sd	s6,16(sp)
    80002aee:	e45e                	sd	s7,8(sp)
    80002af0:	4505                	li	a0,1
    80002af2:	9782                	jalr	a5
    80002af4:	1a050563          	beqz	a0,80002c9e <basic_check+0x1ce>
    80002af8:	601c                	ld	a5,0(s0)
    80002afa:	892a                	mv	s2,a0
    80002afc:	4505                	li	a0,1
    80002afe:	6f9c                	ld	a5,24(a5)
    80002b00:	9782                	jalr	a5
    80002b02:	89aa                	mv	s3,a0
    80002b04:	20050f63          	beqz	a0,80002d22 <basic_check+0x252>
    80002b08:	601c                	ld	a5,0(s0)
    80002b0a:	4505                	li	a0,1
    80002b0c:	6f9c                	ld	a5,24(a5)
    80002b0e:	9782                	jalr	a5
    80002b10:	8a2a                	mv	s4,a0
    80002b12:	14050563          	beqz	a0,80002c5c <basic_check+0x18c>
    80002b16:	11390463          	beq	s2,s3,80002c1e <basic_check+0x14e>
    80002b1a:	10a90263          	beq	s2,a0,80002c1e <basic_check+0x14e>
    80002b1e:	10a98063          	beq	s3,a0,80002c1e <basic_check+0x14e>
    80002b22:	00093783          	ld	a5,0(s2)
    80002b26:	12079063          	bnez	a5,80002c46 <basic_check+0x176>
    80002b2a:	0009b783          	ld	a5,0(s3)
    80002b2e:	10079c63          	bnez	a5,80002c46 <basic_check+0x176>
    80002b32:	611c                	ld	a5,0(a0)
    80002b34:	10079963          	bnez	a5,80002c46 <basic_check+0x176>
    80002b38:	601c                	ld	a5,0(s0)
    80002b3a:	00016497          	auipc	s1,0x16
    80002b3e:	75e48493          	addi	s1,s1,1886 # 80019298 <free_area>
    80002b42:	0004bb83          	ld	s7,0(s1)
    80002b46:	739c                	ld	a5,32(a5)
    80002b48:	0084bb03          	ld	s6,8(s1)
    80002b4c:	0104aa83          	lw	s5,16(s1)
    80002b50:	4585                	li	a1,1
    80002b52:	854a                	mv	a0,s2
    80002b54:	00016717          	auipc	a4,0x16
    80002b58:	74072a23          	sw	zero,1876(a4) # 800192a8 <free_area+0x10>
    80002b5c:	e484                	sd	s1,8(s1)
    80002b5e:	e084                	sd	s1,0(s1)
    80002b60:	9782                	jalr	a5
    80002b62:	601c                	ld	a5,0(s0)
    80002b64:	4585                	li	a1,1
    80002b66:	854e                	mv	a0,s3
    80002b68:	739c                	ld	a5,32(a5)
    80002b6a:	9782                	jalr	a5
    80002b6c:	601c                	ld	a5,0(s0)
    80002b6e:	4585                	li	a1,1
    80002b70:	8552                	mv	a0,s4
    80002b72:	739c                	ld	a5,32(a5)
    80002b74:	9782                	jalr	a5
    80002b76:	4898                	lw	a4,16(s1)
    80002b78:	478d                	li	a5,3
    80002b7a:	0ef71c63          	bne	a4,a5,80002c72 <basic_check+0x1a2>
    80002b7e:	601c                	ld	a5,0(s0)
    80002b80:	4505                	li	a0,1
    80002b82:	6f9c                	ld	a5,24(a5)
    80002b84:	9782                	jalr	a5
    80002b86:	892a                	mv	s2,a0
    80002b88:	1c050363          	beqz	a0,80002d4e <basic_check+0x27e>
    80002b8c:	601c                	ld	a5,0(s0)
    80002b8e:	4505                	li	a0,1
    80002b90:	6f9c                	ld	a5,24(a5)
    80002b92:	9782                	jalr	a5
    80002b94:	8a2a                	mv	s4,a0
    80002b96:	c96d                	beqz	a0,80002c88 <basic_check+0x1b8>
    80002b98:	601c                	ld	a5,0(s0)
    80002b9a:	4505                	li	a0,1
    80002b9c:	6f9c                	ld	a5,24(a5)
    80002b9e:	9782                	jalr	a5
    80002ba0:	89aa                	mv	s3,a0
    80002ba2:	18050b63          	beqz	a0,80002d38 <basic_check+0x268>
    80002ba6:	601c                	ld	a5,0(s0)
    80002ba8:	4505                	li	a0,1
    80002baa:	6f9c                	ld	a5,24(a5)
    80002bac:	9782                	jalr	a5
    80002bae:	10051e63          	bnez	a0,80002cca <basic_check+0x1fa>
    80002bb2:	601c                	ld	a5,0(s0)
    80002bb4:	4585                	li	a1,1
    80002bb6:	854a                	mv	a0,s2
    80002bb8:	739c                	ld	a5,32(a5)
    80002bba:	9782                	jalr	a5
    80002bbc:	649c                	ld	a5,8(s1)
    80002bbe:	12978c63          	beq	a5,s1,80002cf6 <basic_check+0x226>
    80002bc2:	601c                	ld	a5,0(s0)
    80002bc4:	4505                	li	a0,1
    80002bc6:	6f9c                	ld	a5,24(a5)
    80002bc8:	9782                	jalr	a5
    80002bca:	10a91b63          	bne	s2,a0,80002ce0 <basic_check+0x210>
    80002bce:	601c                	ld	a5,0(s0)
    80002bd0:	4505                	li	a0,1
    80002bd2:	6f9c                	ld	a5,24(a5)
    80002bd4:	9782                	jalr	a5
    80002bd6:	ed79                	bnez	a0,80002cb4 <basic_check+0x1e4>
    80002bd8:	489c                	lw	a5,16(s1)
    80002bda:	12079963          	bnez	a5,80002d0c <basic_check+0x23c>
    80002bde:	601c                	ld	a5,0(s0)
    80002be0:	854a                	mv	a0,s2
    80002be2:	0174b023          	sd	s7,0(s1)
    80002be6:	739c                	ld	a5,32(a5)
    80002be8:	0164b423          	sd	s6,8(s1)
    80002bec:	0154a823          	sw	s5,16(s1)
    80002bf0:	4585                	li	a1,1
    80002bf2:	9782                	jalr	a5
    80002bf4:	601c                	ld	a5,0(s0)
    80002bf6:	8552                	mv	a0,s4
    80002bf8:	4585                	li	a1,1
    80002bfa:	739c                	ld	a5,32(a5)
    80002bfc:	9782                	jalr	a5
    80002bfe:	601c                	ld	a5,0(s0)
    80002c00:	6406                	ld	s0,64(sp)
    80002c02:	60a6                	ld	ra,72(sp)
    80002c04:	74e2                	ld	s1,56(sp)
    80002c06:	7942                	ld	s2,48(sp)
    80002c08:	7a02                	ld	s4,32(sp)
    80002c0a:	6ae2                	ld	s5,24(sp)
    80002c0c:	6b42                	ld	s6,16(sp)
    80002c0e:	6ba2                	ld	s7,8(sp)
    80002c10:	0207b303          	ld	t1,32(a5)
    80002c14:	854e                	mv	a0,s3
    80002c16:	79a2                	ld	s3,40(sp)
    80002c18:	4585                	li	a1,1
    80002c1a:	6161                	addi	sp,sp,80
    80002c1c:	8302                	jr	t1
    80002c1e:	00005517          	auipc	a0,0x5
    80002c22:	4a250513          	addi	a0,a0,1186 # 800080c0 <illegal_insn_trap_table+0x184>
    80002c26:	00006697          	auipc	a3,0x6
    80002c2a:	8f268693          	addi	a3,a3,-1806 # 80008518 <illegal_insn_trap_table+0x5dc>
    80002c2e:	0a000613          	li	a2,160
    80002c32:	00006597          	auipc	a1,0x6
    80002c36:	89658593          	addi	a1,a1,-1898 # 800084c8 <illegal_insn_trap_table+0x58c>
    80002c3a:	7a9010ef          	jal	ra,80004be2 <printm>
    80002c3e:	6541                	lui	a0,0x10
    80002c40:	157d                	addi	a0,a0,-1
    80002c42:	010020ef          	jal	ra,80004c52 <poweroff>
    80002c46:	00005517          	auipc	a0,0x5
    80002c4a:	47a50513          	addi	a0,a0,1146 # 800080c0 <illegal_insn_trap_table+0x184>
    80002c4e:	00006697          	auipc	a3,0x6
    80002c52:	8f268693          	addi	a3,a3,-1806 # 80008540 <illegal_insn_trap_table+0x604>
    80002c56:	0a100613          	li	a2,161
    80002c5a:	bfe1                	j	80002c32 <basic_check+0x162>
    80002c5c:	00005517          	auipc	a0,0x5
    80002c60:	46450513          	addi	a0,a0,1124 # 800080c0 <illegal_insn_trap_table+0x184>
    80002c64:	00006697          	auipc	a3,0x6
    80002c68:	89468693          	addi	a3,a3,-1900 # 800084f8 <illegal_insn_trap_table+0x5bc>
    80002c6c:	09e00613          	li	a2,158
    80002c70:	b7c9                	j	80002c32 <basic_check+0x162>
    80002c72:	00005517          	auipc	a0,0x5
    80002c76:	44e50513          	addi	a0,a0,1102 # 800080c0 <illegal_insn_trap_table+0x184>
    80002c7a:	00006697          	auipc	a3,0x6
    80002c7e:	8f668693          	addi	a3,a3,-1802 # 80008570 <illegal_insn_trap_table+0x634>
    80002c82:	0ad00613          	li	a2,173
    80002c86:	b775                	j	80002c32 <basic_check+0x162>
    80002c88:	00005517          	auipc	a0,0x5
    80002c8c:	43850513          	addi	a0,a0,1080 # 800080c0 <illegal_insn_trap_table+0x184>
    80002c90:	00006697          	auipc	a3,0x6
    80002c94:	84868693          	addi	a3,a3,-1976 # 800084d8 <illegal_insn_trap_table+0x59c>
    80002c98:	0b000613          	li	a2,176
    80002c9c:	bf59                	j	80002c32 <basic_check+0x162>
    80002c9e:	00005517          	auipc	a0,0x5
    80002ca2:	42250513          	addi	a0,a0,1058 # 800080c0 <illegal_insn_trap_table+0x184>
    80002ca6:	00006697          	auipc	a3,0x6
    80002caa:	80268693          	addi	a3,a3,-2046 # 800084a8 <illegal_insn_trap_table+0x56c>
    80002cae:	09c00613          	li	a2,156
    80002cb2:	b741                	j	80002c32 <basic_check+0x162>
    80002cb4:	00005517          	auipc	a0,0x5
    80002cb8:	40c50513          	addi	a0,a0,1036 # 800080c0 <illegal_insn_trap_table+0x184>
    80002cbc:	00006697          	auipc	a3,0x6
    80002cc0:	8c468693          	addi	a3,a3,-1852 # 80008580 <illegal_insn_trap_table+0x644>
    80002cc4:	0ba00613          	li	a2,186
    80002cc8:	b7ad                	j	80002c32 <basic_check+0x162>
    80002cca:	00005517          	auipc	a0,0x5
    80002cce:	3f650513          	addi	a0,a0,1014 # 800080c0 <illegal_insn_trap_table+0x184>
    80002cd2:	00006697          	auipc	a3,0x6
    80002cd6:	8ae68693          	addi	a3,a3,-1874 # 80008580 <illegal_insn_trap_table+0x644>
    80002cda:	0b300613          	li	a2,179
    80002cde:	bf91                	j	80002c32 <basic_check+0x162>
    80002ce0:	00005517          	auipc	a0,0x5
    80002ce4:	3e050513          	addi	a0,a0,992 # 800080c0 <illegal_insn_trap_table+0x184>
    80002ce8:	00006697          	auipc	a3,0x6
    80002cec:	8c868693          	addi	a3,a3,-1848 # 800085b0 <illegal_insn_trap_table+0x674>
    80002cf0:	0b900613          	li	a2,185
    80002cf4:	bf3d                	j	80002c32 <basic_check+0x162>
    80002cf6:	00005517          	auipc	a0,0x5
    80002cfa:	3ca50513          	addi	a0,a0,970 # 800080c0 <illegal_insn_trap_table+0x184>
    80002cfe:	00006697          	auipc	a3,0x6
    80002d02:	89a68693          	addi	a3,a3,-1894 # 80008598 <illegal_insn_trap_table+0x65c>
    80002d06:	0b600613          	li	a2,182
    80002d0a:	b725                	j	80002c32 <basic_check+0x162>
    80002d0c:	00005517          	auipc	a0,0x5
    80002d10:	3b450513          	addi	a0,a0,948 # 800080c0 <illegal_insn_trap_table+0x184>
    80002d14:	00006697          	auipc	a3,0x6
    80002d18:	8bc68693          	addi	a3,a3,-1860 # 800085d0 <illegal_insn_trap_table+0x694>
    80002d1c:	0bc00613          	li	a2,188
    80002d20:	bf09                	j	80002c32 <basic_check+0x162>
    80002d22:	00005517          	auipc	a0,0x5
    80002d26:	39e50513          	addi	a0,a0,926 # 800080c0 <illegal_insn_trap_table+0x184>
    80002d2a:	00005697          	auipc	a3,0x5
    80002d2e:	7ae68693          	addi	a3,a3,1966 # 800084d8 <illegal_insn_trap_table+0x59c>
    80002d32:	09d00613          	li	a2,157
    80002d36:	bdf5                	j	80002c32 <basic_check+0x162>
    80002d38:	00005517          	auipc	a0,0x5
    80002d3c:	38850513          	addi	a0,a0,904 # 800080c0 <illegal_insn_trap_table+0x184>
    80002d40:	00005697          	auipc	a3,0x5
    80002d44:	7b868693          	addi	a3,a3,1976 # 800084f8 <illegal_insn_trap_table+0x5bc>
    80002d48:	0b100613          	li	a2,177
    80002d4c:	b5dd                	j	80002c32 <basic_check+0x162>
    80002d4e:	00005517          	auipc	a0,0x5
    80002d52:	37250513          	addi	a0,a0,882 # 800080c0 <illegal_insn_trap_table+0x184>
    80002d56:	00005697          	auipc	a3,0x5
    80002d5a:	75268693          	addi	a3,a3,1874 # 800084a8 <illegal_insn_trap_table+0x56c>
    80002d5e:	0af00613          	li	a2,175
    80002d62:	bdc1                	j	80002c32 <basic_check+0x162>

0000000080002d64 <default_init_memmap>:
    80002d64:	00259713          	slli	a4,a1,0x2
    80002d68:	972e                	add	a4,a4,a1
    80002d6a:	070e                	slli	a4,a4,0x3
    80002d6c:	972a                	add	a4,a4,a0
    80002d6e:	87aa                	mv	a5,a0
    80002d70:	00e50c63          	beq	a0,a4,80002d88 <default_init_memmap+0x24>
    80002d74:	0007b823          	sd	zero,16(a5)
    80002d78:	0007b423          	sd	zero,8(a5)
    80002d7c:	0007b023          	sd	zero,0(a5)
    80002d80:	02878793          	addi	a5,a5,40
    80002d84:	fee798e3          	bne	a5,a4,80002d74 <default_init_memmap+0x10>
    80002d88:	00016697          	auipc	a3,0x16
    80002d8c:	51068693          	addi	a3,a3,1296 # 80019298 <free_area>
    80002d90:	4a98                	lw	a4,16(a3)
    80002d92:	669c                	ld	a5,8(a3)
    80002d94:	e90c                	sd	a1,16(a0)
    80002d96:	9db9                	addw	a1,a1,a4
    80002d98:	ca8c                	sw	a1,16(a3)
    80002d9a:	01850613          	addi	a2,a0,24
    80002d9e:	04d78563          	beq	a5,a3,80002de8 <default_init_memmap+0x84>
    80002da2:	fe878713          	addi	a4,a5,-24
    80002da6:	628c                	ld	a1,0(a3)
    80002da8:	4801                	li	a6,0
    80002daa:	00e56a63          	bltu	a0,a4,80002dbe <default_init_memmap+0x5a>
    80002dae:	6798                	ld	a4,8(a5)
    80002db0:	02d70063          	beq	a4,a3,80002dd0 <default_init_memmap+0x6c>
    80002db4:	87ba                	mv	a5,a4
    80002db6:	fe878713          	addi	a4,a5,-24
    80002dba:	fee57ae3          	bgeu	a0,a4,80002dae <default_init_memmap+0x4a>
    80002dbe:	00080363          	beqz	a6,80002dc4 <default_init_memmap+0x60>
    80002dc2:	e28c                	sd	a1,0(a3)
    80002dc4:	6398                	ld	a4,0(a5)
    80002dc6:	e390                	sd	a2,0(a5)
    80002dc8:	e710                	sd	a2,8(a4)
    80002dca:	f11c                	sd	a5,32(a0)
    80002dcc:	ed18                	sd	a4,24(a0)
    80002dce:	8082                	ret
    80002dd0:	e790                	sd	a2,8(a5)
    80002dd2:	f114                	sd	a3,32(a0)
    80002dd4:	6798                	ld	a4,8(a5)
    80002dd6:	ed1c                	sd	a5,24(a0)
    80002dd8:	85b2                	mv	a1,a2
    80002dda:	00d70563          	beq	a4,a3,80002de4 <default_init_memmap+0x80>
    80002dde:	4805                	li	a6,1
    80002de0:	87ba                	mv	a5,a4
    80002de2:	bfd1                	j	80002db6 <default_init_memmap+0x52>
    80002de4:	e290                	sd	a2,0(a3)
    80002de6:	8082                	ret
    80002de8:	e390                	sd	a2,0(a5)
    80002dea:	e790                	sd	a2,8(a5)
    80002dec:	f11c                	sd	a5,32(a0)
    80002dee:	ed1c                	sd	a5,24(a0)
    80002df0:	8082                	ret

0000000080002df2 <pmm_init>:
    80002df2:	7179                	addi	sp,sp,-48
    80002df4:	f406                	sd	ra,40(sp)
    80002df6:	f022                	sd	s0,32(sp)
    80002df8:	ec26                	sd	s1,24(sp)
    80002dfa:	e84a                	sd	s2,16(sp)
    80002dfc:	e44e                	sd	s3,8(sp)
    80002dfe:	bb4fe0ef          	jal	ra,800011b2 <__page_alloc>
    80002e02:	00016997          	auipc	s3,0x16
    80002e06:	48e98993          	addi	s3,s3,1166 # 80019290 <first_free_paddr>
    80002e0a:	0009b783          	ld	a5,0(s3)
    80002e0e:	00016917          	auipc	s2,0x16
    80002e12:	46a90913          	addi	s2,s2,1130 # 80019278 <nbase>
    80002e16:	00016417          	auipc	s0,0x16
    80002e1a:	3aa40413          	addi	s0,s0,938 # 800191c0 <pmm_manager>
    80002e1e:	17fd                	addi	a5,a5,-1
    80002e20:	83b1                	srli	a5,a5,0xc
    80002e22:	0785                	addi	a5,a5,1
    80002e24:	07b2                	slli	a5,a5,0xc
    80002e26:	83b1                	srli	a5,a5,0xc
    80002e28:	00016497          	auipc	s1,0x16
    80002e2c:	48848493          	addi	s1,s1,1160 # 800192b0 <pages>
    80002e30:	00f93023          	sd	a5,0(s2)
    80002e34:	00004797          	auipc	a5,0x4
    80002e38:	7bc78793          	addi	a5,a5,1980 # 800075f0 <default_pmm_manager>
    80002e3c:	e088                	sd	a0,0(s1)
    80002e3e:	e01c                	sd	a5,0(s0)
    80002e40:	b17ff0ef          	jal	ra,80002956 <default_init>
    80002e44:	0009b783          	ld	a5,0(s3)
    80002e48:	00093503          	ld	a0,0(s2)
    80002e4c:	6014                	ld	a3,0(s0)
    80002e4e:	83b1                	srli	a5,a5,0xc
    80002e50:	8f89                	sub	a5,a5,a0
    80002e52:	00279713          	slli	a4,a5,0x2
    80002e56:	6088                	ld	a0,0(s1)
    80002e58:	97ba                	add	a5,a5,a4
    80002e5a:	6a98                	ld	a4,16(a3)
    80002e5c:	078e                	slli	a5,a5,0x3
    80002e5e:	00016597          	auipc	a1,0x16
    80002e62:	4825b583          	ld	a1,1154(a1) # 800192e0 <mem_size>
    80002e66:	953e                	add	a0,a0,a5
    80002e68:	81b1                	srli	a1,a1,0xc
    80002e6a:	9702                	jalr	a4
    80002e6c:	601c                	ld	a5,0(s0)
    80002e6e:	7b9c                	ld	a5,48(a5)
    80002e70:	9782                	jalr	a5
    80002e72:	70a2                	ld	ra,40(sp)
    80002e74:	7402                	ld	s0,32(sp)
    80002e76:	64e2                	ld	s1,24(sp)
    80002e78:	6942                	ld	s2,16(sp)
    80002e7a:	69a2                	ld	s3,8(sp)
    80002e7c:	4501                	li	a0,0
    80002e7e:	6145                	addi	sp,sp,48
    80002e80:	8082                	ret

0000000080002e82 <pk_default_pmm_alloc>:
    80002e82:	4501                	li	a0,0
    80002e84:	8082                	ret

0000000080002e86 <forkret>:
    80002e86:	00016517          	auipc	a0,0x16
    80002e8a:	1ca53503          	ld	a0,458(a0) # 80019050 <currentproc>
    80002e8e:	5110                	lw	a2,32(a0)
    80002e90:	6689                	lui	a3,0x2
    80002e92:	16f9                	addi	a3,a3,-2
    80002e94:	fff6059b          	addiw	a1,a2,-1
    80002e98:	0006071b          	sext.w	a4,a2
    80002e9c:	4781                	li	a5,0
    80002e9e:	02b6e963          	bltu	a3,a1,80002ed0 <forkret+0x4a>
    80002ea2:	9e3707b7          	lui	a5,0x9e370
    80002ea6:	2785                	addiw	a5,a5,1
    80002ea8:	02f7073b          	mulw	a4,a4,a5
    80002eac:	00009797          	auipc	a5,0x9
    80002eb0:	5a478793          	addi	a5,a5,1444 # 8000c450 <hash_list>
    80002eb4:	0167571b          	srliw	a4,a4,0x16
    80002eb8:	0712                	slli	a4,a4,0x4
    80002eba:	973e                	add	a4,a4,a5
    80002ebc:	87ba                	mv	a5,a4
    80002ebe:	a029                	j	80002ec8 <forkret+0x42>
    80002ec0:	f107a683          	lw	a3,-240(a5)
    80002ec4:	02c68d63          	beq	a3,a2,80002efe <forkret+0x78>
    80002ec8:	679c                	ld	a5,8(a5)
    80002eca:	fef71be3          	bne	a4,a5,80002ec0 <forkret+0x3a>
    80002ece:	4781                	li	a5,0
    80002ed0:	7fdc                	ld	a5,184(a5)
    80002ed2:	14079073          	csrw	sscratch,a5
    80002ed6:	000467b7          	lui	a5,0x46
    80002eda:	1007a7f3          	csrrs	a5,sstatus,a5
    80002ede:	100027f3          	csrr	a5,sstatus
    80002ee2:	616c                	ld	a1,192(a0)
    80002ee4:	7d48                	ld	a0,184(a0)
    80002ee6:	edd7f793          	andi	a5,a5,-291
    80002eea:	0207e793          	ori	a5,a5,32
    80002eee:	10f53023          	sd	a5,256(a0)
    80002ef2:	57fd                	li	a5,-1
    80002ef4:	81b1                	srli	a1,a1,0xc
    80002ef6:	17fe                	slli	a5,a5,0x3f
    80002ef8:	8ddd                	or	a1,a1,a5
    80002efa:	a45ff06f          	j	8000293e <forkrets>
    80002efe:	ef078793          	addi	a5,a5,-272 # 45ef0 <_ftext-0x7ffba110>
    80002f02:	b7f9                	j	80002ed0 <forkret+0x4a>

0000000080002f04 <hash32>:
    80002f04:	9e3707b7          	lui	a5,0x9e370
    80002f08:	2785                	addiw	a5,a5,1
    80002f0a:	02a7853b          	mulw	a0,a5,a0
    80002f0e:	02000793          	li	a5,32
    80002f12:	9f8d                	subw	a5,a5,a1
    80002f14:	00f5553b          	srlw	a0,a0,a5
    80002f18:	8082                	ret

0000000080002f1a <proc_pagetable>:
    80002f1a:	1101                	addi	sp,sp,-32
    80002f1c:	ec06                	sd	ra,24(sp)
    80002f1e:	e822                	sd	s0,16(sp)
    80002f20:	e426                	sd	s1,8(sp)
    80002f22:	e04a                	sd	s2,0(sp)
    80002f24:	a8efe0ef          	jal	ra,800011b2 <__page_alloc>
    80002f28:	842a                	mv	s0,a0
    80002f2a:	a88fe0ef          	jal	ra,800011b2 <__page_alloc>
    80002f2e:	4585                	li	a1,1
    80002f30:	05fe                	slli	a1,a1,0x1f
    80002f32:	00016797          	auipc	a5,0x16
    80002f36:	35e7b783          	ld	a5,862(a5) # 80019290 <first_free_paddr>
    80002f3a:	80000637          	lui	a2,0x80000
    80002f3e:	8722                	mv	a4,s0
    80002f40:	963e                	add	a2,a2,a5
    80002f42:	892a                	mv	s2,a0
    80002f44:	4695                	li	a3,5
    80002f46:	852e                	mv	a0,a1
    80002f48:	8e6ff0ef          	jal	ra,8000202e <__map_kernel_range_pgtbl>
    80002f4c:	00016797          	auipc	a5,0x16
    80002f50:	2d47b783          	ld	a5,724(a5) # 80019220 <current+0x50>
    80002f54:	4585                	li	a1,1
    80002f56:	451d                	li	a0,7
    80002f58:	74fd                	lui	s1,0xfffff
    80002f5a:	94be                	add	s1,s1,a5
    80002f5c:	ccafe0ef          	jal	ra,80001426 <prot_to_type>
    80002f60:	0005071b          	sext.w	a4,a0
    80002f64:	86ca                	mv	a3,s2
    80002f66:	85a6                	mv	a1,s1
    80002f68:	8522                	mv	a0,s0
    80002f6a:	6605                	lui	a2,0x1
    80002f6c:	9ceff0ef          	jal	ra,8000213a <mappages>
    80002f70:	60e2                	ld	ra,24(sp)
    80002f72:	8522                	mv	a0,s0
    80002f74:	6442                	ld	s0,16(sp)
    80002f76:	64a2                	ld	s1,8(sp)
    80002f78:	6902                	ld	s2,0(sp)
    80002f7a:	6105                	addi	sp,sp,32
    80002f7c:	8082                	ret

0000000080002f7e <alloc_proc>:
    80002f7e:	1141                	addi	sp,sp,-16
    80002f80:	e022                	sd	s0,0(sp)
    80002f82:	e406                	sd	ra,8(sp)
    80002f84:	a2efe0ef          	jal	ra,800011b2 <__page_alloc>
    80002f88:	842a                	mv	s0,a0
    80002f8a:	e511                	bnez	a0,80002f96 <alloc_proc+0x18>
    80002f8c:	60a2                	ld	ra,8(sp)
    80002f8e:	8522                	mv	a0,s0
    80002f90:	6402                	ld	s0,0(sp)
    80002f92:	0141                	addi	sp,sp,16
    80002f94:	8082                	ret
    80002f96:	57fd                	li	a5,-1
    80002f98:	9381                	srli	a5,a5,0x20
    80002f9a:	f11c                	sd	a5,32(a0)
    80002f9c:	07000613          	li	a2,112
    80002fa0:	4581                	li	a1,0
    80002fa2:	00052e23          	sw	zero,28(a0)
    80002fa6:	02053823          	sd	zero,48(a0)
    80002faa:	02052c23          	sw	zero,56(a0)
    80002fae:	04053023          	sd	zero,64(a0)
    80002fb2:	04850513          	addi	a0,a0,72
    80002fb6:	438040ef          	jal	ra,800073ee <memset>
    80002fba:	0a043c23          	sd	zero,184(s0)
    80002fbe:	f5dff0ef          	jal	ra,80002f1a <proc_pagetable>
    80002fc2:	0c040623          	sb	zero,204(s0)
    80002fc6:	0c0406a3          	sb	zero,205(s0)
    80002fca:	0c040723          	sb	zero,206(s0)
    80002fce:	0c0407a3          	sb	zero,207(s0)
    80002fd2:	0c040823          	sb	zero,208(s0)
    80002fd6:	0c0408a3          	sb	zero,209(s0)
    80002fda:	0c040923          	sb	zero,210(s0)
    80002fde:	0c0409a3          	sb	zero,211(s0)
    80002fe2:	0c040a23          	sb	zero,212(s0)
    80002fe6:	0c040aa3          	sb	zero,213(s0)
    80002fea:	0c040b23          	sb	zero,214(s0)
    80002fee:	0c040ba3          	sb	zero,215(s0)
    80002ff2:	0c040c23          	sb	zero,216(s0)
    80002ff6:	0c040ca3          	sb	zero,217(s0)
    80002ffa:	0c040d23          	sb	zero,218(s0)
    80002ffe:	e068                	sd	a0,192(s0)
    80003000:	60a2                	ld	ra,8(sp)
    80003002:	0c042423          	sw	zero,200(s0)
    80003006:	0e042823          	sw	zero,240(s0)
    8000300a:	10043023          	sd	zero,256(s0)
    8000300e:	10043423          	sd	zero,264(s0)
    80003012:	0e043c23          	sd	zero,248(s0)
    80003016:	00043823          	sd	zero,16(s0)
    8000301a:	e400                	sd	s0,8(s0)
    8000301c:	e000                	sd	s0,0(s0)
    8000301e:	00042c23          	sw	zero,24(s0)
    80003022:	8522                	mv	a0,s0
    80003024:	6402                	ld	s0,0(sp)
    80003026:	0141                	addi	sp,sp,16
    80003028:	8082                	ret

000000008000302a <set_proc_name>:
    8000302a:	1141                	addi	sp,sp,-16
    8000302c:	0cc50793          	addi	a5,a0,204
    80003030:	e022                	sd	s0,0(sp)
    80003032:	4641                	li	a2,16
    80003034:	842e                	mv	s0,a1
    80003036:	853e                	mv	a0,a5
    80003038:	4581                	li	a1,0
    8000303a:	e406                	sd	ra,8(sp)
    8000303c:	3b2040ef          	jal	ra,800073ee <memset>
    80003040:	85a2                	mv	a1,s0
    80003042:	6402                	ld	s0,0(sp)
    80003044:	60a2                	ld	ra,8(sp)
    80003046:	463d                	li	a2,15
    80003048:	0141                	addi	sp,sp,16
    8000304a:	3540406f          	j	8000739e <memcpy>

000000008000304e <get_proc_name>:
    8000304e:	00009797          	auipc	a5,0x9
    80003052:	3f278793          	addi	a5,a5,1010 # 8000c440 <name.3572>
    80003056:	0cc50593          	addi	a1,a0,204
    8000305a:	463d                	li	a2,15
    8000305c:	853e                	mv	a0,a5
    8000305e:	000787a3          	sb	zero,15(a5)
    80003062:	33c0406f          	j	8000739e <memcpy>

0000000080003066 <proc_run>:
    80003066:	00016717          	auipc	a4,0x16
    8000306a:	fea70713          	addi	a4,a4,-22 # 80019050 <currentproc>
    8000306e:	6314                	ld	a3,0(a4)
    80003070:	87aa                	mv	a5,a0
    80003072:	00a68963          	beq	a3,a0,80003084 <proc_run+0x1e>
    80003076:	04850593          	addi	a1,a0,72
    8000307a:	04868513          	addi	a0,a3,72 # 2048 <_ftext-0x7fffdfb8>
    8000307e:	e31c                	sd	a5,0(a4)
    80003080:	2090006f          	j	80003a88 <switch_to>
    80003084:	8082                	ret

0000000080003086 <find_proc>:
    80003086:	6709                	lui	a4,0x2
    80003088:	fff5069b          	addiw	a3,a0,-1
    8000308c:	1779                	addi	a4,a4,-2
    8000308e:	0005079b          	sext.w	a5,a0
    80003092:	02d76863          	bltu	a4,a3,800030c2 <find_proc+0x3c>
    80003096:	9e370737          	lui	a4,0x9e370
    8000309a:	2705                	addiw	a4,a4,1
    8000309c:	02e7873b          	mulw	a4,a5,a4
    800030a0:	00009797          	auipc	a5,0x9
    800030a4:	3b078793          	addi	a5,a5,944 # 8000c450 <hash_list>
    800030a8:	0167571b          	srliw	a4,a4,0x16
    800030ac:	0712                	slli	a4,a4,0x4
    800030ae:	973e                	add	a4,a4,a5
    800030b0:	87ba                	mv	a5,a4
    800030b2:	a029                	j	800030bc <find_proc+0x36>
    800030b4:	f107a683          	lw	a3,-240(a5)
    800030b8:	00a68763          	beq	a3,a0,800030c6 <find_proc+0x40>
    800030bc:	679c                	ld	a5,8(a5)
    800030be:	fef71be3          	bne	a4,a5,800030b4 <find_proc+0x2e>
    800030c2:	4501                	li	a0,0
    800030c4:	8082                	ret
    800030c6:	ef078513          	addi	a0,a5,-272
    800030ca:	8082                	ret

00000000800030cc <do_fork>:
    800030cc:	7139                	addi	sp,sp,-64
    800030ce:	e852                	sd	s4,16(sp)
    800030d0:	fc06                	sd	ra,56(sp)
    800030d2:	f822                	sd	s0,48(sp)
    800030d4:	f426                	sd	s1,40(sp)
    800030d6:	f04a                	sd	s2,32(sp)
    800030d8:	ec4e                	sd	s3,24(sp)
    800030da:	e456                	sd	s5,8(sp)
    800030dc:	00016797          	auipc	a5,0x16
    800030e0:	f6c7a783          	lw	a5,-148(a5) # 80019048 <nr_process>
    800030e4:	6a05                	lui	s4,0x1
    800030e6:	1f47d663          	bge	a5,s4,800032d2 <do_fork+0x206>
    800030ea:	84ae                	mv	s1,a1
    800030ec:	89b2                	mv	s3,a2
    800030ee:	e91ff0ef          	jal	ra,80002f7e <alloc_proc>
    800030f2:	842a                	mv	s0,a0
    800030f4:	1e050363          	beqz	a0,800032da <do_fork+0x20e>
    800030f8:	00016797          	auipc	a5,0x16
    800030fc:	f587b783          	ld	a5,-168(a5) # 80019050 <currentproc>
    80003100:	0f07a703          	lw	a4,240(a5)
    80003104:	e13c                	sd	a5,64(a0)
    80003106:	1e071263          	bnez	a4,800032ea <do_fork+0x21e>
    8000310a:	8a8fe0ef          	jal	ra,800011b2 <__page_alloc>
    8000310e:	0c043a83          	ld	s5,192(s0)
    80003112:	892a                	mv	s2,a0
    80003114:	4581                	li	a1,0
    80003116:	f808                	sd	a0,48(s0)
    80003118:	451d                	li	a0,7
    8000311a:	b0cfe0ef          	jal	ra,80001426 <prot_to_type>
    8000311e:	0005071b          	sext.w	a4,a0
    80003122:	86ca                	mv	a3,s2
    80003124:	6605                	lui	a2,0x1
    80003126:	85ca                	mv	a1,s2
    80003128:	8556                	mv	a0,s5
    8000312a:	810ff0ef          	jal	ra,8000213a <mappages>
    8000312e:	1a054863          	bltz	a0,800032de <do_fork+0x212>
    80003132:	603c                	ld	a5,64(s0)
    80003134:	606c                	ld	a1,192(s0)
    80003136:	63e8                	ld	a0,192(a5)
    80003138:	866ff0ef          	jal	ra,8000219e <vmcopy>
    8000313c:	7808                	ld	a0,48(s0)
    8000313e:	ed0a0793          	addi	a5,s4,-304 # ed0 <_ftext-0x7ffff130>
    80003142:	864e                	mv	a2,s3
    80003144:	97aa                	add	a5,a5,a0
    80003146:	fc5c                	sd	a5,184(s0)
    80003148:	873e                	mv	a4,a5
    8000314a:	12098313          	addi	t1,s3,288
    8000314e:	00063883          	ld	a7,0(a2) # 1000 <_ftext-0x7ffff000>
    80003152:	00863803          	ld	a6,8(a2)
    80003156:	6a0c                	ld	a1,16(a2)
    80003158:	6e14                	ld	a3,24(a2)
    8000315a:	01173023          	sd	a7,0(a4) # ffffffff9e370000 <_end+0xffffffff1e356000>
    8000315e:	01073423          	sd	a6,8(a4)
    80003162:	eb0c                	sd	a1,16(a4)
    80003164:	ef14                	sd	a3,24(a4)
    80003166:	02060613          	addi	a2,a2,32
    8000316a:	02070713          	addi	a4,a4,32
    8000316e:	fe6610e3          	bne	a2,t1,8000314e <do_fork+0x82>
    80003172:	620c                	ld	a1,0(a2)
    80003174:	6610                	ld	a2,8(a2)
    80003176:	00016697          	auipc	a3,0x16
    8000317a:	1826b683          	ld	a3,386(a3) # 800192f8 <root_page_table>
    8000317e:	e30c                	sd	a1,0(a4)
    80003180:	e710                	sd	a2,8(a4)
    80003182:	577d                	li	a4,-1
    80003184:	82b1                	srli	a3,a3,0xc
    80003186:	177e                	slli	a4,a4,0x3f
    80003188:	8f55                	or	a4,a4,a3
    8000318a:	12e7b423          	sd	a4,296(a5)
    8000318e:	0407b823          	sd	zero,80(a5)
    80003192:	85a6                	mv	a1,s1
    80003194:	0e048e63          	beqz	s1,80003290 <do_fork+0x1c4>
    80003198:	eb8c                	sd	a1,16(a5)
    8000319a:	00000717          	auipc	a4,0x0
    8000319e:	cec70713          	addi	a4,a4,-788 # 80002e86 <forkret>
    800031a2:	e438                	sd	a4,72(s0)
    800031a4:	e83c                	sd	a5,80(s0)
    800031a6:	100027f3          	csrr	a5,sstatus
    800031aa:	8b89                	andi	a5,a5,2
    800031ac:	4f01                	li	t5,0
    800031ae:	10079163          	bnez	a5,800032b0 <do_fork+0x1e4>
    800031b2:	00008517          	auipc	a0,0x8
    800031b6:	31250513          	addi	a0,a0,786 # 8000b4c4 <last_pid.3580>
    800031ba:	411c                	lw	a5,0(a0)
    800031bc:	6689                	lui	a3,0x2
    800031be:	0017871b          	addiw	a4,a5,1
    800031c2:	c118                	sw	a4,0(a0)
    800031c4:	06d75063          	bge	a4,a3,80003224 <do_fork+0x158>
    800031c8:	00008317          	auipc	t1,0x8
    800031cc:	2f830313          	addi	t1,t1,760 # 8000b4c0 <next_safe.3579>
    800031d0:	00032783          	lw	a5,0(t1)
    800031d4:	04f75f63          	bge	a4,a5,80003232 <do_fork+0x166>
    800031d8:	9e3707b7          	lui	a5,0x9e370
    800031dc:	2785                	addiw	a5,a5,1
    800031de:	02f707bb          	mulw	a5,a4,a5
    800031e2:	00009697          	auipc	a3,0x9
    800031e6:	26e68693          	addi	a3,a3,622 # 8000c450 <hash_list>
    800031ea:	d018                	sw	a4,32(s0)
    800031ec:	11040713          	addi	a4,s0,272
    800031f0:	0167d79b          	srliw	a5,a5,0x16
    800031f4:	0792                	slli	a5,a5,0x4
    800031f6:	97b6                	add	a5,a5,a3
    800031f8:	6794                	ld	a3,8(a5)
    800031fa:	e298                	sd	a4,0(a3)
    800031fc:	e798                	sd	a4,8(a5)
    800031fe:	10d43c23          	sd	a3,280(s0)
    80003202:	10f43823          	sd	a5,272(s0)
    80003206:	0a0f1963          	bnez	t5,800032b8 <do_fork+0x1ec>
    8000320a:	8522                	mv	a0,s0
    8000320c:	5be000ef          	jal	ra,800037ca <wakeup_proc>
    80003210:	5008                	lw	a0,32(s0)
    80003212:	70e2                	ld	ra,56(sp)
    80003214:	7442                	ld	s0,48(sp)
    80003216:	74a2                	ld	s1,40(sp)
    80003218:	7902                	ld	s2,32(sp)
    8000321a:	69e2                	ld	s3,24(sp)
    8000321c:	6a42                	ld	s4,16(sp)
    8000321e:	6aa2                	ld	s5,8(sp)
    80003220:	6121                	addi	sp,sp,64
    80003222:	8082                	ret
    80003224:	4785                	li	a5,1
    80003226:	c11c                	sw	a5,0(a0)
    80003228:	4705                	li	a4,1
    8000322a:	00008317          	auipc	t1,0x8
    8000322e:	29630313          	addi	t1,t1,662 # 8000b4c0 <next_safe.3579>
    80003232:	00016897          	auipc	a7,0x16
    80003236:	08688893          	addi	a7,a7,134 # 800192b8 <proc_list>
    8000323a:	0088be03          	ld	t3,8(a7)
    8000323e:	6789                	lui	a5,0x2
    80003240:	00f32023          	sw	a5,0(t1)
    80003244:	4801                	li	a6,0
    80003246:	87ba                	mv	a5,a4
    80003248:	6f89                	lui	t6,0x2
    8000324a:	071e0f63          	beq	t3,a7,800032c8 <do_fork+0x1fc>
    8000324e:	8ec2                	mv	t4,a6
    80003250:	8672                	mv	a2,t3
    80003252:	6589                	lui	a1,0x2
    80003254:	a811                	j	80003268 <do_fork+0x19c>
    80003256:	00d7d663          	bge	a5,a3,80003262 <do_fork+0x196>
    8000325a:	00b6d463          	bge	a3,a1,80003262 <do_fork+0x196>
    8000325e:	85b6                	mv	a1,a3
    80003260:	4e85                	li	t4,1
    80003262:	6610                	ld	a2,8(a2)
    80003264:	01160d63          	beq	a2,a7,8000327e <do_fork+0x1b2>
    80003268:	f4062683          	lw	a3,-192(a2)
    8000326c:	fed795e3          	bne	a5,a3,80003256 <do_fork+0x18a>
    80003270:	2785                	addiw	a5,a5,1
    80003272:	04b7d663          	bge	a5,a1,800032be <do_fork+0x1f2>
    80003276:	6610                	ld	a2,8(a2)
    80003278:	4805                	li	a6,1
    8000327a:	ff1617e3          	bne	a2,a7,80003268 <do_fork+0x19c>
    8000327e:	00080463          	beqz	a6,80003286 <do_fork+0x1ba>
    80003282:	c11c                	sw	a5,0(a0)
    80003284:	873e                	mv	a4,a5
    80003286:	f40e89e3          	beqz	t4,800031d8 <do_fork+0x10c>
    8000328a:	00b32023          	sw	a1,0(t1)
    8000328e:	b7a9                	j	800031d8 <do_fork+0x10c>
    80003290:	6585                	lui	a1,0x1
    80003292:	ecc58593          	addi	a1,a1,-308 # ecc <_ftext-0x7ffff134>
    80003296:	95aa                	add	a1,a1,a0
    80003298:	eb8c                	sd	a1,16(a5)
    8000329a:	00000717          	auipc	a4,0x0
    8000329e:	bec70713          	addi	a4,a4,-1044 # 80002e86 <forkret>
    800032a2:	e438                	sd	a4,72(s0)
    800032a4:	e83c                	sd	a5,80(s0)
    800032a6:	100027f3          	csrr	a5,sstatus
    800032aa:	8b89                	andi	a5,a5,2
    800032ac:	4f01                	li	t5,0
    800032ae:	d391                	beqz	a5,800031b2 <do_fork+0xe6>
    800032b0:	049000ef          	jal	ra,80003af8 <intr_disable>
    800032b4:	4f05                	li	t5,1
    800032b6:	bdf5                	j	800031b2 <do_fork+0xe6>
    800032b8:	03b000ef          	jal	ra,80003af2 <intr_enable>
    800032bc:	b7b9                	j	8000320a <do_fork+0x13e>
    800032be:	01f7c363          	blt	a5,t6,800032c4 <do_fork+0x1f8>
    800032c2:	4785                	li	a5,1
    800032c4:	4805                	li	a6,1
    800032c6:	b751                	j	8000324a <do_fork+0x17e>
    800032c8:	00080763          	beqz	a6,800032d6 <do_fork+0x20a>
    800032cc:	c11c                	sw	a5,0(a0)
    800032ce:	873e                	mv	a4,a5
    800032d0:	b721                	j	800031d8 <do_fork+0x10c>
    800032d2:	556d                	li	a0,-5
    800032d4:	bf3d                	j	80003212 <do_fork+0x146>
    800032d6:	4118                	lw	a4,0(a0)
    800032d8:	b701                	j	800031d8 <do_fork+0x10c>
    800032da:	5571                	li	a0,-4
    800032dc:	bf1d                	j	80003212 <do_fork+0x146>
    800032de:	00005517          	auipc	a0,0x5
    800032e2:	34a50513          	addi	a0,a0,842 # 80008628 <illegal_insn_trap_table+0x6ec>
    800032e6:	e95fd0ef          	jal	ra,8000117a <do_panic>
    800032ea:	00005517          	auipc	a0,0x5
    800032ee:	dd650513          	addi	a0,a0,-554 # 800080c0 <illegal_insn_trap_table+0x184>
    800032f2:	00005697          	auipc	a3,0x5
    800032f6:	30668693          	addi	a3,a3,774 # 800085f8 <illegal_insn_trap_table+0x6bc>
    800032fa:	15800613          	li	a2,344
    800032fe:	00005597          	auipc	a1,0x5
    80003302:	31a58593          	addi	a1,a1,794 # 80008618 <illegal_insn_trap_table+0x6dc>
    80003306:	0dd010ef          	jal	ra,80004be2 <printm>
    8000330a:	6541                	lui	a0,0x10
    8000330c:	157d                	addi	a0,a0,-1
    8000330e:	145010ef          	jal	ra,80004c52 <poweroff>

0000000080003312 <kernel_thread>:
    80003312:	714d                	addi	sp,sp,-336
    80003314:	e2a2                	sd	s0,320(sp)
    80003316:	fe26                	sd	s1,312(sp)
    80003318:	fa4a                	sd	s2,304(sp)
    8000331a:	84ae                	mv	s1,a1
    8000331c:	892a                	mv	s2,a0
    8000331e:	8432                	mv	s0,a2
    80003320:	4581                	li	a1,0
    80003322:	13000613          	li	a2,304
    80003326:	850a                	mv	a0,sp
    80003328:	e686                	sd	ra,328(sp)
    8000332a:	0c4040ef          	jal	ra,800073ee <memset>
    8000332e:	e0ca                	sd	s2,64(sp)
    80003330:	e4a6                	sd	s1,72(sp)
    80003332:	100027f3          	csrr	a5,sstatus
    80003336:	edd7f793          	andi	a5,a5,-291
    8000333a:	1207e793          	ori	a5,a5,288
    8000333e:	e23e                	sd	a5,256(sp)
    80003340:	860a                	mv	a2,sp
    80003342:	10046513          	ori	a0,s0,256
    80003346:	00000797          	auipc	a5,0x0
    8000334a:	73a78793          	addi	a5,a5,1850 # 80003a80 <kernel_thread_entry>
    8000334e:	4581                	li	a1,0
    80003350:	e63e                	sd	a5,264(sp)
    80003352:	d7bff0ef          	jal	ra,800030cc <do_fork>
    80003356:	60b6                	ld	ra,328(sp)
    80003358:	6416                	ld	s0,320(sp)
    8000335a:	74f2                	ld	s1,312(sp)
    8000335c:	7952                	ld	s2,304(sp)
    8000335e:	6171                	addi	sp,sp,336
    80003360:	8082                	ret

0000000080003362 <proc_init>:
    80003362:	1141                	addi	sp,sp,-16
    80003364:	00016797          	auipc	a5,0x16
    80003368:	f5478793          	addi	a5,a5,-172 # 800192b8 <proc_list>
    8000336c:	e406                	sd	ra,8(sp)
    8000336e:	e022                	sd	s0,0(sp)
    80003370:	e79c                	sd	a5,8(a5)
    80003372:	e39c                	sd	a5,0(a5)
    80003374:	0000d717          	auipc	a4,0xd
    80003378:	0dc70713          	addi	a4,a4,220 # 80010450 <timer_list>
    8000337c:	00009797          	auipc	a5,0x9
    80003380:	0d478793          	addi	a5,a5,212 # 8000c450 <hash_list>
    80003384:	e79c                	sd	a5,8(a5)
    80003386:	e39c                	sd	a5,0(a5)
    80003388:	07c1                	addi	a5,a5,16
    8000338a:	fee79de3          	bne	a5,a4,80003384 <proc_init+0x22>
    8000338e:	bf1ff0ef          	jal	ra,80002f7e <alloc_proc>
    80003392:	00016417          	auipc	s0,0x16
    80003396:	cce40413          	addi	s0,s0,-818 # 80019060 <idleproc>
    8000339a:	e008                	sd	a0,0(s0)
    8000339c:	c939                	beqz	a0,800033f2 <proc_init+0x90>
    8000339e:	4709                	li	a4,2
    800033a0:	cd58                	sw	a4,28(a0)
    800033a2:	00016717          	auipc	a4,0x16
    800033a6:	ee673703          	ld	a4,-282(a4) # 80019288 <kernel_stack_top>
    800033aa:	f918                	sd	a4,48(a0)
    800033ac:	4705                	li	a4,1
    800033ae:	dd18                	sw	a4,56(a0)
    800033b0:	02052023          	sw	zero,32(a0) # 10020 <_ftext-0x7ffeffe0>
    800033b4:	00005597          	auipc	a1,0x5
    800033b8:	2ac58593          	addi	a1,a1,684 # 80008660 <illegal_insn_trap_table+0x724>
    800033bc:	c6fff0ef          	jal	ra,8000302a <set_proc_name>
    800033c0:	00016697          	auipc	a3,0x16
    800033c4:	c8868693          	addi	a3,a3,-888 # 80019048 <nr_process>
    800033c8:	429c                	lw	a5,0(a3)
    800033ca:	6018                	ld	a4,0(s0)
    800033cc:	6402                	ld	s0,0(sp)
    800033ce:	2785                	addiw	a5,a5,1
    800033d0:	60a2                	ld	ra,8(sp)
    800033d2:	c29c                	sw	a5,0(a3)
    800033d4:	00016797          	auipc	a5,0x16
    800033d8:	c6e7be23          	sd	a4,-900(a5) # 80019050 <currentproc>
    800033dc:	00016797          	auipc	a5,0x16
    800033e0:	c6e7be23          	sd	a4,-900(a5) # 80019058 <initproc>
    800033e4:	00005517          	auipc	a0,0x5
    800033e8:	28450513          	addi	a0,a0,644 # 80008668 <illegal_insn_trap_table+0x72c>
    800033ec:	0141                	addi	sp,sp,16
    800033ee:	cbdfd06f          	j	800010aa <printk>
    800033f2:	00005517          	auipc	a0,0x5
    800033f6:	24e50513          	addi	a0,a0,590 # 80008640 <illegal_insn_trap_table+0x704>
    800033fa:	d81fd0ef          	jal	ra,8000117a <do_panic>

00000000800033fe <cpu_idle>:
    800033fe:	1141                	addi	sp,sp,-16
    80003400:	e022                	sd	s0,0(sp)
    80003402:	e406                	sd	ra,8(sp)
    80003404:	00016417          	auipc	s0,0x16
    80003408:	c4c40413          	addi	s0,s0,-948 # 80019050 <currentproc>
    8000340c:	6018                	ld	a4,0(s0)
    8000340e:	5f1c                	lw	a5,56(a4)
    80003410:	2781                	sext.w	a5,a5
    80003412:	dff5                	beqz	a5,8000340e <cpu_idle+0x10>
    80003414:	5b0000ef          	jal	ra,800039c4 <schedule>
    80003418:	bfd5                	j	8000340c <cpu_idle+0xe>

000000008000341a <do_wait>:
    8000341a:	715d                	addi	sp,sp,-80
    8000341c:	fc26                	sd	s1,56(sp)
    8000341e:	9e3704b7          	lui	s1,0x9e370
    80003422:	2485                	addiw	s1,s1,1
    80003424:	02a484bb          	mulw	s1,s1,a0
    80003428:	f84a                	sd	s2,48(sp)
    8000342a:	f44e                	sd	s3,40(sp)
    8000342c:	f052                	sd	s4,32(sp)
    8000342e:	ec56                	sd	s5,24(sp)
    80003430:	e85a                	sd	s6,16(sp)
    80003432:	e45e                	sd	s7,8(sp)
    80003434:	e062                	sd	s8,0(sp)
    80003436:	6a89                	lui	s5,0x2
    80003438:	80000937          	lui	s2,0x80000
    8000343c:	0164d49b          	srliw	s1,s1,0x16
    80003440:	0492                	slli	s1,s1,0x4
    80003442:	00009797          	auipc	a5,0x9
    80003446:	00e78793          	addi	a5,a5,14 # 8000c450 <hash_list>
    8000344a:	e486                	sd	ra,72(sp)
    8000344c:	e0a2                	sd	s0,64(sp)
    8000344e:	8baa                	mv	s7,a0
    80003450:	fff50b1b          	addiw	s6,a0,-1
    80003454:	00016a17          	auipc	s4,0x16
    80003458:	bfca0a13          	addi	s4,s4,-1028 # 80019050 <currentproc>
    8000345c:	4c0d                	li	s8,3
    8000345e:	1af9                	addi	s5,s5,-2
    80003460:	4985                	li	s3,1
    80003462:	0905                	addi	s2,s2,1
    80003464:	94be                	add	s1,s1,a5
    80003466:	020b8b63          	beqz	s7,8000349c <do_wait+0x82>
    8000346a:	87a6                	mv	a5,s1
    8000346c:	016af763          	bgeu	s5,s6,8000347a <do_wait+0x60>
    80003470:	a801                	j	80003480 <do_wait+0x66>
    80003472:	f107a703          	lw	a4,-240(a5)
    80003476:	03770e63          	beq	a4,s7,800034b2 <do_wait+0x98>
    8000347a:	679c                	ld	a5,8(a5)
    8000347c:	fef49be3          	bne	s1,a5,80003472 <do_wait+0x58>
    80003480:	4401                	li	s0,0
    80003482:	4c5c                	lw	a5,28(s0)
    80003484:	03878c63          	beq	a5,s8,800034bc <do_wait+0xa2>
    80003488:	000a3683          	ld	a3,0(s4)
    8000348c:	0136ae23          	sw	s3,28(a3)
    80003490:	0f26a823          	sw	s2,240(a3)
    80003494:	530000ef          	jal	ra,800039c4 <schedule>
    80003498:	fc0b99e3          	bnez	s7,8000346a <do_wait+0x50>
    8000349c:	000a3683          	ld	a3,0(s4)
    800034a0:	7efc                	ld	a5,248(a3)
    800034a2:	e781                	bnez	a5,800034aa <do_wait+0x90>
    800034a4:	b7e5                	j	8000348c <do_wait+0x72>
    800034a6:	7ffc                	ld	a5,248(a5)
    800034a8:	d3f5                	beqz	a5,8000348c <do_wait+0x72>
    800034aa:	4fd8                	lw	a4,28(a5)
    800034ac:	ff871de3          	bne	a4,s8,800034a6 <do_wait+0x8c>
    800034b0:	bff1                	j	8000348c <do_wait+0x72>
    800034b2:	ef078413          	addi	s0,a5,-272
    800034b6:	4c5c                	lw	a5,28(s0)
    800034b8:	fd8798e3          	bne	a5,s8,80003488 <do_wait+0x6e>
    800034bc:	100027f3          	csrr	a5,sstatus
    800034c0:	8b89                	andi	a5,a5,2
    800034c2:	e785                	bnez	a5,800034ea <do_wait+0xd0>
    800034c4:	11043703          	ld	a4,272(s0)
    800034c8:	11843783          	ld	a5,280(s0)
    800034cc:	e71c                	sd	a5,8(a4)
    800034ce:	e398                	sd	a4,0(a5)
    800034d0:	60a6                	ld	ra,72(sp)
    800034d2:	6406                	ld	s0,64(sp)
    800034d4:	74e2                	ld	s1,56(sp)
    800034d6:	7942                	ld	s2,48(sp)
    800034d8:	79a2                	ld	s3,40(sp)
    800034da:	7a02                	ld	s4,32(sp)
    800034dc:	6ae2                	ld	s5,24(sp)
    800034de:	6b42                	ld	s6,16(sp)
    800034e0:	6ba2                	ld	s7,8(sp)
    800034e2:	6c02                	ld	s8,0(sp)
    800034e4:	4501                	li	a0,0
    800034e6:	6161                	addi	sp,sp,80
    800034e8:	8082                	ret
    800034ea:	60e000ef          	jal	ra,80003af8 <intr_disable>
    800034ee:	11043703          	ld	a4,272(s0)
    800034f2:	11843783          	ld	a5,280(s0)
    800034f6:	e71c                	sd	a5,8(a4)
    800034f8:	e398                	sd	a4,0(a5)
    800034fa:	5f8000ef          	jal	ra,80003af2 <intr_enable>
    800034fe:	bfc9                	j	800034d0 <do_wait+0xb6>

0000000080003500 <do_exit>:
    80003500:	7179                	addi	sp,sp,-48
    80003502:	f022                	sd	s0,32(sp)
    80003504:	00016417          	auipc	s0,0x16
    80003508:	b4c40413          	addi	s0,s0,-1204 # 80019050 <currentproc>
    8000350c:	601c                	ld	a5,0(s0)
    8000350e:	f406                	sd	ra,40(sp)
    80003510:	ec26                	sd	s1,24(sp)
    80003512:	e84a                	sd	s2,16(sp)
    80003514:	e44e                	sd	s3,8(sp)
    80003516:	e052                	sd	s4,0(sp)
    80003518:	00016717          	auipc	a4,0x16
    8000351c:	b4873703          	ld	a4,-1208(a4) # 80019060 <idleproc>
    80003520:	08e78c63          	beq	a5,a4,800035b8 <do_exit+0xb8>
    80003524:	00016497          	auipc	s1,0x16
    80003528:	b3448493          	addi	s1,s1,-1228 # 80019058 <initproc>
    8000352c:	6098                	ld	a4,0(s1)
    8000352e:	08e78b63          	beq	a5,a4,800035c4 <do_exit+0xc4>
    80003532:	470d                	li	a4,3
    80003534:	cfd8                	sw	a4,28(a5)
    80003536:	d788                	sw	a0,40(a5)
    80003538:	100027f3          	csrr	a5,sstatus
    8000353c:	8b89                	andi	a5,a5,2
    8000353e:	4a01                	li	s4,0
    80003540:	ebc1                	bnez	a5,800035d0 <do_exit+0xd0>
    80003542:	6018                	ld	a4,0(s0)
    80003544:	800007b7          	lui	a5,0x80000
    80003548:	0785                	addi	a5,a5,1
    8000354a:	6328                	ld	a0,64(a4)
    8000354c:	0f052703          	lw	a4,240(a0)
    80003550:	08f70463          	beq	a4,a5,800035d8 <do_exit+0xd8>
    80003554:	6018                	ld	a4,0(s0)
    80003556:	7f7c                	ld	a5,248(a4)
    80003558:	c3a9                	beqz	a5,8000359a <do_exit+0x9a>
    8000355a:	800009b7          	lui	s3,0x80000
    8000355e:	490d                	li	s2,3
    80003560:	0985                	addi	s3,s3,1
    80003562:	a021                	j	8000356a <do_exit+0x6a>
    80003564:	6018                	ld	a4,0(s0)
    80003566:	7f7c                	ld	a5,248(a4)
    80003568:	cb8d                	beqz	a5,8000359a <do_exit+0x9a>
    8000356a:	1087b683          	ld	a3,264(a5) # ffffffff80000108 <_end+0xfffffffefffe6108>
    8000356e:	6088                	ld	a0,0(s1)
    80003570:	ff74                	sd	a3,248(a4)
    80003572:	7d78                	ld	a4,248(a0)
    80003574:	1007b023          	sd	zero,256(a5)
    80003578:	10e7b423          	sd	a4,264(a5)
    8000357c:	c319                	beqz	a4,80003582 <do_exit+0x82>
    8000357e:	10f73023          	sd	a5,256(a4)
    80003582:	4fd8                	lw	a4,28(a5)
    80003584:	e3a8                	sd	a0,64(a5)
    80003586:	fd7c                	sd	a5,248(a0)
    80003588:	fd271ee3          	bne	a4,s2,80003564 <do_exit+0x64>
    8000358c:	0f052783          	lw	a5,240(a0)
    80003590:	fd379ae3          	bne	a5,s3,80003564 <do_exit+0x64>
    80003594:	236000ef          	jal	ra,800037ca <wakeup_proc>
    80003598:	b7f1                	j	80003564 <do_exit+0x64>
    8000359a:	000a1c63          	bnez	s4,800035b2 <do_exit+0xb2>
    8000359e:	426000ef          	jal	ra,800039c4 <schedule>
    800035a2:	601c                	ld	a5,0(s0)
    800035a4:	00005517          	auipc	a0,0x5
    800035a8:	10c50513          	addi	a0,a0,268 # 800086b0 <illegal_insn_trap_table+0x774>
    800035ac:	538c                	lw	a1,32(a5)
    800035ae:	bcdfd0ef          	jal	ra,8000117a <do_panic>
    800035b2:	540000ef          	jal	ra,80003af2 <intr_enable>
    800035b6:	b7e5                	j	8000359e <do_exit+0x9e>
    800035b8:	00005517          	auipc	a0,0x5
    800035bc:	0c850513          	addi	a0,a0,200 # 80008680 <illegal_insn_trap_table+0x744>
    800035c0:	bbbfd0ef          	jal	ra,8000117a <do_panic>
    800035c4:	00005517          	auipc	a0,0x5
    800035c8:	0d450513          	addi	a0,a0,212 # 80008698 <illegal_insn_trap_table+0x75c>
    800035cc:	baffd0ef          	jal	ra,8000117a <do_panic>
    800035d0:	528000ef          	jal	ra,80003af8 <intr_disable>
    800035d4:	4a05                	li	s4,1
    800035d6:	b7b5                	j	80003542 <do_exit+0x42>
    800035d8:	1f2000ef          	jal	ra,800037ca <wakeup_proc>
    800035dc:	bfa5                	j	80003554 <do_exit+0x54>

00000000800035de <RR_init>:
    800035de:	e508                	sd	a0,8(a0)
    800035e0:	e108                	sd	a0,0(a0)
    800035e2:	00052823          	sw	zero,16(a0)
    800035e6:	8082                	ret

00000000800035e8 <RR_dequeue>:
    800035e8:	6194                	ld	a3,0(a1)
    800035ea:	6598                	ld	a4,8(a1)
    800035ec:	491c                	lw	a5,16(a0)
    800035ee:	e698                	sd	a4,8(a3)
    800035f0:	e314                	sd	a3,0(a4)
    800035f2:	e58c                	sd	a1,8(a1)
    800035f4:	e18c                	sd	a1,0(a1)
    800035f6:	37fd                	addiw	a5,a5,-1
    800035f8:	c91c                	sw	a5,16(a0)
    800035fa:	8082                	ret

00000000800035fc <RR_pick_next>:
    800035fc:	87aa                	mv	a5,a0
    800035fe:	6508                	ld	a0,8(a0)
    80003600:	00a78363          	beq	a5,a0,80003606 <RR_pick_next+0xa>
    80003604:	8082                	ret
    80003606:	4501                	li	a0,0
    80003608:	8082                	ret

000000008000360a <RR_proc_tick>:
    8000360a:	4d9c                	lw	a5,24(a1)
    8000360c:	00f05463          	blez	a5,80003614 <RR_proc_tick+0xa>
    80003610:	37fd                	addiw	a5,a5,-1
    80003612:	cd9c                	sw	a5,24(a1)
    80003614:	e399                	bnez	a5,8000361a <RR_proc_tick+0x10>
    80003616:	4785                	li	a5,1
    80003618:	dd9c                	sw	a5,56(a1)
    8000361a:	8082                	ret

000000008000361c <RR_enqueue>:
    8000361c:	659c                	ld	a5,8(a1)
    8000361e:	02f59763          	bne	a1,a5,8000364c <RR_enqueue+0x30>
    80003622:	611c                	ld	a5,0(a0)
    80003624:	4d98                	lw	a4,24(a1)
    80003626:	e10c                	sd	a1,0(a0)
    80003628:	e78c                	sd	a1,8(a5)
    8000362a:	e19c                	sd	a5,0(a1)
    8000362c:	e588                	sd	a0,8(a1)
    8000362e:	495c                	lw	a5,20(a0)
    80003630:	e719                	bnez	a4,8000363e <RR_enqueue+0x22>
    80003632:	cd9c                	sw	a5,24(a1)
    80003634:	491c                	lw	a5,16(a0)
    80003636:	e988                	sd	a0,16(a1)
    80003638:	2785                	addiw	a5,a5,1
    8000363a:	c91c                	sw	a5,16(a0)
    8000363c:	8082                	ret
    8000363e:	fee7cae3          	blt	a5,a4,80003632 <RR_enqueue+0x16>
    80003642:	491c                	lw	a5,16(a0)
    80003644:	e988                	sd	a0,16(a1)
    80003646:	2785                	addiw	a5,a5,1
    80003648:	c91c                	sw	a5,16(a0)
    8000364a:	8082                	ret
    8000364c:	1141                	addi	sp,sp,-16
    8000364e:	00005517          	auipc	a0,0x5
    80003652:	a7250513          	addi	a0,a0,-1422 # 800080c0 <illegal_insn_trap_table+0x184>
    80003656:	00005697          	auipc	a3,0x5
    8000365a:	07a68693          	addi	a3,a3,122 # 800086d0 <illegal_insn_trap_table+0x794>
    8000365e:	07300613          	li	a2,115
    80003662:	00005597          	auipc	a1,0x5
    80003666:	08e58593          	addi	a1,a1,142 # 800086f0 <illegal_insn_trap_table+0x7b4>
    8000366a:	e406                	sd	ra,8(sp)
    8000366c:	576010ef          	jal	ra,80004be2 <printm>
    80003670:	6541                	lui	a0,0x10
    80003672:	157d                	addi	a0,a0,-1
    80003674:	5de010ef          	jal	ra,80004c52 <poweroff>

0000000080003678 <vPortSetupTimer>:
    80003678:	1141                	addi	sp,sp,-16
    8000367a:	00005517          	auipc	a0,0x5
    8000367e:	08650513          	addi	a0,a0,134 # 80008700 <illegal_insn_trap_table+0x7c4>
    80003682:	e406                	sd	ra,8(sp)
    80003684:	55e010ef          	jal	ra,80004be2 <printm>
    80003688:	0200c7b7          	lui	a5,0x200c
    8000368c:	ff87b783          	ld	a5,-8(a5) # 200bff8 <_ftext-0x7dff4008>
    80003690:	6761                	lui	a4,0x18
    80003692:	6a070713          	addi	a4,a4,1696 # 186a0 <_ftext-0x7ffe7960>
    80003696:	97ba                	add	a5,a5,a4
    80003698:	02004737          	lui	a4,0x2004
    8000369c:	e31c                	sd	a5,0(a4)
    8000369e:	02000793          	li	a5,32
    800036a2:	1047a073          	csrs	sie,a5
    800036a6:	60a2                	ld	ra,8(sp)
    800036a8:	0141                	addi	sp,sp,16
    800036aa:	8082                	ret

00000000800036ac <clock_set_next_event>:
    800036ac:	c0102573          	rdtime	a0
    800036b0:	67e1                	lui	a5,0x18
    800036b2:	6a078793          	addi	a5,a5,1696 # 186a0 <_ftext-0x7ffe7960>
    800036b6:	953e                	add	a0,a0,a5
    800036b8:	4581                	li	a1,0
    800036ba:	4601                	li	a2,0
    800036bc:	4881                	li	a7,0
    800036be:	00000073          	ecall
    800036c2:	8082                	ret

00000000800036c4 <clock_init>:
    800036c4:	c0102573          	rdtime	a0
    800036c8:	67e1                	lui	a5,0x18
    800036ca:	6a078793          	addi	a5,a5,1696 # 186a0 <_ftext-0x7ffe7960>
    800036ce:	953e                	add	a0,a0,a5
    800036d0:	4581                	li	a1,0
    800036d2:	4601                	li	a2,0
    800036d4:	4881                	li	a7,0
    800036d6:	00000073          	ecall
    800036da:	02000793          	li	a5,32
    800036de:	1047a7f3          	csrrs	a5,sie,a5
    800036e2:	00005517          	auipc	a0,0x5
    800036e6:	02e50513          	addi	a0,a0,46 # 80008710 <illegal_insn_trap_table+0x7d4>
    800036ea:	00016797          	auipc	a5,0x16
    800036ee:	bc07bf23          	sd	zero,-1058(a5) # 800192c8 <ticks>
    800036f2:	4f00106f          	j	80004be2 <printm>

00000000800036f6 <del_timer>:
    800036f6:	1101                	addi	sp,sp,-32
    800036f8:	e822                	sd	s0,16(sp)
    800036fa:	ec06                	sd	ra,24(sp)
    800036fc:	e426                	sd	s1,8(sp)
    800036fe:	842a                	mv	s0,a0
    80003700:	100027f3          	csrr	a5,sstatus
    80003704:	8b89                	andi	a5,a5,2
    80003706:	01050493          	addi	s1,a0,16
    8000370a:	eb9d                	bnez	a5,80003740 <del_timer+0x4a>
    8000370c:	6d1c                	ld	a5,24(a0)
    8000370e:	02978463          	beq	a5,s1,80003736 <del_timer+0x40>
    80003712:	4114                	lw	a3,0(a0)
    80003714:	6918                	ld	a4,16(a0)
    80003716:	ce81                	beqz	a3,8000372e <del_timer+0x38>
    80003718:	0000d617          	auipc	a2,0xd
    8000371c:	d3860613          	addi	a2,a2,-712 # 80010450 <timer_list>
    80003720:	00c78763          	beq	a5,a2,8000372e <del_timer+0x38>
    80003724:	ff07a603          	lw	a2,-16(a5)
    80003728:	9eb1                	addw	a3,a3,a2
    8000372a:	fed7a823          	sw	a3,-16(a5)
    8000372e:	e71c                	sd	a5,8(a4)
    80003730:	e398                	sd	a4,0(a5)
    80003732:	ec04                	sd	s1,24(s0)
    80003734:	e804                	sd	s1,16(s0)
    80003736:	60e2                	ld	ra,24(sp)
    80003738:	6442                	ld	s0,16(sp)
    8000373a:	64a2                	ld	s1,8(sp)
    8000373c:	6105                	addi	sp,sp,32
    8000373e:	8082                	ret
    80003740:	3b8000ef          	jal	ra,80003af8 <intr_disable>
    80003744:	6c1c                	ld	a5,24(s0)
    80003746:	02978463          	beq	a5,s1,8000376e <del_timer+0x78>
    8000374a:	4014                	lw	a3,0(s0)
    8000374c:	6818                	ld	a4,16(s0)
    8000374e:	ce81                	beqz	a3,80003766 <del_timer+0x70>
    80003750:	0000d617          	auipc	a2,0xd
    80003754:	d0060613          	addi	a2,a2,-768 # 80010450 <timer_list>
    80003758:	00c78763          	beq	a5,a2,80003766 <del_timer+0x70>
    8000375c:	ff07a603          	lw	a2,-16(a5)
    80003760:	9eb1                	addw	a3,a3,a2
    80003762:	fed7a823          	sw	a3,-16(a5)
    80003766:	e71c                	sd	a5,8(a4)
    80003768:	e398                	sd	a4,0(a5)
    8000376a:	ec04                	sd	s1,24(s0)
    8000376c:	e804                	sd	s1,16(s0)
    8000376e:	6442                	ld	s0,16(sp)
    80003770:	60e2                	ld	ra,24(sp)
    80003772:	64a2                	ld	s1,8(sp)
    80003774:	6105                	addi	sp,sp,32
    80003776:	aeb5                	j	80003af2 <intr_enable>

0000000080003778 <sched_init>:
    80003778:	00008717          	auipc	a4,0x8
    8000377c:	c8870713          	addi	a4,a4,-888 # 8000b400 <default_sched_class>
    80003780:	1141                	addi	sp,sp,-16
    80003782:	6714                	ld	a3,8(a4)
    80003784:	e022                	sd	s0,0(sp)
    80003786:	e406                	sd	ra,8(sp)
    80003788:	0000d797          	auipc	a5,0xd
    8000378c:	cc878793          	addi	a5,a5,-824 # 80010450 <timer_list>
    80003790:	4615                	li	a2,5
    80003792:	0000d517          	auipc	a0,0xd
    80003796:	cce50513          	addi	a0,a0,-818 # 80010460 <__rq>
    8000379a:	00016417          	auipc	s0,0x16
    8000379e:	8d640413          	addi	s0,s0,-1834 # 80019070 <sched_class>
    800037a2:	e79c                	sd	a5,8(a5)
    800037a4:	e39c                	sd	a5,0(a5)
    800037a6:	d3d0                	sw	a2,36(a5)
    800037a8:	e018                	sd	a4,0(s0)
    800037aa:	00016797          	auipc	a5,0x16
    800037ae:	8aa7bf23          	sd	a0,-1858(a5) # 80019068 <rq>
    800037b2:	9682                	jalr	a3
    800037b4:	601c                	ld	a5,0(s0)
    800037b6:	6402                	ld	s0,0(sp)
    800037b8:	60a2                	ld	ra,8(sp)
    800037ba:	638c                	ld	a1,0(a5)
    800037bc:	00005517          	auipc	a0,0x5
    800037c0:	f7450513          	addi	a0,a0,-140 # 80008730 <illegal_insn_trap_table+0x7f4>
    800037c4:	0141                	addi	sp,sp,16
    800037c6:	8e5fd06f          	j	800010aa <printk>

00000000800037ca <wakeup_proc>:
    800037ca:	4d58                	lw	a4,28(a0)
    800037cc:	1101                	addi	sp,sp,-32
    800037ce:	ec06                	sd	ra,24(sp)
    800037d0:	e822                	sd	s0,16(sp)
    800037d2:	e426                	sd	s1,8(sp)
    800037d4:	478d                	li	a5,3
    800037d6:	06f70c63          	beq	a4,a5,8000384e <wakeup_proc+0x84>
    800037da:	842a                	mv	s0,a0
    800037dc:	100027f3          	csrr	a5,sstatus
    800037e0:	8b89                	andi	a5,a5,2
    800037e2:	4481                	li	s1,0
    800037e4:	e3a5                	bnez	a5,80003844 <wakeup_proc+0x7a>
    800037e6:	4789                	li	a5,2
    800037e8:	04f70763          	beq	a4,a5,80003836 <wakeup_proc+0x6c>
    800037ec:	cc5c                	sw	a5,28(s0)
    800037ee:	0e042823          	sw	zero,240(s0)
    800037f2:	00016797          	auipc	a5,0x16
    800037f6:	85e7b783          	ld	a5,-1954(a5) # 80019050 <currentproc>
    800037fa:	02878363          	beq	a5,s0,80003820 <wakeup_proc+0x56>
    800037fe:	00016797          	auipc	a5,0x16
    80003802:	8627b783          	ld	a5,-1950(a5) # 80019060 <idleproc>
    80003806:	00f40d63          	beq	s0,a5,80003820 <wakeup_proc+0x56>
    8000380a:	00016797          	auipc	a5,0x16
    8000380e:	8667b783          	ld	a5,-1946(a5) # 80019070 <sched_class>
    80003812:	6b9c                	ld	a5,16(a5)
    80003814:	85a2                	mv	a1,s0
    80003816:	00016517          	auipc	a0,0x16
    8000381a:	85253503          	ld	a0,-1966(a0) # 80019068 <rq>
    8000381e:	9782                	jalr	a5
    80003820:	e491                	bnez	s1,8000382c <wakeup_proc+0x62>
    80003822:	60e2                	ld	ra,24(sp)
    80003824:	6442                	ld	s0,16(sp)
    80003826:	64a2                	ld	s1,8(sp)
    80003828:	6105                	addi	sp,sp,32
    8000382a:	8082                	ret
    8000382c:	6442                	ld	s0,16(sp)
    8000382e:	60e2                	ld	ra,24(sp)
    80003830:	64a2                	ld	s1,8(sp)
    80003832:	6105                	addi	sp,sp,32
    80003834:	ac7d                	j	80003af2 <intr_enable>
    80003836:	00005517          	auipc	a0,0x5
    8000383a:	f3250513          	addi	a0,a0,-206 # 80008768 <illegal_insn_trap_table+0x82c>
    8000383e:	86dfd0ef          	jal	ra,800010aa <printk>
    80003842:	bff9                	j	80003820 <wakeup_proc+0x56>
    80003844:	2b4000ef          	jal	ra,80003af8 <intr_disable>
    80003848:	4c58                	lw	a4,28(s0)
    8000384a:	4485                	li	s1,1
    8000384c:	bf69                	j	800037e6 <wakeup_proc+0x1c>
    8000384e:	00005517          	auipc	a0,0x5
    80003852:	87250513          	addi	a0,a0,-1934 # 800080c0 <illegal_insn_trap_table+0x184>
    80003856:	00005697          	auipc	a3,0x5
    8000385a:	ef268693          	addi	a3,a3,-270 # 80008748 <illegal_insn_trap_table+0x80c>
    8000385e:	0d400613          	li	a2,212
    80003862:	00005597          	auipc	a1,0x5
    80003866:	e8e58593          	addi	a1,a1,-370 # 800086f0 <illegal_insn_trap_table+0x7b4>
    8000386a:	378010ef          	jal	ra,80004be2 <printm>
    8000386e:	6541                	lui	a0,0x10
    80003870:	157d                	addi	a0,a0,-1
    80003872:	3e0010ef          	jal	ra,80004c52 <poweroff>

0000000080003876 <run_timer_list>:
    80003876:	7139                	addi	sp,sp,-64
    80003878:	00005517          	auipc	a0,0x5
    8000387c:	f1050513          	addi	a0,a0,-240 # 80008788 <illegal_insn_trap_table+0x84c>
    80003880:	fc06                	sd	ra,56(sp)
    80003882:	f822                	sd	s0,48(sp)
    80003884:	f426                	sd	s1,40(sp)
    80003886:	f04a                	sd	s2,32(sp)
    80003888:	ec4e                	sd	s3,24(sp)
    8000388a:	e852                	sd	s4,16(sp)
    8000388c:	e456                	sd	s5,8(sp)
    8000388e:	81dfd0ef          	jal	ra,800010aa <printk>
    80003892:	100027f3          	csrr	a5,sstatus
    80003896:	8b89                	andi	a5,a5,2
    80003898:	4a81                	li	s5,0
    8000389a:	0e079263          	bnez	a5,8000397e <run_timer_list+0x108>
    8000389e:	0000d997          	auipc	s3,0xd
    800038a2:	bb298993          	addi	s3,s3,-1102 # 80010450 <timer_list>
    800038a6:	0089b403          	ld	s0,8(s3)
    800038aa:	07340f63          	beq	s0,s3,80003928 <run_timer_list+0xb2>
    800038ae:	00005517          	auipc	a0,0x5
    800038b2:	eda50513          	addi	a0,a0,-294 # 80008788 <illegal_insn_trap_table+0x84c>
    800038b6:	ff4fd0ef          	jal	ra,800010aa <printk>
    800038ba:	00005517          	auipc	a0,0x5
    800038be:	ee650513          	addi	a0,a0,-282 # 800087a0 <illegal_insn_trap_table+0x864>
    800038c2:	fe8fd0ef          	jal	ra,800010aa <printk>
    800038c6:	ff042783          	lw	a5,-16(s0)
    800038ca:	ff040913          	addi	s2,s0,-16
    800038ce:	0e078063          	beqz	a5,800039ae <run_timer_list+0x138>
    800038d2:	fff7871b          	addiw	a4,a5,-1
    800038d6:	fee42823          	sw	a4,-16(s0)
    800038da:	e739                	bnez	a4,80003928 <run_timer_list+0xb2>
    800038dc:	00005a17          	auipc	s4,0x5
    800038e0:	f1ca0a13          	addi	s4,s4,-228 # 800087f8 <illegal_insn_trap_table+0x8bc>
    800038e4:	a005                	j	80003904 <run_timer_list+0x8e>
    800038e6:	0a07d063          	bgez	a5,80003986 <run_timer_list+0x110>
    800038ea:	8526                	mv	a0,s1
    800038ec:	edfff0ef          	jal	ra,800037ca <wakeup_proc>
    800038f0:	854a                	mv	a0,s2
    800038f2:	e05ff0ef          	jal	ra,800036f6 <del_timer>
    800038f6:	03340963          	beq	s0,s3,80003928 <run_timer_list+0xb2>
    800038fa:	ff042783          	lw	a5,-16(s0)
    800038fe:	ff040913          	addi	s2,s0,-16
    80003902:	e39d                	bnez	a5,80003928 <run_timer_list+0xb2>
    80003904:	00893483          	ld	s1,8(s2) # ffffffff80000008 <_end+0xfffffffefffe6008>
    80003908:	6400                	ld	s0,8(s0)
    8000390a:	0f04a783          	lw	a5,240(s1)
    8000390e:	ffe1                	bnez	a5,800038e6 <run_timer_list+0x70>
    80003910:	508c                	lw	a1,32(s1)
    80003912:	8552                	mv	a0,s4
    80003914:	f96fd0ef          	jal	ra,800010aa <printk>
    80003918:	8526                	mv	a0,s1
    8000391a:	eb1ff0ef          	jal	ra,800037ca <wakeup_proc>
    8000391e:	854a                	mv	a0,s2
    80003920:	dd7ff0ef          	jal	ra,800036f6 <del_timer>
    80003924:	fd341be3          	bne	s0,s3,800038fa <run_timer_list+0x84>
    80003928:	00015597          	auipc	a1,0x15
    8000392c:	7285b583          	ld	a1,1832(a1) # 80019050 <currentproc>
    80003930:	00015797          	auipc	a5,0x15
    80003934:	7307b783          	ld	a5,1840(a5) # 80019060 <idleproc>
    80003938:	04f58063          	beq	a1,a5,80003978 <run_timer_list+0x102>
    8000393c:	00015797          	auipc	a5,0x15
    80003940:	7347b783          	ld	a5,1844(a5) # 80019070 <sched_class>
    80003944:	779c                	ld	a5,40(a5)
    80003946:	00015517          	auipc	a0,0x15
    8000394a:	72253503          	ld	a0,1826(a0) # 80019068 <rq>
    8000394e:	9782                	jalr	a5
    80003950:	000a9b63          	bnez	s5,80003966 <run_timer_list+0xf0>
    80003954:	70e2                	ld	ra,56(sp)
    80003956:	7442                	ld	s0,48(sp)
    80003958:	74a2                	ld	s1,40(sp)
    8000395a:	7902                	ld	s2,32(sp)
    8000395c:	69e2                	ld	s3,24(sp)
    8000395e:	6a42                	ld	s4,16(sp)
    80003960:	6aa2                	ld	s5,8(sp)
    80003962:	6121                	addi	sp,sp,64
    80003964:	8082                	ret
    80003966:	7442                	ld	s0,48(sp)
    80003968:	70e2                	ld	ra,56(sp)
    8000396a:	74a2                	ld	s1,40(sp)
    8000396c:	7902                	ld	s2,32(sp)
    8000396e:	69e2                	ld	s3,24(sp)
    80003970:	6a42                	ld	s4,16(sp)
    80003972:	6aa2                	ld	s5,8(sp)
    80003974:	6121                	addi	sp,sp,64
    80003976:	aab5                	j	80003af2 <intr_enable>
    80003978:	4785                	li	a5,1
    8000397a:	dd9c                	sw	a5,56(a1)
    8000397c:	bfd1                	j	80003950 <run_timer_list+0xda>
    8000397e:	17a000ef          	jal	ra,80003af8 <intr_disable>
    80003982:	4a85                	li	s5,1
    80003984:	bf29                	j	8000389e <run_timer_list+0x28>
    80003986:	00004517          	auipc	a0,0x4
    8000398a:	73a50513          	addi	a0,a0,1850 # 800080c0 <illegal_insn_trap_table+0x184>
    8000398e:	00005697          	auipc	a3,0x5
    80003992:	e4268693          	addi	a3,a3,-446 # 800087d0 <illegal_insn_trap_table+0x894>
    80003996:	10200613          	li	a2,258
    8000399a:	00005597          	auipc	a1,0x5
    8000399e:	d5658593          	addi	a1,a1,-682 # 800086f0 <illegal_insn_trap_table+0x7b4>
    800039a2:	240010ef          	jal	ra,80004be2 <printm>
    800039a6:	6541                	lui	a0,0x10
    800039a8:	157d                	addi	a0,a0,-1
    800039aa:	2a8010ef          	jal	ra,80004c52 <poweroff>
    800039ae:	00004517          	auipc	a0,0x4
    800039b2:	71250513          	addi	a0,a0,1810 # 800080c0 <illegal_insn_trap_table+0x184>
    800039b6:	00005697          	auipc	a3,0x5
    800039ba:	e0268693          	addi	a3,a3,-510 # 800087b8 <illegal_insn_trap_table+0x87c>
    800039be:	0fc00613          	li	a2,252
    800039c2:	bfe1                	j	8000399a <run_timer_list+0x124>

00000000800039c4 <schedule>:
    800039c4:	7179                	addi	sp,sp,-48
    800039c6:	f406                	sd	ra,40(sp)
    800039c8:	f022                	sd	s0,32(sp)
    800039ca:	ec26                	sd	s1,24(sp)
    800039cc:	e84a                	sd	s2,16(sp)
    800039ce:	e44e                	sd	s3,8(sp)
    800039d0:	e052                	sd	s4,0(sp)
    800039d2:	100027f3          	csrr	a5,sstatus
    800039d6:	8b89                	andi	a5,a5,2
    800039d8:	4a01                	li	s4,0
    800039da:	efd9                	bnez	a5,80003a78 <schedule+0xb4>
    800039dc:	00015997          	auipc	s3,0x15
    800039e0:	67498993          	addi	s3,s3,1652 # 80019050 <currentproc>
    800039e4:	0009b583          	ld	a1,0(s3)
    800039e8:	00015917          	auipc	s2,0x15
    800039ec:	68890913          	addi	s2,s2,1672 # 80019070 <sched_class>
    800039f0:	00015497          	auipc	s1,0x15
    800039f4:	67848493          	addi	s1,s1,1656 # 80019068 <rq>
    800039f8:	4dd4                	lw	a3,28(a1)
    800039fa:	0205ac23          	sw	zero,56(a1)
    800039fe:	4709                	li	a4,2
    80003a00:	00093783          	ld	a5,0(s2)
    80003a04:	6088                	ld	a0,0(s1)
    80003a06:	04e68063          	beq	a3,a4,80003a46 <schedule+0x82>
    80003a0a:	739c                	ld	a5,32(a5)
    80003a0c:	9782                	jalr	a5
    80003a0e:	842a                	mv	s0,a0
    80003a10:	c931                	beqz	a0,80003a64 <schedule+0xa0>
    80003a12:	00093783          	ld	a5,0(s2)
    80003a16:	6088                	ld	a0,0(s1)
    80003a18:	85a2                	mv	a1,s0
    80003a1a:	6f9c                	ld	a5,24(a5)
    80003a1c:	9782                	jalr	a5
    80003a1e:	505c                	lw	a5,36(s0)
    80003a20:	0009b703          	ld	a4,0(s3)
    80003a24:	2785                	addiw	a5,a5,1
    80003a26:	d05c                	sw	a5,36(s0)
    80003a28:	00870563          	beq	a4,s0,80003a32 <schedule+0x6e>
    80003a2c:	8522                	mv	a0,s0
    80003a2e:	e38ff0ef          	jal	ra,80003066 <proc_run>
    80003a32:	020a1b63          	bnez	s4,80003a68 <schedule+0xa4>
    80003a36:	70a2                	ld	ra,40(sp)
    80003a38:	7402                	ld	s0,32(sp)
    80003a3a:	64e2                	ld	s1,24(sp)
    80003a3c:	6942                	ld	s2,16(sp)
    80003a3e:	69a2                	ld	s3,8(sp)
    80003a40:	6a02                	ld	s4,0(sp)
    80003a42:	6145                	addi	sp,sp,48
    80003a44:	8082                	ret
    80003a46:	00015717          	auipc	a4,0x15
    80003a4a:	61a73703          	ld	a4,1562(a4) # 80019060 <idleproc>
    80003a4e:	fae58ee3          	beq	a1,a4,80003a0a <schedule+0x46>
    80003a52:	6b9c                	ld	a5,16(a5)
    80003a54:	9782                	jalr	a5
    80003a56:	00093783          	ld	a5,0(s2)
    80003a5a:	6088                	ld	a0,0(s1)
    80003a5c:	739c                	ld	a5,32(a5)
    80003a5e:	9782                	jalr	a5
    80003a60:	842a                	mv	s0,a0
    80003a62:	f945                	bnez	a0,80003a12 <schedule+0x4e>
    80003a64:	fa1fc0ef          	jal	ra,80000a04 <shutdown>
    80003a68:	7402                	ld	s0,32(sp)
    80003a6a:	70a2                	ld	ra,40(sp)
    80003a6c:	64e2                	ld	s1,24(sp)
    80003a6e:	6942                	ld	s2,16(sp)
    80003a70:	69a2                	ld	s3,8(sp)
    80003a72:	6a02                	ld	s4,0(sp)
    80003a74:	6145                	addi	sp,sp,48
    80003a76:	a8b5                	j	80003af2 <intr_enable>
    80003a78:	080000ef          	jal	ra,80003af8 <intr_disable>
    80003a7c:	4a05                	li	s4,1
    80003a7e:	bfb9                	j	800039dc <schedule+0x18>

0000000080003a80 <kernel_thread_entry>:
    80003a80:	8526                	mv	a0,s1
    80003a82:	9402                	jalr	s0
    80003a84:	a7dff0ef          	jal	ra,80003500 <do_exit>

0000000080003a88 <switch_to>:
    80003a88:	00153023          	sd	ra,0(a0)
    80003a8c:	00253423          	sd	sp,8(a0)
    80003a90:	e900                	sd	s0,16(a0)
    80003a92:	ed04                	sd	s1,24(a0)
    80003a94:	03253023          	sd	s2,32(a0)
    80003a98:	03353423          	sd	s3,40(a0)
    80003a9c:	03453823          	sd	s4,48(a0)
    80003aa0:	03553c23          	sd	s5,56(a0)
    80003aa4:	05653023          	sd	s6,64(a0)
    80003aa8:	05753423          	sd	s7,72(a0)
    80003aac:	05853823          	sd	s8,80(a0)
    80003ab0:	05953c23          	sd	s9,88(a0)
    80003ab4:	07a53023          	sd	s10,96(a0)
    80003ab8:	07b53423          	sd	s11,104(a0)
    80003abc:	0005b083          	ld	ra,0(a1)
    80003ac0:	0085b103          	ld	sp,8(a1)
    80003ac4:	6980                	ld	s0,16(a1)
    80003ac6:	6d84                	ld	s1,24(a1)
    80003ac8:	0205b903          	ld	s2,32(a1)
    80003acc:	0285b983          	ld	s3,40(a1)
    80003ad0:	0305ba03          	ld	s4,48(a1)
    80003ad4:	0385ba83          	ld	s5,56(a1)
    80003ad8:	0405bb03          	ld	s6,64(a1)
    80003adc:	0485bb83          	ld	s7,72(a1)
    80003ae0:	0505bc03          	ld	s8,80(a1)
    80003ae4:	0585bc83          	ld	s9,88(a1)
    80003ae8:	0605bd03          	ld	s10,96(a1)
    80003aec:	0685bd83          	ld	s11,104(a1)
    80003af0:	8082                	ret

0000000080003af2 <intr_enable>:
    80003af2:	100167f3          	csrrsi	a5,sstatus,2
    80003af6:	8082                	ret

0000000080003af8 <intr_disable>:
    80003af8:	100177f3          	csrrci	a5,sstatus,2
    80003afc:	8082                	ret

0000000080003afe <__up.constprop.0>:
    80003afe:	1101                	addi	sp,sp,-32
    80003b00:	e822                	sd	s0,16(sp)
    80003b02:	ec06                	sd	ra,24(sp)
    80003b04:	e426                	sd	s1,8(sp)
    80003b06:	e04a                	sd	s2,0(sp)
    80003b08:	842a                	mv	s0,a0
    80003b0a:	100027f3          	csrr	a5,sstatus
    80003b0e:	8b89                	andi	a5,a5,2
    80003b10:	4901                	li	s2,0
    80003b12:	e7b9                	bnez	a5,80003b60 <__up.constprop.0+0x62>
    80003b14:	01040493          	addi	s1,s0,16
    80003b18:	8526                	mv	a0,s1
    80003b1a:	2b4000ef          	jal	ra,80003dce <wait_queue_first>
    80003b1e:	85aa                	mv	a1,a0
    80003b20:	cd05                	beqz	a0,80003b58 <__up.constprop.0+0x5a>
    80003b22:	6118                	ld	a4,0(a0)
    80003b24:	10000793          	li	a5,256
    80003b28:	0f072703          	lw	a4,240(a4)
    80003b2c:	02f71e63          	bne	a4,a5,80003b68 <__up.constprop.0+0x6a>
    80003b30:	4685                	li	a3,1
    80003b32:	10000613          	li	a2,256
    80003b36:	8526                	mv	a0,s1
    80003b38:	2d0000ef          	jal	ra,80003e08 <wakeup_wait>
    80003b3c:	00091863          	bnez	s2,80003b4c <__up.constprop.0+0x4e>
    80003b40:	60e2                	ld	ra,24(sp)
    80003b42:	6442                	ld	s0,16(sp)
    80003b44:	64a2                	ld	s1,8(sp)
    80003b46:	6902                	ld	s2,0(sp)
    80003b48:	6105                	addi	sp,sp,32
    80003b4a:	8082                	ret
    80003b4c:	6442                	ld	s0,16(sp)
    80003b4e:	60e2                	ld	ra,24(sp)
    80003b50:	64a2                	ld	s1,8(sp)
    80003b52:	6902                	ld	s2,0(sp)
    80003b54:	6105                	addi	sp,sp,32
    80003b56:	bf71                	j	80003af2 <intr_enable>
    80003b58:	441c                	lw	a5,8(s0)
    80003b5a:	2785                	addiw	a5,a5,1
    80003b5c:	c41c                	sw	a5,8(s0)
    80003b5e:	bff9                	j	80003b3c <__up.constprop.0+0x3e>
    80003b60:	f99ff0ef          	jal	ra,80003af8 <intr_disable>
    80003b64:	4905                	li	s2,1
    80003b66:	b77d                	j	80003b14 <__up.constprop.0+0x16>
    80003b68:	00005517          	auipc	a0,0x5
    80003b6c:	cc050513          	addi	a0,a0,-832 # 80008828 <illegal_insn_trap_table+0x8ec>
    80003b70:	e2efd0ef          	jal	ra,8000119e <kassert_fail>

0000000080003b74 <sem_init>:
    80003b74:	c50c                	sw	a1,8(a0)
    80003b76:	0541                	addi	a0,a0,16
    80003b78:	aa79                	j	80003d16 <wait_queue_init>

0000000080003b7a <up>:
    80003b7a:	b751                	j	80003afe <__up.constprop.0>

0000000080003b7c <try_down>:
    80003b7c:	1101                	addi	sp,sp,-32
    80003b7e:	e822                	sd	s0,16(sp)
    80003b80:	ec06                	sd	ra,24(sp)
    80003b82:	842a                	mv	s0,a0
    80003b84:	100027f3          	csrr	a5,sstatus
    80003b88:	8b89                	andi	a5,a5,2
    80003b8a:	ef81                	bnez	a5,80003ba2 <try_down+0x26>
    80003b8c:	451c                	lw	a5,8(a0)
    80003b8e:	4501                	li	a0,0
    80003b90:	00f05563          	blez	a5,80003b9a <try_down+0x1e>
    80003b94:	37fd                	addiw	a5,a5,-1
    80003b96:	c41c                	sw	a5,8(s0)
    80003b98:	4505                	li	a0,1
    80003b9a:	60e2                	ld	ra,24(sp)
    80003b9c:	6442                	ld	s0,16(sp)
    80003b9e:	6105                	addi	sp,sp,32
    80003ba0:	8082                	ret
    80003ba2:	f57ff0ef          	jal	ra,80003af8 <intr_disable>
    80003ba6:	441c                	lw	a5,8(s0)
    80003ba8:	4501                	li	a0,0
    80003baa:	00f05563          	blez	a5,80003bb4 <try_down+0x38>
    80003bae:	37fd                	addiw	a5,a5,-1
    80003bb0:	c41c                	sw	a5,8(s0)
    80003bb2:	4505                	li	a0,1
    80003bb4:	e42a                	sd	a0,8(sp)
    80003bb6:	f3dff0ef          	jal	ra,80003af2 <intr_enable>
    80003bba:	60e2                	ld	ra,24(sp)
    80003bbc:	6442                	ld	s0,16(sp)
    80003bbe:	6522                	ld	a0,8(sp)
    80003bc0:	6105                	addi	sp,sp,32
    80003bc2:	8082                	ret

0000000080003bc4 <__down.constprop.0>:
    80003bc4:	7139                	addi	sp,sp,-64
    80003bc6:	f822                	sd	s0,48(sp)
    80003bc8:	fc06                	sd	ra,56(sp)
    80003bca:	842a                	mv	s0,a0
    80003bcc:	fb1ff0ef          	jal	ra,80003b7c <try_down>
    80003bd0:	4785                	li	a5,1
    80003bd2:	02f50263          	beq	a0,a5,80003bf6 <__down.constprop.0+0x32>
    80003bd6:	0441                	addi	s0,s0,16
    80003bd8:	10000613          	li	a2,256
    80003bdc:	002c                	addi	a1,sp,8
    80003bde:	8522                	mv	a0,s0
    80003be0:	31c000ef          	jal	ra,80003efc <wait_current_set>
    80003be4:	de1ff0ef          	jal	ra,800039c4 <schedule>
    80003be8:	6722                	ld	a4,8(sp)
    80003bea:	10000793          	li	a5,256
    80003bee:	0f072703          	lw	a4,240(a4)
    80003bf2:	00f70763          	beq	a4,a5,80003c00 <__down.constprop.0+0x3c>
    80003bf6:	70e2                	ld	ra,56(sp)
    80003bf8:	7442                	ld	s0,48(sp)
    80003bfa:	4501                	li	a0,0
    80003bfc:	6121                	addi	sp,sp,64
    80003bfe:	8082                	ret
    80003c00:	8522                	mv	a0,s0
    80003c02:	002c                	addi	a1,sp,8
    80003c04:	4685                	li	a3,1
    80003c06:	10000613          	li	a2,256
    80003c0a:	1fe000ef          	jal	ra,80003e08 <wakeup_wait>
    80003c0e:	70e2                	ld	ra,56(sp)
    80003c10:	7442                	ld	s0,48(sp)
    80003c12:	4501                	li	a0,0
    80003c14:	6121                	addi	sp,sp,64
    80003c16:	8082                	ret

0000000080003c18 <down>:
    80003c18:	1141                	addi	sp,sp,-16
    80003c1a:	e406                	sd	ra,8(sp)
    80003c1c:	fa9ff0ef          	jal	ra,80003bc4 <__down.constprop.0>
    80003c20:	e501                	bnez	a0,80003c28 <down+0x10>
    80003c22:	60a2                	ld	ra,8(sp)
    80003c24:	0141                	addi	sp,sp,16
    80003c26:	8082                	ret
    80003c28:	00005517          	auipc	a0,0x5
    80003c2c:	c2850513          	addi	a0,a0,-984 # 80008850 <illegal_insn_trap_table+0x914>
    80003c30:	d6efd0ef          	jal	ra,8000119e <kassert_fail>

0000000080003c34 <init_semaq>:
    80003c34:	1101                	addi	sp,sp,-32
    80003c36:	e822                	sd	s0,16(sp)
    80003c38:	e426                	sd	s1,8(sp)
    80003c3a:	ec06                	sd	ra,24(sp)
    80003c3c:	00015417          	auipc	s0,0x15
    80003c40:	45440413          	addi	s0,s0,1108 # 80019090 <sema_q+0x10>
    80003c44:	00015497          	auipc	s1,0x15
    80003c48:	58c48493          	addi	s1,s1,1420 # 800191d0 <current>
    80003c4c:	fe042c23          	sw	zero,-8(s0)
    80003c50:	fe043823          	sd	zero,-16(s0)
    80003c54:	8522                	mv	a0,s0
    80003c56:	02040413          	addi	s0,s0,32
    80003c5a:	0bc000ef          	jal	ra,80003d16 <wait_queue_init>
    80003c5e:	fe9417e3          	bne	s0,s1,80003c4c <init_semaq+0x18>
    80003c62:	60e2                	ld	ra,24(sp)
    80003c64:	6442                	ld	s0,16(sp)
    80003c66:	64a2                	ld	s1,8(sp)
    80003c68:	6105                	addi	sp,sp,32
    80003c6a:	8082                	ret

0000000080003c6c <alloc_sema>:
    80003c6c:	7179                	addi	sp,sp,-48
    80003c6e:	00015797          	auipc	a5,0x15
    80003c72:	3e27b783          	ld	a5,994(a5) # 80019050 <currentproc>
    80003c76:	ec26                	sd	s1,24(sp)
    80003c78:	84aa                	mv	s1,a0
    80003c7a:	63e8                	ld	a0,192(a5)
    80003c7c:	4691                	li	a3,4
    80003c7e:	8626                	mv	a2,s1
    80003c80:	006c                	addi	a1,sp,12
    80003c82:	f022                	sd	s0,32(sp)
    80003c84:	f406                	sd	ra,40(sp)
    80003c86:	c602                	sw	zero,12(sp)
    80003c88:	aa5fe0ef          	jal	ra,8000272c <copyin>
    80003c8c:	00015417          	auipc	s0,0x15
    80003c90:	3f440413          	addi	s0,s0,1012 # 80019080 <sema_q>
    80003c94:	00015717          	auipc	a4,0x15
    80003c98:	52c70713          	addi	a4,a4,1324 # 800191c0 <pmm_manager>
    80003c9c:	601c                	ld	a5,0(s0)
    80003c9e:	cb99                	beqz	a5,80003cb4 <alloc_sema+0x48>
    80003ca0:	02040413          	addi	s0,s0,32
    80003ca4:	fee41ce3          	bne	s0,a4,80003c9c <alloc_sema+0x30>
    80003ca8:	00005517          	auipc	a0,0x5
    80003cac:	be050513          	addi	a0,a0,-1056 # 80008888 <illegal_insn_trap_table+0x94c>
    80003cb0:	ccafd0ef          	jal	ra,8000117a <do_panic>
    80003cb4:	47b2                	lw	a5,12(sp)
    80003cb6:	01040513          	addi	a0,s0,16
    80003cba:	e004                	sd	s1,0(s0)
    80003cbc:	c41c                	sw	a5,8(s0)
    80003cbe:	058000ef          	jal	ra,80003d16 <wait_queue_init>
    80003cc2:	4414                	lw	a3,8(s0)
    80003cc4:	8622                	mv	a2,s0
    80003cc6:	85a6                	mv	a1,s1
    80003cc8:	00005517          	auipc	a0,0x5
    80003ccc:	b9850513          	addi	a0,a0,-1128 # 80008860 <illegal_insn_trap_table+0x924>
    80003cd0:	bdafd0ef          	jal	ra,800010aa <printk>
    80003cd4:	70a2                	ld	ra,40(sp)
    80003cd6:	8522                	mv	a0,s0
    80003cd8:	7402                	ld	s0,32(sp)
    80003cda:	64e2                	ld	s1,24(sp)
    80003cdc:	6145                	addi	sp,sp,48
    80003cde:	8082                	ret

0000000080003ce0 <find_sema>:
    80003ce0:	872a                	mv	a4,a0
    80003ce2:	00015697          	auipc	a3,0x15
    80003ce6:	4de68693          	addi	a3,a3,1246 # 800191c0 <pmm_manager>
    80003cea:	00015517          	auipc	a0,0x15
    80003cee:	39650513          	addi	a0,a0,918 # 80019080 <sema_q>
    80003cf2:	611c                	ld	a5,0(a0)
    80003cf4:	00e78763          	beq	a5,a4,80003d02 <find_sema+0x22>
    80003cf8:	02050513          	addi	a0,a0,32
    80003cfc:	fed51be3          	bne	a0,a3,80003cf2 <find_sema+0x12>
    80003d00:	4501                	li	a0,0
    80003d02:	8082                	ret

0000000080003d04 <wait_init>:
    80003d04:	4785                	li	a5,1
    80003d06:	01850713          	addi	a4,a0,24
    80003d0a:	07fe                	slli	a5,a5,0x1f
    80003d0c:	e10c                	sd	a1,0(a0)
    80003d0e:	e51c                	sd	a5,8(a0)
    80003d10:	f118                	sd	a4,32(a0)
    80003d12:	ed18                	sd	a4,24(a0)
    80003d14:	8082                	ret

0000000080003d16 <wait_queue_init>:
    80003d16:	e508                	sd	a0,8(a0)
    80003d18:	e108                	sd	a0,0(a0)
    80003d1a:	8082                	ret

0000000080003d1c <wait_queue_add>:
    80003d1c:	7198                	ld	a4,32(a1)
    80003d1e:	01858793          	addi	a5,a1,24
    80003d22:	00e79b63          	bne	a5,a4,80003d38 <wait_queue_add+0x1c>
    80003d26:	6198                	ld	a4,0(a1)
    80003d28:	cb01                	beqz	a4,80003d38 <wait_queue_add+0x1c>
    80003d2a:	6118                	ld	a4,0(a0)
    80003d2c:	e988                	sd	a0,16(a1)
    80003d2e:	e11c                	sd	a5,0(a0)
    80003d30:	e71c                	sd	a5,8(a4)
    80003d32:	f188                	sd	a0,32(a1)
    80003d34:	ed98                	sd	a4,24(a1)
    80003d36:	8082                	ret
    80003d38:	1141                	addi	sp,sp,-16
    80003d3a:	00005517          	auipc	a0,0x5
    80003d3e:	b5e50513          	addi	a0,a0,-1186 # 80008898 <illegal_insn_trap_table+0x95c>
    80003d42:	e406                	sd	ra,8(sp)
    80003d44:	c5afd0ef          	jal	ra,8000119e <kassert_fail>

0000000080003d48 <wait_queue_del>:
    80003d48:	7198                	ld	a4,32(a1)
    80003d4a:	01858793          	addi	a5,a1,24
    80003d4e:	00e78b63          	beq	a5,a4,80003d64 <wait_queue_del+0x1c>
    80003d52:	6994                	ld	a3,16(a1)
    80003d54:	00a69863          	bne	a3,a0,80003d64 <wait_queue_del+0x1c>
    80003d58:	6d94                	ld	a3,24(a1)
    80003d5a:	e698                	sd	a4,8(a3)
    80003d5c:	e314                	sd	a3,0(a4)
    80003d5e:	f19c                	sd	a5,32(a1)
    80003d60:	ed9c                	sd	a5,24(a1)
    80003d62:	8082                	ret
    80003d64:	1141                	addi	sp,sp,-16
    80003d66:	00005517          	auipc	a0,0x5
    80003d6a:	b6a50513          	addi	a0,a0,-1174 # 800088d0 <illegal_insn_trap_table+0x994>
    80003d6e:	e406                	sd	ra,8(sp)
    80003d70:	c2efd0ef          	jal	ra,8000119e <kassert_fail>

0000000080003d74 <wait_queue_next>:
    80003d74:	719c                	ld	a5,32(a1)
    80003d76:	01858713          	addi	a4,a1,24
    80003d7a:	00e78b63          	beq	a5,a4,80003d90 <wait_queue_next+0x1c>
    80003d7e:	6998                	ld	a4,16(a1)
    80003d80:	00a71863          	bne	a4,a0,80003d90 <wait_queue_next+0x1c>
    80003d84:	4501                	li	a0,0
    80003d86:	00f70463          	beq	a4,a5,80003d8e <wait_queue_next+0x1a>
    80003d8a:	fe878513          	addi	a0,a5,-24
    80003d8e:	8082                	ret
    80003d90:	1141                	addi	sp,sp,-16
    80003d92:	00005517          	auipc	a0,0x5
    80003d96:	b3e50513          	addi	a0,a0,-1218 # 800088d0 <illegal_insn_trap_table+0x994>
    80003d9a:	e406                	sd	ra,8(sp)
    80003d9c:	c02fd0ef          	jal	ra,8000119e <kassert_fail>

0000000080003da0 <wait_queue_prev>:
    80003da0:	7198                	ld	a4,32(a1)
    80003da2:	01858793          	addi	a5,a1,24
    80003da6:	00f70c63          	beq	a4,a5,80003dbe <wait_queue_prev+0x1e>
    80003daa:	699c                	ld	a5,16(a1)
    80003dac:	00a79963          	bne	a5,a0,80003dbe <wait_queue_prev+0x1e>
    80003db0:	6d98                	ld	a4,24(a1)
    80003db2:	4501                	li	a0,0
    80003db4:	00e78463          	beq	a5,a4,80003dbc <wait_queue_prev+0x1c>
    80003db8:	fe870513          	addi	a0,a4,-24
    80003dbc:	8082                	ret
    80003dbe:	1141                	addi	sp,sp,-16
    80003dc0:	00005517          	auipc	a0,0x5
    80003dc4:	b1050513          	addi	a0,a0,-1264 # 800088d0 <illegal_insn_trap_table+0x994>
    80003dc8:	e406                	sd	ra,8(sp)
    80003dca:	bd4fd0ef          	jal	ra,8000119e <kassert_fail>

0000000080003dce <wait_queue_first>:
    80003dce:	651c                	ld	a5,8(a0)
    80003dd0:	00f50563          	beq	a0,a5,80003dda <wait_queue_first+0xc>
    80003dd4:	fe878513          	addi	a0,a5,-24
    80003dd8:	8082                	ret
    80003dda:	4501                	li	a0,0
    80003ddc:	8082                	ret

0000000080003dde <wait_queue_last>:
    80003dde:	611c                	ld	a5,0(a0)
    80003de0:	00f50563          	beq	a0,a5,80003dea <wait_queue_last+0xc>
    80003de4:	fe878513          	addi	a0,a5,-24
    80003de8:	8082                	ret
    80003dea:	4501                	li	a0,0
    80003dec:	8082                	ret

0000000080003dee <wait_queue_empty>:
    80003dee:	651c                	ld	a5,8(a0)
    80003df0:	40a78533          	sub	a0,a5,a0
    80003df4:	00153513          	seqz	a0,a0
    80003df8:	8082                	ret

0000000080003dfa <wait_in_queue>:
    80003dfa:	711c                	ld	a5,32(a0)
    80003dfc:	0561                	addi	a0,a0,24
    80003dfe:	40a78533          	sub	a0,a5,a0
    80003e02:	00a03533          	snez	a0,a0
    80003e06:	8082                	ret

0000000080003e08 <wakeup_wait>:
    80003e08:	1101                	addi	sp,sp,-32
    80003e0a:	e822                	sd	s0,16(sp)
    80003e0c:	e426                	sd	s1,8(sp)
    80003e0e:	ec06                	sd	ra,24(sp)
    80003e10:	842e                	mv	s0,a1
    80003e12:	84b2                	mv	s1,a2
    80003e14:	ea89                	bnez	a3,80003e26 <wakeup_wait+0x1e>
    80003e16:	e404                	sd	s1,8(s0)
    80003e18:	6008                	ld	a0,0(s0)
    80003e1a:	6442                	ld	s0,16(sp)
    80003e1c:	60e2                	ld	ra,24(sp)
    80003e1e:	64a2                	ld	s1,8(sp)
    80003e20:	6105                	addi	sp,sp,32
    80003e22:	9a9ff06f          	j	800037ca <wakeup_proc>
    80003e26:	f23ff0ef          	jal	ra,80003d48 <wait_queue_del>
    80003e2a:	6008                	ld	a0,0(s0)
    80003e2c:	e404                	sd	s1,8(s0)
    80003e2e:	6442                	ld	s0,16(sp)
    80003e30:	60e2                	ld	ra,24(sp)
    80003e32:	64a2                	ld	s1,8(sp)
    80003e34:	6105                	addi	sp,sp,32
    80003e36:	995ff06f          	j	800037ca <wakeup_proc>

0000000080003e3a <wakeup_first>:
    80003e3a:	1101                	addi	sp,sp,-32
    80003e3c:	e822                	sd	s0,16(sp)
    80003e3e:	6500                	ld	s0,8(a0)
    80003e40:	ec06                	sd	ra,24(sp)
    80003e42:	e426                	sd	s1,8(sp)
    80003e44:	02a40163          	beq	s0,a0,80003e66 <wakeup_first+0x2c>
    80003e48:	84ae                	mv	s1,a1
    80003e4a:	fe840593          	addi	a1,s0,-24
    80003e4e:	cd81                	beqz	a1,80003e66 <wakeup_first+0x2c>
    80003e50:	e205                	bnez	a2,80003e70 <wakeup_first+0x36>
    80003e52:	fe943823          	sd	s1,-16(s0)
    80003e56:	fe843503          	ld	a0,-24(s0)
    80003e5a:	6442                	ld	s0,16(sp)
    80003e5c:	60e2                	ld	ra,24(sp)
    80003e5e:	64a2                	ld	s1,8(sp)
    80003e60:	6105                	addi	sp,sp,32
    80003e62:	969ff06f          	j	800037ca <wakeup_proc>
    80003e66:	60e2                	ld	ra,24(sp)
    80003e68:	6442                	ld	s0,16(sp)
    80003e6a:	64a2                	ld	s1,8(sp)
    80003e6c:	6105                	addi	sp,sp,32
    80003e6e:	8082                	ret
    80003e70:	ed9ff0ef          	jal	ra,80003d48 <wait_queue_del>
    80003e74:	fe843503          	ld	a0,-24(s0)
    80003e78:	fe943823          	sd	s1,-16(s0)
    80003e7c:	6442                	ld	s0,16(sp)
    80003e7e:	60e2                	ld	ra,24(sp)
    80003e80:	64a2                	ld	s1,8(sp)
    80003e82:	6105                	addi	sp,sp,32
    80003e84:	947ff06f          	j	800037ca <wakeup_proc>

0000000080003e88 <wakeup_queue>:
    80003e88:	1101                	addi	sp,sp,-32
    80003e8a:	e822                	sd	s0,16(sp)
    80003e8c:	6500                	ld	s0,8(a0)
    80003e8e:	ec06                	sd	ra,24(sp)
    80003e90:	e426                	sd	s1,8(sp)
    80003e92:	e04a                	sd	s2,0(sp)
    80003e94:	02a40963          	beq	s0,a0,80003ec6 <wakeup_queue+0x3e>
    80003e98:	1421                	addi	s0,s0,-24
    80003e9a:	c415                	beqz	s0,80003ec6 <wakeup_queue+0x3e>
    80003e9c:	84aa                	mv	s1,a0
    80003e9e:	892e                	mv	s2,a1
    80003ea0:	ea0d                	bnez	a2,80003ed2 <wakeup_queue+0x4a>
    80003ea2:	6008                	ld	a0,0(s0)
    80003ea4:	01243423          	sd	s2,8(s0)
    80003ea8:	923ff0ef          	jal	ra,800037ca <wakeup_proc>
    80003eac:	701c                	ld	a5,32(s0)
    80003eae:	01840713          	addi	a4,s0,24
    80003eb2:	02e78f63          	beq	a5,a4,80003ef0 <wakeup_queue+0x68>
    80003eb6:	6818                	ld	a4,16(s0)
    80003eb8:	02e49c63          	bne	s1,a4,80003ef0 <wakeup_queue+0x68>
    80003ebc:	00f48563          	beq	s1,a5,80003ec6 <wakeup_queue+0x3e>
    80003ec0:	fe878413          	addi	s0,a5,-24
    80003ec4:	fc79                	bnez	s0,80003ea2 <wakeup_queue+0x1a>
    80003ec6:	60e2                	ld	ra,24(sp)
    80003ec8:	6442                	ld	s0,16(sp)
    80003eca:	64a2                	ld	s1,8(sp)
    80003ecc:	6902                	ld	s2,0(sp)
    80003ece:	6105                	addi	sp,sp,32
    80003ed0:	8082                	ret
    80003ed2:	85a2                	mv	a1,s0
    80003ed4:	8526                	mv	a0,s1
    80003ed6:	e73ff0ef          	jal	ra,80003d48 <wait_queue_del>
    80003eda:	6008                	ld	a0,0(s0)
    80003edc:	01243423          	sd	s2,8(s0)
    80003ee0:	8ebff0ef          	jal	ra,800037ca <wakeup_proc>
    80003ee4:	6480                	ld	s0,8(s1)
    80003ee6:	fe8480e3          	beq	s1,s0,80003ec6 <wakeup_queue+0x3e>
    80003eea:	1421                	addi	s0,s0,-24
    80003eec:	f07d                	bnez	s0,80003ed2 <wakeup_queue+0x4a>
    80003eee:	bfe1                	j	80003ec6 <wakeup_queue+0x3e>
    80003ef0:	00005517          	auipc	a0,0x5
    80003ef4:	9e050513          	addi	a0,a0,-1568 # 800088d0 <illegal_insn_trap_table+0x994>
    80003ef8:	aa6fd0ef          	jal	ra,8000119e <kassert_fail>

0000000080003efc <wait_current_set>:
    80003efc:	00015717          	auipc	a4,0x15
    80003f00:	15473703          	ld	a4,340(a4) # 80019050 <currentproc>
    80003f04:	c30d                	beqz	a4,80003f26 <wait_current_set+0x2a>
    80003f06:	4685                	li	a3,1
    80003f08:	01858813          	addi	a6,a1,24
    80003f0c:	01f69893          	slli	a7,a3,0x1f
    80003f10:	e198                	sd	a4,0(a1)
    80003f12:	0115b423          	sd	a7,8(a1)
    80003f16:	0305b023          	sd	a6,32(a1)
    80003f1a:	0105bc23          	sd	a6,24(a1)
    80003f1e:	cf54                	sw	a3,28(a4)
    80003f20:	0ec72823          	sw	a2,240(a4)
    80003f24:	bbe5                	j	80003d1c <wait_queue_add>
    80003f26:	1141                	addi	sp,sp,-16
    80003f28:	00005517          	auipc	a0,0x5
    80003f2c:	9e850513          	addi	a0,a0,-1560 # 80008910 <illegal_insn_trap_table+0x9d4>
    80003f30:	e406                	sd	ra,8(sp)
    80003f32:	a6cfd0ef          	jal	ra,8000119e <kassert_fail>

0000000080003f36 <handle_breakpoint>:
    80003f36:	1141                	addi	sp,sp,-16
    80003f38:	e406                	sd	ra,8(sp)
    80003f3a:	e022                	sd	s0,0(sp)
    80003f3c:	842a                	mv	s0,a0
    80003f3e:	990fd0ef          	jal	ra,800010ce <dump_tf>
    80003f42:	00005517          	auipc	a0,0x5
    80003f46:	9e650513          	addi	a0,a0,-1562 # 80008928 <illegal_insn_trap_table+0x9ec>
    80003f4a:	960fd0ef          	jal	ra,800010aa <printk>
    80003f4e:	10843783          	ld	a5,264(s0)
    80003f52:	60a2                	ld	ra,8(sp)
    80003f54:	0791                	addi	a5,a5,4
    80003f56:	10f43423          	sd	a5,264(s0)
    80003f5a:	6402                	ld	s0,0(sp)
    80003f5c:	0141                	addi	sp,sp,16
    80003f5e:	8082                	ret

0000000080003f60 <segfault>:
    80003f60:	1101                	addi	sp,sp,-32
    80003f62:	e822                	sd	s0,16(sp)
    80003f64:	e426                	sd	s1,8(sp)
    80003f66:	e04a                	sd	s2,0(sp)
    80003f68:	84ae                	mv	s1,a1
    80003f6a:	892a                	mv	s2,a0
    80003f6c:	ec06                	sd	ra,24(sp)
    80003f6e:	8432                	mv	s0,a2
    80003f70:	95efd0ef          	jal	ra,800010ce <dump_tf>
    80003f74:	10093783          	ld	a5,256(s2)
    80003f78:	00005597          	auipc	a1,0x5
    80003f7c:	9c858593          	addi	a1,a1,-1592 # 80008940 <illegal_insn_trap_table+0xa04>
    80003f80:	1007f793          	andi	a5,a5,256
    80003f84:	c789                	beqz	a5,80003f8e <segfault+0x2e>
    80003f86:	00005597          	auipc	a1,0x5
    80003f8a:	9b258593          	addi	a1,a1,-1614 # 80008938 <illegal_insn_trap_table+0x9fc>
    80003f8e:	86a6                	mv	a3,s1
    80003f90:	8622                	mv	a2,s0
    80003f92:	00005517          	auipc	a0,0x5
    80003f96:	9b650513          	addi	a0,a0,-1610 # 80008948 <illegal_insn_trap_table+0xa0c>
    80003f9a:	9e0fd0ef          	jal	ra,8000117a <do_panic>

0000000080003f9e <handle_store_access_fault>:
    80003f9e:	1141                	addi	sp,sp,-16
    80003fa0:	e406                	sd	ra,8(sp)
    80003fa2:	92cfd0ef          	jal	ra,800010ce <dump_tf>
    80003fa6:	00005517          	auipc	a0,0x5
    80003faa:	9ba50513          	addi	a0,a0,-1606 # 80008960 <illegal_insn_trap_table+0xa24>
    80003fae:	9ccfd0ef          	jal	ra,8000117a <do_panic>

0000000080003fb2 <handle_misaligned_store>:
    80003fb2:	1141                	addi	sp,sp,-16
    80003fb4:	e406                	sd	ra,8(sp)
    80003fb6:	918fd0ef          	jal	ra,800010ce <dump_tf>
    80003fba:	00005517          	auipc	a0,0x5
    80003fbe:	9c650513          	addi	a0,a0,-1594 # 80008980 <illegal_insn_trap_table+0xa44>
    80003fc2:	9b8fd0ef          	jal	ra,8000117a <do_panic>

0000000080003fc6 <handle_load_access_fault>:
    80003fc6:	1141                	addi	sp,sp,-16
    80003fc8:	e406                	sd	ra,8(sp)
    80003fca:	904fd0ef          	jal	ra,800010ce <dump_tf>
    80003fce:	00005517          	auipc	a0,0x5
    80003fd2:	9ca50513          	addi	a0,a0,-1590 # 80008998 <illegal_insn_trap_table+0xa5c>
    80003fd6:	9a4fd0ef          	jal	ra,8000117a <do_panic>

0000000080003fda <handle_misaligned_load>:
    80003fda:	1141                	addi	sp,sp,-16
    80003fdc:	e406                	sd	ra,8(sp)
    80003fde:	8f0fd0ef          	jal	ra,800010ce <dump_tf>
    80003fe2:	00005517          	auipc	a0,0x5
    80003fe6:	9ce50513          	addi	a0,a0,-1586 # 800089b0 <illegal_insn_trap_table+0xa74>
    80003fea:	990fd0ef          	jal	ra,8000117a <do_panic>

0000000080003fee <handle_illegal_instruction>:
    80003fee:	10853703          	ld	a4,264(a0)
    80003ff2:	1141                	addi	sp,sp,-16
    80003ff4:	e406                	sd	ra,8(sp)
    80003ff6:	00075783          	lhu	a5,0(a4)
    80003ffa:	468d                	li	a3,3
    80003ffc:	12f53023          	sd	a5,288(a0)
    80004000:	0037f613          	andi	a2,a5,3
    80004004:	00d61863          	bne	a2,a3,80004014 <handle_illegal_instruction+0x26>
    80004008:	00275703          	lhu	a4,2(a4)
    8000400c:	0742                	slli	a4,a4,0x10
    8000400e:	8fd9                	or	a5,a5,a4
    80004010:	12f53023          	sd	a5,288(a0)
    80004014:	8bafd0ef          	jal	ra,800010ce <dump_tf>
    80004018:	00005517          	auipc	a0,0x5
    8000401c:	9b050513          	addi	a0,a0,-1616 # 800089c8 <illegal_insn_trap_table+0xa8c>
    80004020:	95afd0ef          	jal	ra,8000117a <do_panic>

0000000080004024 <handle_misaligned_fetch>:
    80004024:	1141                	addi	sp,sp,-16
    80004026:	e406                	sd	ra,8(sp)
    80004028:	8a6fd0ef          	jal	ra,800010ce <dump_tf>
    8000402c:	00005517          	auipc	a0,0x5
    80004030:	9c450513          	addi	a0,a0,-1596 # 800089f0 <illegal_insn_trap_table+0xab4>
    80004034:	946fd0ef          	jal	ra,8000117a <do_panic>

0000000080004038 <handle_syscall>:
    80004038:	10853883          	ld	a7,264(a0)
    8000403c:	1141                	addi	sp,sp,-16
    8000403e:	e022                	sd	s0,0(sp)
    80004040:	08853803          	ld	a6,136(a0)
    80004044:	842a                	mv	s0,a0
    80004046:	7d3c                	ld	a5,120(a0)
    80004048:	7938                	ld	a4,112(a0)
    8000404a:	7534                	ld	a3,104(a0)
    8000404c:	7130                	ld	a2,96(a0)
    8000404e:	6d2c                	ld	a1,88(a0)
    80004050:	6928                	ld	a0,80(a0)
    80004052:	e406                	sd	ra,8(sp)
    80004054:	0891                	addi	a7,a7,4
    80004056:	11143423          	sd	a7,264(s0)
    8000405a:	1c5000ef          	jal	ra,80004a1e <do_syscall>
    8000405e:	60a2                	ld	ra,8(sp)
    80004060:	e828                	sd	a0,80(s0)
    80004062:	6402                	ld	s0,0(sp)
    80004064:	0141                	addi	sp,sp,16
    80004066:	8082                	ret

0000000080004068 <handle_fault_store>:
    80004068:	1141                	addi	sp,sp,-16
    8000406a:	e022                	sd	s0,0(sp)
    8000406c:	842a                	mv	s0,a0
    8000406e:	11053503          	ld	a0,272(a0)
    80004072:	4589                	li	a1,2
    80004074:	e406                	sd	ra,8(sp)
    80004076:	aa9fd0ef          	jal	ra,80001b1e <handle_page_fault>
    8000407a:	e509                	bnez	a0,80004084 <handle_fault_store+0x1c>
    8000407c:	60a2                	ld	ra,8(sp)
    8000407e:	6402                	ld	s0,0(sp)
    80004080:	0141                	addi	sp,sp,16
    80004082:	8082                	ret
    80004084:	11043583          	ld	a1,272(s0)
    80004088:	00005617          	auipc	a2,0x5
    8000408c:	98860613          	addi	a2,a2,-1656 # 80008a10 <illegal_insn_trap_table+0xad4>
    80004090:	8522                	mv	a0,s0
    80004092:	ecfff0ef          	jal	ra,80003f60 <segfault>

0000000080004096 <handle_fault_load>:
    80004096:	1141                	addi	sp,sp,-16
    80004098:	e022                	sd	s0,0(sp)
    8000409a:	842a                	mv	s0,a0
    8000409c:	11053503          	ld	a0,272(a0)
    800040a0:	4585                	li	a1,1
    800040a2:	e406                	sd	ra,8(sp)
    800040a4:	a7bfd0ef          	jal	ra,80001b1e <handle_page_fault>
    800040a8:	e509                	bnez	a0,800040b2 <handle_fault_load+0x1c>
    800040aa:	60a2                	ld	ra,8(sp)
    800040ac:	6402                	ld	s0,0(sp)
    800040ae:	0141                	addi	sp,sp,16
    800040b0:	8082                	ret
    800040b2:	11043583          	ld	a1,272(s0)
    800040b6:	00005617          	auipc	a2,0x5
    800040ba:	96260613          	addi	a2,a2,-1694 # 80008a18 <illegal_insn_trap_table+0xadc>
    800040be:	8522                	mv	a0,s0
    800040c0:	ea1ff0ef          	jal	ra,80003f60 <segfault>

00000000800040c4 <handle_fault_fetch>:
    800040c4:	1141                	addi	sp,sp,-16
    800040c6:	e022                	sd	s0,0(sp)
    800040c8:	842a                	mv	s0,a0
    800040ca:	11053503          	ld	a0,272(a0)
    800040ce:	4591                	li	a1,4
    800040d0:	e406                	sd	ra,8(sp)
    800040d2:	a4dfd0ef          	jal	ra,80001b1e <handle_page_fault>
    800040d6:	e509                	bnez	a0,800040e0 <handle_fault_fetch+0x1c>
    800040d8:	60a2                	ld	ra,8(sp)
    800040da:	6402                	ld	s0,0(sp)
    800040dc:	0141                	addi	sp,sp,16
    800040de:	8082                	ret
    800040e0:	11043583          	ld	a1,272(s0)
    800040e4:	00005617          	auipc	a2,0x5
    800040e8:	93c60613          	addi	a2,a2,-1732 # 80008a20 <illegal_insn_trap_table+0xae4>
    800040ec:	8522                	mv	a0,s0
    800040ee:	e73ff0ef          	jal	ra,80003f60 <segfault>

00000000800040f2 <handle_instruction_access_fault>:
    800040f2:	11053503          	ld	a0,272(a0)
    800040f6:	1141                	addi	sp,sp,-16
    800040f8:	4591                	li	a1,4
    800040fa:	e406                	sd	ra,8(sp)
    800040fc:	a23fd0ef          	jal	ra,80001b1e <handle_page_fault>
    80004100:	e501                	bnez	a0,80004108 <handle_instruction_access_fault+0x16>
    80004102:	60a2                	ld	ra,8(sp)
    80004104:	0141                	addi	sp,sp,16
    80004106:	8082                	ret
    80004108:	00015797          	auipc	a5,0x15
    8000410c:	f487b783          	ld	a5,-184(a5) # 80019050 <currentproc>
    80004110:	63e8                	ld	a0,192(a5)
    80004112:	ceefe0ef          	jal	ra,80002600 <vmprint>
    80004116:	00005517          	auipc	a0,0x5
    8000411a:	91250513          	addi	a0,a0,-1774 # 80008a28 <illegal_insn_trap_table+0xaec>
    8000411e:	85cfd0ef          	jal	ra,8000117a <do_panic>

0000000080004122 <print_trapframe>:
    80004122:	10053583          	ld	a1,256(a0)
    80004126:	1141                	addi	sp,sp,-16
    80004128:	e022                	sd	s0,0(sp)
    8000412a:	842a                	mv	s0,a0
    8000412c:	00005517          	auipc	a0,0x5
    80004130:	91c50513          	addi	a0,a0,-1764 # 80008a48 <illegal_insn_trap_table+0xb0c>
    80004134:	e406                	sd	ra,8(sp)
    80004136:	f75fc0ef          	jal	ra,800010aa <printk>
    8000413a:	10843583          	ld	a1,264(s0)
    8000413e:	00005517          	auipc	a0,0x5
    80004142:	92250513          	addi	a0,a0,-1758 # 80008a60 <illegal_insn_trap_table+0xb24>
    80004146:	f65fc0ef          	jal	ra,800010aa <printk>
    8000414a:	11043583          	ld	a1,272(s0)
    8000414e:	00005517          	auipc	a0,0x5
    80004152:	92a50513          	addi	a0,a0,-1750 # 80008a78 <illegal_insn_trap_table+0xb3c>
    80004156:	f55fc0ef          	jal	ra,800010aa <printk>
    8000415a:	11843583          	ld	a1,280(s0)
    8000415e:	6402                	ld	s0,0(sp)
    80004160:	60a2                	ld	ra,8(sp)
    80004162:	00005517          	auipc	a0,0x5
    80004166:	92e50513          	addi	a0,a0,-1746 # 80008a90 <illegal_insn_trap_table+0xb54>
    8000416a:	0141                	addi	sp,sp,16
    8000416c:	f3ffc06f          	j	800010aa <printk>

0000000080004170 <handle_trap>:
    80004170:	11853783          	ld	a5,280(a0)
    80004174:	1141                	addi	sp,sp,-16
    80004176:	e406                	sd	ra,8(sp)
    80004178:	e022                	sd	s0,0(sp)
    8000417a:	0207ce63          	bltz	a5,800041b6 <handle_trap+0x46>
    8000417e:	473d                	li	a4,15
    80004180:	08f74863          	blt	a4,a5,80004210 <handle_trap+0xa0>
    80004184:	078e                	slli	a5,a5,0x3
    80004186:	00003717          	auipc	a4,0x3
    8000418a:	4a270713          	addi	a4,a4,1186 # 80007628 <trap_handlers.3427>
    8000418e:	97ba                	add	a5,a5,a4
    80004190:	639c                	ld	a5,0(a5)
    80004192:	cfbd                	beqz	a5,80004210 <handle_trap+0xa0>
    80004194:	842a                	mv	s0,a0
    80004196:	9782                	jalr	a5
    80004198:	00015797          	auipc	a5,0x15
    8000419c:	eb87b783          	ld	a5,-328(a5) # 80019050 <currentproc>
    800041a0:	63ec                	ld	a1,192(a5)
    800041a2:	8522                	mv	a0,s0
    800041a4:	6402                	ld	s0,0(sp)
    800041a6:	60a2                	ld	ra,8(sp)
    800041a8:	57fd                	li	a5,-1
    800041aa:	81b1                	srli	a1,a1,0xc
    800041ac:	17fe                	slli	a5,a5,0x3f
    800041ae:	8ddd                	or	a1,a1,a5
    800041b0:	0141                	addi	sp,sp,16
    800041b2:	f8cfe06f          	j	8000293e <forkrets>
    800041b6:	0786                	slli	a5,a5,0x1
    800041b8:	8785                	srai	a5,a5,0x1
    800041ba:	4715                	li	a4,5
    800041bc:	00e78663          	beq	a5,a4,800041c8 <handle_trap+0x58>
    800041c0:	60a2                	ld	ra,8(sp)
    800041c2:	6402                	ld	s0,0(sp)
    800041c4:	0141                	addi	sp,sp,16
    800041c6:	8082                	ret
    800041c8:	ce4ff0ef          	jal	ra,800036ac <clock_set_next_event>
    800041cc:	00015697          	auipc	a3,0x15
    800041d0:	0fc68693          	addi	a3,a3,252 # 800192c8 <ticks>
    800041d4:	6298                	ld	a4,0(a3)
    800041d6:	00015797          	auipc	a5,0x15
    800041da:	e7a7b783          	ld	a5,-390(a5) # 80019050 <currentproc>
    800041de:	00015617          	auipc	a2,0x15
    800041e2:	e8263603          	ld	a2,-382(a2) # 80019060 <idleproc>
    800041e6:	0705                	addi	a4,a4,1
    800041e8:	e298                	sd	a4,0(a3)
    800041ea:	02c78063          	beq	a5,a2,8000420a <handle_trap+0x9a>
    800041ee:	4f98                	lw	a4,24(a5)
    800041f0:	cf09                	beqz	a4,8000420a <handle_trap+0x9a>
    800041f2:	00e05463          	blez	a4,800041fa <handle_trap+0x8a>
    800041f6:	377d                	addiw	a4,a4,-1
    800041f8:	cf98                	sw	a4,24(a5)
    800041fa:	5f9c                	lw	a5,56(a5)
    800041fc:	2781                	sext.w	a5,a5
    800041fe:	d3e9                	beqz	a5,800041c0 <handle_trap+0x50>
    80004200:	6402                	ld	s0,0(sp)
    80004202:	60a2                	ld	ra,8(sp)
    80004204:	0141                	addi	sp,sp,16
    80004206:	fbeff06f          	j	800039c4 <schedule>
    8000420a:	4705                	li	a4,1
    8000420c:	df98                	sw	a4,56(a5)
    8000420e:	b7f5                	j	800041fa <handle_trap+0x8a>
    80004210:	00005517          	auipc	a0,0x5
    80004214:	89850513          	addi	a0,a0,-1896 # 80008aa8 <illegal_insn_trap_table+0xb6c>
    80004218:	f87fc0ef          	jal	ra,8000119e <kassert_fail>

000000008000421c <sys_getpid>:
    8000421c:	00015797          	auipc	a5,0x15
    80004220:	e347b783          	ld	a5,-460(a5) # 80019050 <currentproc>
    80004224:	5388                	lw	a0,32(a5)
    80004226:	8082                	ret

0000000080004228 <sys_times>:
    80004228:	87aa                	mv	a5,a0
    8000422a:	c0002773          	rdcycle	a4
    8000422e:	3e800693          	li	a3,1000
    80004232:	02d75733          	divu	a4,a4,a3
    80004236:	00053423          	sd	zero,8(a0)
    8000423a:	00053823          	sd	zero,16(a0)
    8000423e:	00053c23          	sd	zero,24(a0)
    80004242:	4501                	li	a0,0
    80004244:	e398                	sd	a4,0(a5)
    80004246:	8082                	ret

0000000080004248 <sys_stub_nosys>:
    80004248:	fa800513          	li	a0,-88
    8000424c:	8082                	ret

000000008000424e <sys_get_init_memsize>:
    8000424e:	00015597          	auipc	a1,0x15
    80004252:	0925b583          	ld	a1,146(a1) # 800192e0 <mem_size>
    80004256:	00005517          	auipc	a0,0x5
    8000425a:	89a50513          	addi	a0,a0,-1894 # 80008af0 <illegal_insn_trap_table+0xbb4>
    8000425e:	e4dfc06f          	j	800010aa <printk>

0000000080004262 <sys_stub_success>:
    80004262:	1141                	addi	sp,sp,-16
    80004264:	00005517          	auipc	a0,0x5
    80004268:	8ac50513          	addi	a0,a0,-1876 # 80008b10 <illegal_insn_trap_table+0xbd4>
    8000426c:	e406                	sd	ra,8(sp)
    8000426e:	e3dfc0ef          	jal	ra,800010aa <printk>
    80004272:	60a2                	ld	ra,8(sp)
    80004274:	4501                	li	a0,0
    80004276:	0141                	addi	sp,sp,16
    80004278:	8082                	ret

000000008000427a <sys_exit>:
    8000427a:	1101                	addi	sp,sp,-32
    8000427c:	e822                	sd	s0,16(sp)
    8000427e:	ec06                	sd	ra,24(sp)
    80004280:	e426                	sd	s1,8(sp)
    80004282:	e04a                	sd	s2,0(sp)
    80004284:	842a                	mv	s0,a0
    80004286:	a7aff0ef          	jal	ra,80003500 <do_exit>
    8000428a:	00015797          	auipc	a5,0x15
    8000428e:	f4678793          	addi	a5,a5,-186 # 800191d0 <current>
    80004292:	73b8                	ld	a4,96(a5)
    80004294:	e701                	bnez	a4,8000429c <sys_exit+0x22>
    80004296:	8522                	mv	a0,s0
    80004298:	f6cfc0ef          	jal	ra,80000a04 <shutdown>
    8000429c:	c01025f3          	rdtime	a1
    800042a0:	c0002973          	rdcycle	s2
    800042a4:	40e90933          	sub	s2,s2,a4
    800042a8:	c02024f3          	rdinstret	s1
    800042ac:	6fb8                	ld	a4,88(a5)
    800042ae:	77bc                	ld	a5,104(a5)
    800042b0:	00005517          	auipc	a0,0x5
    800042b4:	87850513          	addi	a0,a0,-1928 # 80008b28 <illegal_insn_trap_table+0xbec>
    800042b8:	8d99                	sub	a1,a1,a4
    800042ba:	8c9d                	sub	s1,s1,a5
    800042bc:	deffc0ef          	jal	ra,800010aa <printk>
    800042c0:	85ca                	mv	a1,s2
    800042c2:	00005517          	auipc	a0,0x5
    800042c6:	87650513          	addi	a0,a0,-1930 # 80008b38 <illegal_insn_trap_table+0xbfc>
    800042ca:	de1fc0ef          	jal	ra,800010aa <printk>
    800042ce:	85a6                	mv	a1,s1
    800042d0:	00005517          	auipc	a0,0x5
    800042d4:	87850513          	addi	a0,a0,-1928 # 80008b48 <illegal_insn_trap_table+0xc0c>
    800042d8:	dd3fc0ef          	jal	ra,800010aa <printk>
    800042dc:	06400693          	li	a3,100
    800042e0:	47a9                	li	a5,10
    800042e2:	02d906b3          	mul	a3,s2,a3
    800042e6:	0014d713          	srli	a4,s1,0x1
    800042ea:	00005517          	auipc	a0,0x5
    800042ee:	87650513          	addi	a0,a0,-1930 # 80008b60 <illegal_insn_trap_table+0xc24>
    800042f2:	02f90633          	mul	a2,s2,a5
    800042f6:	96ba                	add	a3,a3,a4
    800042f8:	0296d6b3          	divu	a3,a3,s1
    800042fc:	02965633          	divu	a2,a2,s1
    80004300:	02f6f6b3          	remu	a3,a3,a5
    80004304:	02f67633          	remu	a2,a2,a5
    80004308:	029955b3          	divu	a1,s2,s1
    8000430c:	d9ffc0ef          	jal	ra,800010aa <printk>
    80004310:	b759                	j	80004296 <sys_exit+0x1c>

0000000080004312 <sys_read>:
    80004312:	1101                	addi	sp,sp,-32
    80004314:	e426                	sd	s1,8(sp)
    80004316:	e04a                	sd	s2,0(sp)
    80004318:	ec06                	sd	ra,24(sp)
    8000431a:	e822                	sd	s0,16(sp)
    8000431c:	84ae                	mv	s1,a1
    8000431e:	8932                	mv	s2,a2
    80004320:	a98fc0ef          	jal	ra,800005b8 <file_get>
    80004324:	c51d                	beqz	a0,80004352 <sys_read+0x40>
    80004326:	00015797          	auipc	a5,0x15
    8000432a:	d2a7b783          	ld	a5,-726(a5) # 80019050 <currentproc>
    8000432e:	63f4                	ld	a3,192(a5)
    80004330:	864a                	mv	a2,s2
    80004332:	85a6                	mv	a1,s1
    80004334:	842a                	mv	s0,a0
    80004336:	bc6fc0ef          	jal	ra,800006fc <file_read>
    8000433a:	87aa                	mv	a5,a0
    8000433c:	8522                	mv	a0,s0
    8000433e:	843e                	mv	s0,a5
    80004340:	9d4fc0ef          	jal	ra,80000514 <file_decref>
    80004344:	60e2                	ld	ra,24(sp)
    80004346:	8522                	mv	a0,s0
    80004348:	6442                	ld	s0,16(sp)
    8000434a:	64a2                	ld	s1,8(sp)
    8000434c:	6902                	ld	s2,0(sp)
    8000434e:	6105                	addi	sp,sp,32
    80004350:	8082                	ret
    80004352:	545d                	li	s0,-9
    80004354:	bfc5                	j	80004344 <sys_read+0x32>

0000000080004356 <sys_pread>:
    80004356:	7179                	addi	sp,sp,-48
    80004358:	ec26                	sd	s1,24(sp)
    8000435a:	e84a                	sd	s2,16(sp)
    8000435c:	e44e                	sd	s3,8(sp)
    8000435e:	f406                	sd	ra,40(sp)
    80004360:	f022                	sd	s0,32(sp)
    80004362:	84ae                	mv	s1,a1
    80004364:	8932                	mv	s2,a2
    80004366:	89b6                	mv	s3,a3
    80004368:	a50fc0ef          	jal	ra,800005b8 <file_get>
    8000436c:	c505                	beqz	a0,80004394 <sys_pread+0x3e>
    8000436e:	86ce                	mv	a3,s3
    80004370:	864a                	mv	a2,s2
    80004372:	85a6                	mv	a1,s1
    80004374:	842a                	mv	s0,a0
    80004376:	beafc0ef          	jal	ra,80000760 <file_pread>
    8000437a:	87aa                	mv	a5,a0
    8000437c:	8522                	mv	a0,s0
    8000437e:	843e                	mv	s0,a5
    80004380:	994fc0ef          	jal	ra,80000514 <file_decref>
    80004384:	70a2                	ld	ra,40(sp)
    80004386:	8522                	mv	a0,s0
    80004388:	7402                	ld	s0,32(sp)
    8000438a:	64e2                	ld	s1,24(sp)
    8000438c:	6942                	ld	s2,16(sp)
    8000438e:	69a2                	ld	s3,8(sp)
    80004390:	6145                	addi	sp,sp,48
    80004392:	8082                	ret
    80004394:	545d                	li	s0,-9
    80004396:	b7fd                	j	80004384 <sys_pread+0x2e>

0000000080004398 <sys_write>:
    80004398:	1101                	addi	sp,sp,-32
    8000439a:	e426                	sd	s1,8(sp)
    8000439c:	e04a                	sd	s2,0(sp)
    8000439e:	ec06                	sd	ra,24(sp)
    800043a0:	e822                	sd	s0,16(sp)
    800043a2:	84ae                	mv	s1,a1
    800043a4:	8932                	mv	s2,a2
    800043a6:	a12fc0ef          	jal	ra,800005b8 <file_get>
    800043aa:	c51d                	beqz	a0,800043d8 <sys_write+0x40>
    800043ac:	00015797          	auipc	a5,0x15
    800043b0:	ca47b783          	ld	a5,-860(a5) # 80019050 <currentproc>
    800043b4:	63f4                	ld	a3,192(a5)
    800043b6:	864a                	mv	a2,s2
    800043b8:	85a6                	mv	a1,s1
    800043ba:	842a                	mv	s0,a0
    800043bc:	c96fc0ef          	jal	ra,80000852 <file_write_unfixed>
    800043c0:	87aa                	mv	a5,a0
    800043c2:	8522                	mv	a0,s0
    800043c4:	843e                	mv	s0,a5
    800043c6:	94efc0ef          	jal	ra,80000514 <file_decref>
    800043ca:	60e2                	ld	ra,24(sp)
    800043cc:	8522                	mv	a0,s0
    800043ce:	6442                	ld	s0,16(sp)
    800043d0:	64a2                	ld	s1,8(sp)
    800043d2:	6902                	ld	s2,0(sp)
    800043d4:	6105                	addi	sp,sp,32
    800043d6:	8082                	ret
    800043d8:	545d                	li	s0,-9
    800043da:	bfc5                	j	800043ca <sys_write+0x32>

00000000800043dc <sys_writev>:
    800043dc:	04c05d63          	blez	a2,80004436 <sys_writev+0x5a>
    800043e0:	7179                	addi	sp,sp,-48
    800043e2:	ec26                	sd	s1,24(sp)
    800043e4:	fff6049b          	addiw	s1,a2,-1
    800043e8:	1482                	slli	s1,s1,0x20
    800043ea:	80f1                	srli	s1,s1,0x1c
    800043ec:	01058793          	addi	a5,a1,16
    800043f0:	f022                	sd	s0,32(sp)
    800043f2:	e84a                	sd	s2,16(sp)
    800043f4:	e44e                	sd	s3,8(sp)
    800043f6:	f406                	sd	ra,40(sp)
    800043f8:	89aa                	mv	s3,a0
    800043fa:	842e                	mv	s0,a1
    800043fc:	94be                	add	s1,s1,a5
    800043fe:	4901                	li	s2,0
    80004400:	a021                	j	80004408 <sys_writev+0x2c>
    80004402:	992a                	add	s2,s2,a0
    80004404:	02940163          	beq	s0,s1,80004426 <sys_writev+0x4a>
    80004408:	6410                	ld	a2,8(s0)
    8000440a:	600c                	ld	a1,0(s0)
    8000440c:	854e                	mv	a0,s3
    8000440e:	0441                	addi	s0,s0,16
    80004410:	f89ff0ef          	jal	ra,80004398 <sys_write>
    80004414:	fe0557e3          	bgez	a0,80004402 <sys_writev+0x26>
    80004418:	70a2                	ld	ra,40(sp)
    8000441a:	7402                	ld	s0,32(sp)
    8000441c:	64e2                	ld	s1,24(sp)
    8000441e:	6942                	ld	s2,16(sp)
    80004420:	69a2                	ld	s3,8(sp)
    80004422:	6145                	addi	sp,sp,48
    80004424:	8082                	ret
    80004426:	70a2                	ld	ra,40(sp)
    80004428:	7402                	ld	s0,32(sp)
    8000442a:	64e2                	ld	s1,24(sp)
    8000442c:	69a2                	ld	s3,8(sp)
    8000442e:	854a                	mv	a0,s2
    80004430:	6942                	ld	s2,16(sp)
    80004432:	6145                	addi	sp,sp,48
    80004434:	8082                	ret
    80004436:	4501                	li	a0,0
    80004438:	8082                	ret

000000008000443a <sys_openat>:
    8000443a:	1101                	addi	sp,sp,-32
    8000443c:	e822                	sd	s0,16(sp)
    8000443e:	e426                	sd	s1,8(sp)
    80004440:	e04a                	sd	s2,0(sp)
    80004442:	ec06                	sd	ra,24(sp)
    80004444:	f9c00713          	li	a4,-100
    80004448:	842e                	mv	s0,a1
    8000444a:	84b2                	mv	s1,a2
    8000444c:	8936                	mv	s2,a3
    8000444e:	04e50563          	beq	a0,a4,80004498 <sys_openat+0x5e>
    80004452:	966fc0ef          	jal	ra,800005b8 <file_get>
    80004456:	cd1d                	beqz	a0,80004494 <sys_openat+0x5a>
    80004458:	411c                	lw	a5,0(a0)
    8000445a:	577d                	li	a4,-1
    8000445c:	02e78c63          	beq	a5,a4,80004494 <sys_openat+0x5a>
    80004460:	85a2                	mv	a1,s0
    80004462:	853e                	mv	a0,a5
    80004464:	86ca                	mv	a3,s2
    80004466:	8626                	mv	a2,s1
    80004468:	9b8fc0ef          	jal	ra,80000620 <file_openat>
    8000446c:	77fd                	lui	a5,0xfffff
    8000446e:	842a                	mv	s0,a0
    80004470:	00f56963          	bltu	a0,a5,80004482 <sys_openat+0x48>
    80004474:	2501                	sext.w	a0,a0
    80004476:	60e2                	ld	ra,24(sp)
    80004478:	6442                	ld	s0,16(sp)
    8000447a:	64a2                	ld	s1,8(sp)
    8000447c:	6902                	ld	s2,0(sp)
    8000447e:	6105                	addi	sp,sp,32
    80004480:	8082                	ret
    80004482:	8c6fc0ef          	jal	ra,80000548 <file_dup>
    80004486:	fe0558e3          	bgez	a0,80004476 <sys_openat+0x3c>
    8000448a:	8522                	mv	a0,s0
    8000448c:	888fc0ef          	jal	ra,80000514 <file_decref>
    80004490:	5551                	li	a0,-12
    80004492:	b7d5                	j	80004476 <sys_openat+0x3c>
    80004494:	555d                	li	a0,-9
    80004496:	b7c5                	j	80004476 <sys_openat+0x3c>
    80004498:	87aa                	mv	a5,a0
    8000449a:	b7d9                	j	80004460 <sys_openat+0x26>

000000008000449c <sys_close>:
    8000449c:	1141                	addi	sp,sp,-16
    8000449e:	e406                	sd	ra,8(sp)
    800044a0:	a0afc0ef          	jal	ra,800006aa <fd_close>
    800044a4:	00054563          	bltz	a0,800044ae <sys_close+0x12>
    800044a8:	60a2                	ld	ra,8(sp)
    800044aa:	0141                	addi	sp,sp,16
    800044ac:	8082                	ret
    800044ae:	555d                	li	a0,-9
    800044b0:	bfe5                	j	800044a8 <sys_close+0xc>

00000000800044b2 <sys_fstat>:
    800044b2:	1101                	addi	sp,sp,-32
    800044b4:	e822                	sd	s0,16(sp)
    800044b6:	ec06                	sd	ra,24(sp)
    800044b8:	e426                	sd	s1,8(sp)
    800044ba:	842e                	mv	s0,a1
    800044bc:	8fcfc0ef          	jal	ra,800005b8 <file_get>
    800044c0:	c529                	beqz	a0,8000450a <sys_fstat+0x58>
    800044c2:	00015797          	auipc	a5,0x15
    800044c6:	b8e7b783          	ld	a5,-1138(a5) # 80019050 <currentproc>
    800044ca:	63ec                	ld	a1,192(a5)
    800044cc:	84aa                	mv	s1,a0
    800044ce:	8522                	mv	a0,s0
    800044d0:	ad8fd0ef          	jal	ra,800017a8 <__walk_create_user>
    800044d4:	800007b7          	lui	a5,0x80000
    800044d8:	fff7c793          	not	a5,a5
    800044dc:	610c                	ld	a1,0(a0)
    800044de:	0287f063          	bgeu	a5,s0,800044fe <sys_fstat+0x4c>
    800044e2:	85a2                	mv	a1,s0
    800044e4:	8526                	mv	a0,s1
    800044e6:	c32fc0ef          	jal	ra,80000918 <file_stat>
    800044ea:	842a                	mv	s0,a0
    800044ec:	8526                	mv	a0,s1
    800044ee:	826fc0ef          	jal	ra,80000514 <file_decref>
    800044f2:	60e2                	ld	ra,24(sp)
    800044f4:	8522                	mv	a0,s0
    800044f6:	6442                	ld	s0,16(sp)
    800044f8:	64a2                	ld	s1,8(sp)
    800044fa:	6105                	addi	sp,sp,32
    800044fc:	8082                	ret
    800044fe:	1452                	slli	s0,s0,0x34
    80004500:	81a9                	srli	a1,a1,0xa
    80004502:	05b2                	slli	a1,a1,0xc
    80004504:	9051                	srli	s0,s0,0x34
    80004506:	8c4d                	or	s0,s0,a1
    80004508:	bfe9                	j	800044e2 <sys_fstat+0x30>
    8000450a:	545d                	li	s0,-9
    8000450c:	b7dd                	j	800044f2 <sys_fstat+0x40>

000000008000450e <sys_lseek>:
    8000450e:	1101                	addi	sp,sp,-32
    80004510:	e426                	sd	s1,8(sp)
    80004512:	e04a                	sd	s2,0(sp)
    80004514:	ec06                	sd	ra,24(sp)
    80004516:	e822                	sd	s0,16(sp)
    80004518:	84ae                	mv	s1,a1
    8000451a:	8932                	mv	s2,a2
    8000451c:	89cfc0ef          	jal	ra,800005b8 <file_get>
    80004520:	c115                	beqz	a0,80004544 <sys_lseek+0x36>
    80004522:	864a                	mv	a2,s2
    80004524:	85a6                	mv	a1,s1
    80004526:	842a                	mv	s0,a0
    80004528:	c64fc0ef          	jal	ra,8000098c <file_lseek>
    8000452c:	87aa                	mv	a5,a0
    8000452e:	8522                	mv	a0,s0
    80004530:	843e                	mv	s0,a5
    80004532:	fe3fb0ef          	jal	ra,80000514 <file_decref>
    80004536:	60e2                	ld	ra,24(sp)
    80004538:	8522                	mv	a0,s0
    8000453a:	6442                	ld	s0,16(sp)
    8000453c:	64a2                	ld	s1,8(sp)
    8000453e:	6902                	ld	s2,0(sp)
    80004540:	6105                	addi	sp,sp,32
    80004542:	8082                	ret
    80004544:	545d                	li	s0,-9
    80004546:	bfc5                	j	80004536 <sys_lseek+0x28>

0000000080004548 <sys_renameat>:
    80004548:	7179                	addi	sp,sp,-48
    8000454a:	f022                	sd	s0,32(sp)
    8000454c:	ec26                	sd	s1,24(sp)
    8000454e:	e44e                	sd	s3,8(sp)
    80004550:	e052                	sd	s4,0(sp)
    80004552:	f406                	sd	ra,40(sp)
    80004554:	e84a                	sd	s2,16(sp)
    80004556:	f9c00a13          	li	s4,-100
    8000455a:	842e                	mv	s0,a1
    8000455c:	89b2                	mv	s3,a2
    8000455e:	84b6                	mv	s1,a3
    80004560:	0b450263          	beq	a0,s4,80004604 <sys_renameat+0xbc>
    80004564:	854fc0ef          	jal	ra,800005b8 <file_get>
    80004568:	c559                	beqz	a0,800045f6 <sys_renameat+0xae>
    8000456a:	00052903          	lw	s2,0(a0)
    8000456e:	0b498463          	beq	s3,s4,80004616 <sys_renameat+0xce>
    80004572:	854e                	mv	a0,s3
    80004574:	844fc0ef          	jal	ra,800005b8 <file_get>
    80004578:	c541                	beqz	a0,80004600 <sys_renameat+0xb8>
    8000457a:	57fd                	li	a5,-1
    8000457c:	4118                	lw	a4,0(a0)
    8000457e:	08f90163          	beq	s2,a5,80004600 <sys_renameat+0xb8>
    80004582:	57fd                	li	a5,-1
    80004584:	06f70e63          	beq	a4,a5,80004600 <sys_renameat+0xb8>
    80004588:	89ba                	mv	s3,a4
    8000458a:	8522                	mv	a0,s0
    8000458c:	6a9020ef          	jal	ra,80007434 <strlen>
    80004590:	8a2a                	mv	s4,a0
    80004592:	8526                	mv	a0,s1
    80004594:	6a1020ef          	jal	ra,80007434 <strlen>
    80004598:	800007b7          	lui	a5,0x80000
    8000459c:	fff7c793          	not	a5,a5
    800045a0:	0a05                	addi	s4,s4,1
    800045a2:	8622                	mv	a2,s0
    800045a4:	00150813          	addi	a6,a0,1
    800045a8:	0087e863          	bltu	a5,s0,800045b8 <sys_renameat+0x70>
    800045ac:	00015797          	auipc	a5,0x15
    800045b0:	ce47b783          	ld	a5,-796(a5) # 80019290 <first_free_paddr>
    800045b4:	00f40633          	add	a2,s0,a5
    800045b8:	80000737          	lui	a4,0x80000
    800045bc:	fff74713          	not	a4,a4
    800045c0:	87a6                	mv	a5,s1
    800045c2:	02977363          	bgeu	a4,s1,800045e8 <sys_renameat+0xa0>
    800045c6:	4881                	li	a7,0
    800045c8:	874e                	mv	a4,s3
    800045ca:	86d2                	mv	a3,s4
    800045cc:	85ca                	mv	a1,s2
    800045ce:	02600513          	li	a0,38
    800045d2:	bd0fc0ef          	jal	ra,800009a2 <frontend_syscall>
    800045d6:	2501                	sext.w	a0,a0
    800045d8:	70a2                	ld	ra,40(sp)
    800045da:	7402                	ld	s0,32(sp)
    800045dc:	64e2                	ld	s1,24(sp)
    800045de:	6942                	ld	s2,16(sp)
    800045e0:	69a2                	ld	s3,8(sp)
    800045e2:	6a02                	ld	s4,0(sp)
    800045e4:	6145                	addi	sp,sp,48
    800045e6:	8082                	ret
    800045e8:	00015717          	auipc	a4,0x15
    800045ec:	ca873703          	ld	a4,-856(a4) # 80019290 <first_free_paddr>
    800045f0:	00e487b3          	add	a5,s1,a4
    800045f4:	bfc9                	j	800045c6 <sys_renameat+0x7e>
    800045f6:	01498563          	beq	s3,s4,80004600 <sys_renameat+0xb8>
    800045fa:	854e                	mv	a0,s3
    800045fc:	fbdfb0ef          	jal	ra,800005b8 <file_get>
    80004600:	555d                	li	a0,-9
    80004602:	bfd9                	j	800045d8 <sys_renameat+0x90>
    80004604:	892a                	mv	s2,a0
    80004606:	00a60f63          	beq	a2,a0,80004624 <sys_renameat+0xdc>
    8000460a:	854e                	mv	a0,s3
    8000460c:	fadfb0ef          	jal	ra,800005b8 <file_get>
    80004610:	d965                	beqz	a0,80004600 <sys_renameat+0xb8>
    80004612:	4118                	lw	a4,0(a0)
    80004614:	b7bd                	j	80004582 <sys_renameat+0x3a>
    80004616:	57fd                	li	a5,-1
    80004618:	f9c00993          	li	s3,-100
    8000461c:	f6f917e3          	bne	s2,a5,8000458a <sys_renameat+0x42>
    80004620:	555d                	li	a0,-9
    80004622:	bf5d                	j	800045d8 <sys_renameat+0x90>
    80004624:	f9c00993          	li	s3,-100
    80004628:	b78d                	j	8000458a <sys_renameat+0x42>

000000008000462a <sys_mkdirat>:
    8000462a:	1101                	addi	sp,sp,-32
    8000462c:	e822                	sd	s0,16(sp)
    8000462e:	e04a                	sd	s2,0(sp)
    80004630:	ec06                	sd	ra,24(sp)
    80004632:	e426                	sd	s1,8(sp)
    80004634:	f9c00793          	li	a5,-100
    80004638:	842e                	mv	s0,a1
    8000463a:	8932                	mv	s2,a2
    8000463c:	06f50163          	beq	a0,a5,8000469e <sys_mkdirat+0x74>
    80004640:	f79fb0ef          	jal	ra,800005b8 <file_get>
    80004644:	c531                	beqz	a0,80004690 <sys_mkdirat+0x66>
    80004646:	410c                	lw	a1,0(a0)
    80004648:	57fd                	li	a5,-1
    8000464a:	04f58363          	beq	a1,a5,80004690 <sys_mkdirat+0x66>
    8000464e:	84ae                	mv	s1,a1
    80004650:	8522                	mv	a0,s0
    80004652:	5e3020ef          	jal	ra,80007434 <strlen>
    80004656:	800007b7          	lui	a5,0x80000
    8000465a:	fff7c793          	not	a5,a5
    8000465e:	8622                	mv	a2,s0
    80004660:	00150693          	addi	a3,a0,1
    80004664:	0087e863          	bltu	a5,s0,80004674 <sys_mkdirat+0x4a>
    80004668:	00015797          	auipc	a5,0x15
    8000466c:	c287b783          	ld	a5,-984(a5) # 80019290 <first_free_paddr>
    80004670:	00f40633          	add	a2,s0,a5
    80004674:	6442                	ld	s0,16(sp)
    80004676:	60e2                	ld	ra,24(sp)
    80004678:	874a                	mv	a4,s2
    8000467a:	85a6                	mv	a1,s1
    8000467c:	6902                	ld	s2,0(sp)
    8000467e:	64a2                	ld	s1,8(sp)
    80004680:	4881                	li	a7,0
    80004682:	4801                	li	a6,0
    80004684:	4781                	li	a5,0
    80004686:	02200513          	li	a0,34
    8000468a:	6105                	addi	sp,sp,32
    8000468c:	b16fc06f          	j	800009a2 <frontend_syscall>
    80004690:	60e2                	ld	ra,24(sp)
    80004692:	6442                	ld	s0,16(sp)
    80004694:	64a2                	ld	s1,8(sp)
    80004696:	6902                	ld	s2,0(sp)
    80004698:	555d                	li	a0,-9
    8000469a:	6105                	addi	sp,sp,32
    8000469c:	8082                	ret
    8000469e:	f9c00493          	li	s1,-100
    800046a2:	b77d                	j	80004650 <sys_mkdirat+0x26>

00000000800046a4 <sys_getcwd>:
    800046a4:	1101                	addi	sp,sp,-32
    800046a6:	4609                	li	a2,2
    800046a8:	e822                	sd	s0,16(sp)
    800046aa:	e426                	sd	s1,8(sp)
    800046ac:	842a                	mv	s0,a0
    800046ae:	84ae                	mv	s1,a1
    800046b0:	ec06                	sd	ra,24(sp)
    800046b2:	880fd0ef          	jal	ra,80001732 <populate_mapping>
    800046b6:	800007b7          	lui	a5,0x80000
    800046ba:	fff7c793          	not	a5,a5
    800046be:	85a2                	mv	a1,s0
    800046c0:	0087e863          	bltu	a5,s0,800046d0 <sys_getcwd+0x2c>
    800046c4:	00015797          	auipc	a5,0x15
    800046c8:	bcc7b783          	ld	a5,-1076(a5) # 80019290 <first_free_paddr>
    800046cc:	00f405b3          	add	a1,s0,a5
    800046d0:	6442                	ld	s0,16(sp)
    800046d2:	60e2                	ld	ra,24(sp)
    800046d4:	8626                	mv	a2,s1
    800046d6:	64a2                	ld	s1,8(sp)
    800046d8:	4881                	li	a7,0
    800046da:	4801                	li	a6,0
    800046dc:	4781                	li	a5,0
    800046de:	4701                	li	a4,0
    800046e0:	4681                	li	a3,0
    800046e2:	4545                	li	a0,17
    800046e4:	6105                	addi	sp,sp,32
    800046e6:	abcfc06f          	j	800009a2 <frontend_syscall>

00000000800046ea <sys_brk>:
    800046ea:	ea2fd06f          	j	80001d8c <do_brk>

00000000800046ee <sys_uname>:
    800046ee:	1141                	addi	sp,sp,-16
    800046f0:	4635                	li	a2,13
    800046f2:	00004597          	auipc	a1,0x4
    800046f6:	47e58593          	addi	a1,a1,1150 # 80008b70 <illegal_insn_trap_table+0xc34>
    800046fa:	e022                	sd	s0,0(sp)
    800046fc:	e406                	sd	ra,8(sp)
    800046fe:	842a                	mv	s0,a0
    80004700:	49f020ef          	jal	ra,8000739e <memcpy>
    80004704:	00004797          	auipc	a5,0x4
    80004708:	47c78793          	addi	a5,a5,1148 # 80008b80 <illegal_insn_trap_table+0xc44>
    8000470c:	0027c503          	lbu	a0,2(a5)
    80004710:	0007c883          	lbu	a7,0(a5)
    80004714:	0017c803          	lbu	a6,1(a5)
    80004718:	0037c583          	lbu	a1,3(a5)
    8000471c:	0047c603          	lbu	a2,4(a5)
    80004720:	0057c683          	lbu	a3,5(a5)
    80004724:	0067c703          	lbu	a4,6(a5)
    80004728:	08a40223          	sb	a0,132(s0)
    8000472c:	040400a3          	sb	zero,65(s0)
    80004730:	09140123          	sb	a7,130(s0)
    80004734:	090401a3          	sb	a6,131(s0)
    80004738:	08b402a3          	sb	a1,133(s0)
    8000473c:	08c40323          	sb	a2,134(s0)
    80004740:	08d403a3          	sb	a3,135(s0)
    80004744:	08e40423          	sb	a4,136(s0)
    80004748:	0c0401a3          	sb	zero,195(s0)
    8000474c:	10040223          	sb	zero,260(s0)
    80004750:	140402a3          	sb	zero,325(s0)
    80004754:	60a2                	ld	ra,8(sp)
    80004756:	6402                	ld	s0,0(sp)
    80004758:	4501                	li	a0,0
    8000475a:	0141                	addi	sp,sp,16
    8000475c:	8082                	ret

000000008000475e <sys_fork>:
    8000475e:	00015797          	auipc	a5,0x15
    80004762:	8f27b783          	ld	a5,-1806(a5) # 80019050 <currentproc>
    80004766:	7fd0                	ld	a2,184(a5)
    80004768:	4501                	li	a0,0
    8000476a:	6a0c                	ld	a1,16(a2)
    8000476c:	961fe06f          	j	800030cc <do_fork>

0000000080004770 <sys_sema_down>:
    80004770:	1141                	addi	sp,sp,-16
    80004772:	e022                	sd	s0,0(sp)
    80004774:	e406                	sd	ra,8(sp)
    80004776:	842a                	mv	s0,a0
    80004778:	d68ff0ef          	jal	ra,80003ce0 <find_sema>
    8000477c:	c511                	beqz	a0,80004788 <sys_sema_down+0x18>
    8000477e:	6402                	ld	s0,0(sp)
    80004780:	60a2                	ld	ra,8(sp)
    80004782:	0141                	addi	sp,sp,16
    80004784:	c94ff06f          	j	80003c18 <down>
    80004788:	8522                	mv	a0,s0
    8000478a:	ce2ff0ef          	jal	ra,80003c6c <alloc_sema>
    8000478e:	6402                	ld	s0,0(sp)
    80004790:	60a2                	ld	ra,8(sp)
    80004792:	0141                	addi	sp,sp,16
    80004794:	c84ff06f          	j	80003c18 <down>

0000000080004798 <sys_sema_up>:
    80004798:	1141                	addi	sp,sp,-16
    8000479a:	e022                	sd	s0,0(sp)
    8000479c:	e406                	sd	ra,8(sp)
    8000479e:	842a                	mv	s0,a0
    800047a0:	d40ff0ef          	jal	ra,80003ce0 <find_sema>
    800047a4:	c511                	beqz	a0,800047b0 <sys_sema_up+0x18>
    800047a6:	6402                	ld	s0,0(sp)
    800047a8:	60a2                	ld	ra,8(sp)
    800047aa:	0141                	addi	sp,sp,16
    800047ac:	bceff06f          	j	80003b7a <up>
    800047b0:	8522                	mv	a0,s0
    800047b2:	cbaff0ef          	jal	ra,80003c6c <alloc_sema>
    800047b6:	6402                	ld	s0,0(sp)
    800047b8:	60a2                	ld	ra,8(sp)
    800047ba:	0141                	addi	sp,sp,16
    800047bc:	bbeff06f          	j	80003b7a <up>

00000000800047c0 <sys_wait>:
    800047c0:	4581                	li	a1,0
    800047c2:	c59fe06f          	j	8000341a <do_wait>

00000000800047c6 <sys_rt_sigaction>:
    800047c6:	ce01                	beqz	a2,800047de <sys_rt_sigaction+0x18>
    800047c8:	1141                	addi	sp,sp,-16
    800047ca:	8532                	mv	a0,a2
    800047cc:	4581                	li	a1,0
    800047ce:	4661                	li	a2,24
    800047d0:	e406                	sd	ra,8(sp)
    800047d2:	41d020ef          	jal	ra,800073ee <memset>
    800047d6:	60a2                	ld	ra,8(sp)
    800047d8:	4501                	li	a0,0
    800047da:	0141                	addi	sp,sp,16
    800047dc:	8082                	ret
    800047de:	4501                	li	a0,0
    800047e0:	8082                	ret

00000000800047e2 <sys_open>:
    800047e2:	86b2                	mv	a3,a2
    800047e4:	862e                	mv	a2,a1
    800047e6:	85aa                	mv	a1,a0
    800047e8:	f9c00513          	li	a0,-100
    800047ec:	b1b9                	j	8000443a <sys_openat>

00000000800047ee <sys_fstatat>:
    800047ee:	7171                	addi	sp,sp,-176
    800047f0:	f122                	sd	s0,160(sp)
    800047f2:	e94a                	sd	s2,144(sp)
    800047f4:	e54e                	sd	s3,136(sp)
    800047f6:	f506                	sd	ra,168(sp)
    800047f8:	ed26                	sd	s1,152(sp)
    800047fa:	f9c00793          	li	a5,-100
    800047fe:	842e                	mv	s0,a1
    80004800:	8932                	mv	s2,a2
    80004802:	89b6                	mv	s3,a3
    80004804:	08f50263          	beq	a0,a5,80004888 <sys_fstatat+0x9a>
    80004808:	db1fb0ef          	jal	ra,800005b8 <file_get>
    8000480c:	cd25                	beqz	a0,80004884 <sys_fstatat+0x96>
    8000480e:	410c                	lw	a1,0(a0)
    80004810:	57fd                	li	a5,-1
    80004812:	06f58963          	beq	a1,a5,80004884 <sys_fstatat+0x96>
    80004816:	84ae                	mv	s1,a1
    80004818:	8522                	mv	a0,s0
    8000481a:	41b020ef          	jal	ra,80007434 <strlen>
    8000481e:	800007b7          	lui	a5,0x80000
    80004822:	fff7c793          	not	a5,a5
    80004826:	8622                	mv	a2,s0
    80004828:	00150693          	addi	a3,a0,1
    8000482c:	0087e863          	bltu	a5,s0,8000483c <sys_fstatat+0x4e>
    80004830:	00015797          	auipc	a5,0x15
    80004834:	a607b783          	ld	a5,-1440(a5) # 80019290 <first_free_paddr>
    80004838:	00f40633          	add	a2,s0,a5
    8000483c:	800007b7          	lui	a5,0x80000
    80004840:	840a                	mv	s0,sp
    80004842:	fff7c793          	not	a5,a5
    80004846:	8722                	mv	a4,s0
    80004848:	0287f863          	bgeu	a5,s0,80004878 <sys_fstatat+0x8a>
    8000484c:	85a6                	mv	a1,s1
    8000484e:	87ce                	mv	a5,s3
    80004850:	4881                	li	a7,0
    80004852:	4801                	li	a6,0
    80004854:	04f00513          	li	a0,79
    80004858:	94afc0ef          	jal	ra,800009a2 <frontend_syscall>
    8000485c:	87aa                	mv	a5,a0
    8000485e:	85a2                	mv	a1,s0
    80004860:	854a                	mv	a0,s2
    80004862:	843e                	mv	s0,a5
    80004864:	9bcfc0ef          	jal	ra,80000a20 <copy_stat>
    80004868:	70aa                	ld	ra,168(sp)
    8000486a:	8522                	mv	a0,s0
    8000486c:	740a                	ld	s0,160(sp)
    8000486e:	64ea                	ld	s1,152(sp)
    80004870:	694a                	ld	s2,144(sp)
    80004872:	69aa                	ld	s3,136(sp)
    80004874:	614d                	addi	sp,sp,176
    80004876:	8082                	ret
    80004878:	00015717          	auipc	a4,0x15
    8000487c:	a1873703          	ld	a4,-1512(a4) # 80019290 <first_free_paddr>
    80004880:	9722                	add	a4,a4,s0
    80004882:	b7e9                	j	8000484c <sys_fstatat+0x5e>
    80004884:	545d                	li	s0,-9
    80004886:	b7cd                	j	80004868 <sys_fstatat+0x7a>
    80004888:	f9c00493          	li	s1,-100
    8000488c:	b771                	j	80004818 <sys_fstatat+0x2a>

000000008000488e <sys_lstat>:
    8000488e:	7135                	addi	sp,sp,-160
    80004890:	e922                	sd	s0,144(sp)
    80004892:	e14a                	sd	s2,128(sp)
    80004894:	842a                	mv	s0,a0
    80004896:	892e                	mv	s2,a1
    80004898:	ed06                	sd	ra,152(sp)
    8000489a:	e526                	sd	s1,136(sp)
    8000489c:	399020ef          	jal	ra,80007434 <strlen>
    800048a0:	800007b7          	lui	a5,0x80000
    800048a4:	fff7c793          	not	a5,a5
    800048a8:	85a2                	mv	a1,s0
    800048aa:	00150613          	addi	a2,a0,1
    800048ae:	0087e863          	bltu	a5,s0,800048be <sys_lstat+0x30>
    800048b2:	00015797          	auipc	a5,0x15
    800048b6:	9de7b783          	ld	a5,-1570(a5) # 80019290 <first_free_paddr>
    800048ba:	00f405b3          	add	a1,s0,a5
    800048be:	800007b7          	lui	a5,0x80000
    800048c2:	840a                	mv	s0,sp
    800048c4:	fff7c793          	not	a5,a5
    800048c8:	86a2                	mv	a3,s0
    800048ca:	0087e763          	bltu	a5,s0,800048d8 <sys_lstat+0x4a>
    800048ce:	00015697          	auipc	a3,0x15
    800048d2:	9c26b683          	ld	a3,-1598(a3) # 80019290 <first_free_paddr>
    800048d6:	96a2                	add	a3,a3,s0
    800048d8:	4881                	li	a7,0
    800048da:	4801                	li	a6,0
    800048dc:	4781                	li	a5,0
    800048de:	4701                	li	a4,0
    800048e0:	40f00513          	li	a0,1039
    800048e4:	8befc0ef          	jal	ra,800009a2 <frontend_syscall>
    800048e8:	84aa                	mv	s1,a0
    800048ea:	85a2                	mv	a1,s0
    800048ec:	854a                	mv	a0,s2
    800048ee:	932fc0ef          	jal	ra,80000a20 <copy_stat>
    800048f2:	60ea                	ld	ra,152(sp)
    800048f4:	644a                	ld	s0,144(sp)
    800048f6:	690a                	ld	s2,128(sp)
    800048f8:	8526                	mv	a0,s1
    800048fa:	64aa                	ld	s1,136(sp)
    800048fc:	610d                	addi	sp,sp,160
    800048fe:	8082                	ret

0000000080004900 <sys_stat>:
    80004900:	862e                	mv	a2,a1
    80004902:	4681                	li	a3,0
    80004904:	85aa                	mv	a1,a0
    80004906:	f9c00513          	li	a0,-100
    8000490a:	b5d5                	j	800047ee <sys_fstatat>

000000008000490c <sys_linkat>:
    8000490c:	7139                	addi	sp,sp,-64
    8000490e:	f822                	sd	s0,48(sp)
    80004910:	f426                	sd	s1,40(sp)
    80004912:	ec4e                	sd	s3,24(sp)
    80004914:	e852                	sd	s4,16(sp)
    80004916:	e456                	sd	s5,8(sp)
    80004918:	fc06                	sd	ra,56(sp)
    8000491a:	f04a                	sd	s2,32(sp)
    8000491c:	f9c00a93          	li	s5,-100
    80004920:	842e                	mv	s0,a1
    80004922:	89b2                	mv	s3,a2
    80004924:	84b6                	mv	s1,a3
    80004926:	8a3a                	mv	s4,a4
    80004928:	0b550863          	beq	a0,s5,800049d8 <sys_linkat+0xcc>
    8000492c:	c8dfb0ef          	jal	ra,800005b8 <file_get>
    80004930:	c549                	beqz	a0,800049ba <sys_linkat+0xae>
    80004932:	00052903          	lw	s2,0(a0)
    80004936:	0b598a63          	beq	s3,s5,800049ea <sys_linkat+0xde>
    8000493a:	854e                	mv	a0,s3
    8000493c:	c7dfb0ef          	jal	ra,800005b8 <file_get>
    80004940:	c151                	beqz	a0,800049c4 <sys_linkat+0xb8>
    80004942:	57fd                	li	a5,-1
    80004944:	4118                	lw	a4,0(a0)
    80004946:	06f90f63          	beq	s2,a5,800049c4 <sys_linkat+0xb8>
    8000494a:	57fd                	li	a5,-1
    8000494c:	06f70c63          	beq	a4,a5,800049c4 <sys_linkat+0xb8>
    80004950:	89ba                	mv	s3,a4
    80004952:	8522                	mv	a0,s0
    80004954:	2e1020ef          	jal	ra,80007434 <strlen>
    80004958:	8aaa                	mv	s5,a0
    8000495a:	8526                	mv	a0,s1
    8000495c:	2d9020ef          	jal	ra,80007434 <strlen>
    80004960:	800007b7          	lui	a5,0x80000
    80004964:	fff7c793          	not	a5,a5
    80004968:	0a85                	addi	s5,s5,1
    8000496a:	8622                	mv	a2,s0
    8000496c:	00150813          	addi	a6,a0,1
    80004970:	0087e863          	bltu	a5,s0,80004980 <sys_linkat+0x74>
    80004974:	00015797          	auipc	a5,0x15
    80004978:	91c7b783          	ld	a5,-1764(a5) # 80019290 <first_free_paddr>
    8000497c:	00f40633          	add	a2,s0,a5
    80004980:	80000737          	lui	a4,0x80000
    80004984:	fff74713          	not	a4,a4
    80004988:	87a6                	mv	a5,s1
    8000498a:	00976863          	bltu	a4,s1,8000499a <sys_linkat+0x8e>
    8000498e:	00015717          	auipc	a4,0x15
    80004992:	90273703          	ld	a4,-1790(a4) # 80019290 <first_free_paddr>
    80004996:	00e487b3          	add	a5,s1,a4
    8000499a:	7442                	ld	s0,48(sp)
    8000499c:	70e2                	ld	ra,56(sp)
    8000499e:	74a2                	ld	s1,40(sp)
    800049a0:	88d2                	mv	a7,s4
    800049a2:	874e                	mv	a4,s3
    800049a4:	6a42                	ld	s4,16(sp)
    800049a6:	69e2                	ld	s3,24(sp)
    800049a8:	86d6                	mv	a3,s5
    800049aa:	85ca                	mv	a1,s2
    800049ac:	6aa2                	ld	s5,8(sp)
    800049ae:	7902                	ld	s2,32(sp)
    800049b0:	02500513          	li	a0,37
    800049b4:	6121                	addi	sp,sp,64
    800049b6:	fedfb06f          	j	800009a2 <frontend_syscall>
    800049ba:	01598563          	beq	s3,s5,800049c4 <sys_linkat+0xb8>
    800049be:	854e                	mv	a0,s3
    800049c0:	bf9fb0ef          	jal	ra,800005b8 <file_get>
    800049c4:	70e2                	ld	ra,56(sp)
    800049c6:	7442                	ld	s0,48(sp)
    800049c8:	74a2                	ld	s1,40(sp)
    800049ca:	7902                	ld	s2,32(sp)
    800049cc:	69e2                	ld	s3,24(sp)
    800049ce:	6a42                	ld	s4,16(sp)
    800049d0:	6aa2                	ld	s5,8(sp)
    800049d2:	555d                	li	a0,-9
    800049d4:	6121                	addi	sp,sp,64
    800049d6:	8082                	ret
    800049d8:	892a                	mv	s2,a0
    800049da:	00a60e63          	beq	a2,a0,800049f6 <sys_linkat+0xea>
    800049de:	854e                	mv	a0,s3
    800049e0:	bd9fb0ef          	jal	ra,800005b8 <file_get>
    800049e4:	d165                	beqz	a0,800049c4 <sys_linkat+0xb8>
    800049e6:	4118                	lw	a4,0(a0)
    800049e8:	b78d                	j	8000494a <sys_linkat+0x3e>
    800049ea:	57fd                	li	a5,-1
    800049ec:	f9c00993          	li	s3,-100
    800049f0:	f6f911e3          	bne	s2,a5,80004952 <sys_linkat+0x46>
    800049f4:	bfc1                	j	800049c4 <sys_linkat+0xb8>
    800049f6:	f9c00993          	li	s3,-100
    800049fa:	bfa1                	j	80004952 <sys_linkat+0x46>

00000000800049fc <sys_mkdir>:
    800049fc:	862e                	mv	a2,a1
    800049fe:	85aa                	mv	a1,a0
    80004a00:	f9c00513          	li	a0,-100
    80004a04:	b11d                	j	8000462a <sys_mkdirat>

0000000080004a06 <sys_time>:
    80004a06:	872a                	mv	a4,a0
    80004a08:	c00027f3          	rdcycle	a5
    80004a0c:	3b9ad537          	lui	a0,0x3b9ad
    80004a10:	a0050513          	addi	a0,a0,-1536 # 3b9aca00 <_ftext-0x44653600>
    80004a14:	02a7d533          	divu	a0,a5,a0
    80004a18:	c311                	beqz	a4,80004a1c <sys_time+0x16>
    80004a1a:	e308                	sd	a0,0(a4)
    80004a1c:	8082                	ret

0000000080004a1e <do_syscall>:
    80004a1e:	10500313          	li	t1,261
    80004a22:	88c2                	mv	a7,a6
    80004a24:	01036e63          	bltu	t1,a6,80004a40 <do_syscall+0x22>
    80004a28:	00381e13          	slli	t3,a6,0x3
    80004a2c:	00003317          	auipc	t1,0x3
    80004a30:	c7c30313          	addi	t1,t1,-900 # 800076a8 <syscall_table.3817>
    80004a34:	9372                	add	t1,t1,t3
    80004a36:	00033303          	ld	t1,0(t1)
    80004a3a:	00030363          	beqz	t1,80004a40 <do_syscall+0x22>
    80004a3e:	8302                	jr	t1
    80004a40:	1141                	addi	sp,sp,-16
    80004a42:	85c6                	mv	a1,a7
    80004a44:	00004517          	auipc	a0,0x4
    80004a48:	14450513          	addi	a0,a0,324 # 80008b88 <illegal_insn_trap_table+0xc4c>
    80004a4c:	e406                	sd	ra,8(sp)
    80004a4e:	f2cfc0ef          	jal	ra,8000117a <do_panic>

0000000080004a52 <send_ipi_many>:
    80004a52:	00015817          	auipc	a6,0x15
    80004a56:	8de83803          	ld	a6,-1826(a6) # 80019330 <hart_mask>
    80004a5a:	cd01                	beqz	a0,80004a72 <send_ipi_many+0x20>
    80004a5c:	34102673          	csrr	a2,mepc
    80004a60:	000207b7          	lui	a5,0x20
    80004a64:	3007a6f3          	csrrs	a3,mstatus,a5
    80004a68:	6118                	ld	a4,0(a0)
    80004a6a:	30069073          	csrw	mstatus,a3
    80004a6e:	00e87833          	and	a6,a6,a4
    80004a72:	8742                	mv	a4,a6
    80004a74:	4681                	li	a3,0
    80004a76:	0c080c63          	beqz	a6,80004b4e <send_ipi_many+0xfc>
    80004a7a:	6505                	lui	a0,0x1
    80004a7c:	950a                	add	a0,a0,sp
    80004a7e:	77fd                	lui	a5,0xfffff
    80004a80:	00014317          	auipc	t1,0x14
    80004a84:	74830313          	addi	t1,t1,1864 # 800191c8 <disabled_hart_mask>
    80004a88:	8d7d                	and	a0,a0,a5
    80004a8a:	4e05                	li	t3,1
    80004a8c:	f14028f3          	csrr	a7,mhartid
    80004a90:	a021                	j	80004a98 <send_ipi_many+0x46>
    80004a92:	8305                	srli	a4,a4,0x1
    80004a94:	0685                	addi	a3,a3,1
    80004a96:	cf0d                	beqz	a4,80004ad0 <send_ipi_many+0x7e>
    80004a98:	00177793          	andi	a5,a4,1
    80004a9c:	dbfd                	beqz	a5,80004a92 <send_ipi_many+0x40>
    80004a9e:	00033603          	ld	a2,0(t1)
    80004aa2:	411687b3          	sub	a5,a3,a7
    80004aa6:	07b2                	slli	a5,a5,0xc
    80004aa8:	40d65633          	sra	a2,a2,a3
    80004aac:	8a05                	andi	a2,a2,1
    80004aae:	97aa                	add	a5,a5,a0
    80004ab0:	f26d                	bnez	a2,80004a92 <send_ipi_many+0x40>
    80004ab2:	fc878613          	addi	a2,a5,-56 # ffffffffffffefc8 <_end+0xffffffff7ffe4fc8>
    80004ab6:	0f50000f          	fence	iorw,ow
    80004aba:	44b6202f          	amoor.w.aq	zero,a1,(a2)
    80004abe:	0ff0000f          	fence
    80004ac2:	fc07b783          	ld	a5,-64(a5)
    80004ac6:	8305                	srli	a4,a4,0x1
    80004ac8:	0685                	addi	a3,a3,1
    80004aca:	01c7a023          	sw	t3,0(a5)
    80004ace:	f769                	bnez	a4,80004a98 <send_ipi_many+0x46>
    80004ad0:	4785                	li	a5,1
    80004ad2:	06f58e63          	beq	a1,a5,80004b4e <send_ipi_many+0xfc>
    80004ad6:	6505                	lui	a0,0x1
    80004ad8:	950a                	add	a0,a0,sp
    80004ada:	77fd                	lui	a5,0xfffff
    80004adc:	f1402373          	csrr	t1,mhartid
    80004ae0:	4601                	li	a2,0
    80004ae2:	8d7d                	and	a0,a0,a5
    80004ae4:	4881                	li	a7,0
    80004ae6:	8e1a                	mv	t3,t1
    80004ae8:	a031                	j	80004af4 <send_ipi_many+0xa2>
    80004aea:	00185813          	srli	a6,a6,0x1
    80004aee:	0705                	addi	a4,a4,1
    80004af0:	04080463          	beqz	a6,80004b38 <send_ipi_many+0xe6>
    80004af4:	00187793          	andi	a5,a6,1
    80004af8:	dbed                	beqz	a5,80004aea <send_ipi_many+0x98>
    80004afa:	406707b3          	sub	a5,a4,t1
    80004afe:	07b2                	slli	a5,a5,0xc
    80004b00:	97aa                	add	a5,a5,a0
    80004b02:	fc07b783          	ld	a5,-64(a5) # ffffffffffffefc0 <_end+0xffffffff7ffe4fc0>
    80004b06:	439c                	lw	a5,0(a5)
    80004b08:	2781                	sext.w	a5,a5
    80004b0a:	d3e5                	beqz	a5,80004aea <send_ipi_many+0x98>
    80004b0c:	41c705b3          	sub	a1,a4,t3
    80004b10:	05b2                	slli	a1,a1,0xc
    80004b12:	95aa                	add	a1,a1,a0
    80004b14:	fc053683          	ld	a3,-64(a0) # fc0 <_ftext-0x7ffff040>
    80004b18:	87c6                	mv	a5,a7
    80004b1a:	0cf6a7af          	amoswap.w.aq	a5,a5,(a3)
    80004b1e:	fc05b683          	ld	a3,-64(a1)
    80004b22:	8fd1                	or	a5,a5,a2
    80004b24:	0007861b          	sext.w	a2,a5
    80004b28:	429c                	lw	a5,0(a3)
    80004b2a:	2781                	sext.w	a5,a5
    80004b2c:	f7e5                	bnez	a5,80004b14 <send_ipi_many+0xc2>
    80004b2e:	00185813          	srli	a6,a6,0x1
    80004b32:	0705                	addi	a4,a4,1
    80004b34:	fc0810e3          	bnez	a6,80004af4 <send_ipi_many+0xa2>
    80004b38:	ca19                	beqz	a2,80004b4e <send_ipi_many+0xfc>
    80004b3a:	6785                	lui	a5,0x1
    80004b3c:	978a                	add	a5,a5,sp
    80004b3e:	777d                	lui	a4,0xfffff
    80004b40:	8ff9                	and	a5,a5,a4
    80004b42:	fc07b783          	ld	a5,-64(a5) # fc0 <_ftext-0x7ffff040>
    80004b46:	c390                	sw	a2,0(a5)
    80004b48:	0ff0000f          	fence
    80004b4c:	8082                	ret
    80004b4e:	8082                	ret

0000000080004b50 <mcall_console_putchar>:
    80004b50:	1141                	addi	sp,sp,-16
    80004b52:	e406                	sd	ra,8(sp)
    80004b54:	00014797          	auipc	a5,0x14
    80004b58:	7c47b783          	ld	a5,1988(a5) # 80019318 <uart>
    80004b5c:	c799                	beqz	a5,80004b6a <mcall_console_putchar+0x1a>
    80004b5e:	0c9000ef          	jal	ra,80005426 <uart_putchar>
    80004b62:	60a2                	ld	ra,8(sp)
    80004b64:	4501                	li	a0,0
    80004b66:	0141                	addi	sp,sp,16
    80004b68:	8082                	ret
    80004b6a:	00014797          	auipc	a5,0x14
    80004b6e:	7b67b783          	ld	a5,1974(a5) # 80019320 <uart16550>
    80004b72:	c799                	beqz	a5,80004b80 <mcall_console_putchar+0x30>
    80004b74:	1df000ef          	jal	ra,80005552 <uart16550_putchar>
    80004b78:	60a2                	ld	ra,8(sp)
    80004b7a:	4501                	li	a0,0
    80004b7c:	0141                	addi	sp,sp,16
    80004b7e:	8082                	ret
    80004b80:	00014797          	auipc	a5,0x14
    80004b84:	7887b783          	ld	a5,1928(a5) # 80019308 <htif>
    80004b88:	dfe9                	beqz	a5,80004b62 <mcall_console_putchar+0x12>
    80004b8a:	758000ef          	jal	ra,800052e2 <htif_console_putchar>
    80004b8e:	bfd1                	j	80004b62 <mcall_console_putchar+0x12>

0000000080004b90 <putstring>:
    80004b90:	1141                	addi	sp,sp,-16
    80004b92:	e022                	sd	s0,0(sp)
    80004b94:	e406                	sd	ra,8(sp)
    80004b96:	842a                	mv	s0,a0
    80004b98:	00054503          	lbu	a0,0(a0)
    80004b9c:	c519                	beqz	a0,80004baa <putstring+0x1a>
    80004b9e:	0405                	addi	s0,s0,1
    80004ba0:	fb1ff0ef          	jal	ra,80004b50 <mcall_console_putchar>
    80004ba4:	00044503          	lbu	a0,0(s0)
    80004ba8:	f97d                	bnez	a0,80004b9e <putstring+0xe>
    80004baa:	60a2                	ld	ra,8(sp)
    80004bac:	6402                	ld	s0,0(sp)
    80004bae:	0141                	addi	sp,sp,16
    80004bb0:	8082                	ret

0000000080004bb2 <vprintm>:
    80004bb2:	716d                	addi	sp,sp,-272
    80004bb4:	862a                	mv	a2,a0
    80004bb6:	86ae                	mv	a3,a1
    80004bb8:	850a                	mv	a0,sp
    80004bba:	10000593          	li	a1,256
    80004bbe:	e606                	sd	ra,264(sp)
    80004bc0:	e222                	sd	s0,256(sp)
    80004bc2:	588020ef          	jal	ra,8000714a <vsnprintf>
    80004bc6:	00014503          	lbu	a0,0(sp)
    80004bca:	c901                	beqz	a0,80004bda <vprintm+0x28>
    80004bcc:	840a                	mv	s0,sp
    80004bce:	0405                	addi	s0,s0,1
    80004bd0:	f81ff0ef          	jal	ra,80004b50 <mcall_console_putchar>
    80004bd4:	00044503          	lbu	a0,0(s0)
    80004bd8:	f97d                	bnez	a0,80004bce <vprintm+0x1c>
    80004bda:	60b2                	ld	ra,264(sp)
    80004bdc:	6412                	ld	s0,256(sp)
    80004bde:	6151                	addi	sp,sp,272
    80004be0:	8082                	ret

0000000080004be2 <printm>:
    80004be2:	711d                	addi	sp,sp,-96
    80004be4:	02810313          	addi	t1,sp,40
    80004be8:	f42e                	sd	a1,40(sp)
    80004bea:	859a                	mv	a1,t1
    80004bec:	ec06                	sd	ra,24(sp)
    80004bee:	f832                	sd	a2,48(sp)
    80004bf0:	fc36                	sd	a3,56(sp)
    80004bf2:	e0ba                	sd	a4,64(sp)
    80004bf4:	e4be                	sd	a5,72(sp)
    80004bf6:	e8c2                	sd	a6,80(sp)
    80004bf8:	ecc6                	sd	a7,88(sp)
    80004bfa:	e41a                	sd	t1,8(sp)
    80004bfc:	fb7ff0ef          	jal	ra,80004bb2 <vprintm>
    80004c00:	60e2                	ld	ra,24(sp)
    80004c02:	6125                	addi	sp,sp,96
    80004c04:	8082                	ret

0000000080004c06 <redirect_trap>:
    80004c06:	14361073          	csrw	stval,a2
    80004c0a:	14151073          	csrw	sepc,a0
    80004c0e:	342027f3          	csrr	a5,mcause
    80004c12:	14279073          	csrw	scause,a5
    80004c16:	105027f3          	csrr	a5,stvec
    80004c1a:	34179073          	csrw	mepc,a5
    80004c1e:	00459793          	slli	a5,a1,0x4
    80004c22:	0035d713          	srli	a4,a1,0x3
    80004c26:	10077713          	andi	a4,a4,256
    80004c2a:	0207f793          	andi	a5,a5,32
    80004c2e:	edd5f593          	andi	a1,a1,-291
    80004c32:	8fd9                	or	a5,a5,a4
    80004c34:	6705                	lui	a4,0x1
    80004c36:	8fcd                	or	a5,a5,a1
    80004c38:	80070713          	addi	a4,a4,-2048 # 800 <_ftext-0x7ffff800>
    80004c3c:	8fd9                	or	a5,a5,a4
    80004c3e:	30079073          	csrw	mstatus,a5
    80004c42:	d96fb06f          	j	800001d8 <__redirect_trap>

0000000080004c46 <pmp_trap>:
    80004c46:	8532                	mv	a0,a2
    80004c48:	300025f3          	csrr	a1,mstatus
    80004c4c:	34302673          	csrr	a2,mtval
    80004c50:	bf5d                	j	80004c06 <redirect_trap>

0000000080004c52 <poweroff>:
    80004c52:	1141                	addi	sp,sp,-16
    80004c54:	e022                	sd	s0,0(sp)
    80004c56:	842a                	mv	s0,a0
    80004c58:	00004517          	auipc	a0,0x4
    80004c5c:	f4850513          	addi	a0,a0,-184 # 80008ba0 <illegal_insn_trap_table+0xc64>
    80004c60:	e406                	sd	ra,8(sp)
    80004c62:	f81ff0ef          	jal	ra,80004be2 <printm>
    80004c66:	8522                	mv	a0,s0
    80004c68:	1ef000ef          	jal	ra,80005656 <finisher_exit>
    80004c6c:	00014797          	auipc	a5,0x14
    80004c70:	69c7b783          	ld	a5,1692(a5) # 80019308 <htif>
    80004c74:	c399                	beqz	a5,80004c7a <poweroff+0x28>
    80004c76:	6c8000ef          	jal	ra,8000533e <htif_poweroff>
    80004c7a:	45a1                	li	a1,8
    80004c7c:	4501                	li	a0,0
    80004c7e:	dd5ff0ef          	jal	ra,80004a52 <send_ipi_many>
    80004c82:	10500073          	wfi
    80004c86:	bff5                	j	80004c82 <poweroff+0x30>

0000000080004c88 <bad_trap>:
    80004c88:	1141                	addi	sp,sp,-16
    80004c8a:	e406                	sd	ra,8(sp)
    80004c8c:	8732                	mv	a4,a2
    80004c8e:	342026f3          	csrr	a3,mcause
    80004c92:	00004517          	auipc	a0,0x4
    80004c96:	f3650513          	addi	a0,a0,-202 # 80008bc8 <illegal_insn_trap_table+0xc8c>
    80004c9a:	4655                	li	a2,21
    80004c9c:	00004597          	auipc	a1,0x4
    80004ca0:	f1458593          	addi	a1,a1,-236 # 80008bb0 <illegal_insn_trap_table+0xc74>
    80004ca4:	f3fff0ef          	jal	ra,80004be2 <printm>
    80004ca8:	6541                	lui	a0,0x10
    80004caa:	157d                	addi	a0,a0,-1
    80004cac:	fa7ff0ef          	jal	ra,80004c52 <poweroff>

0000000080004cb0 <trap_from_machine_mode>:
    80004cb0:	1141                	addi	sp,sp,-16
    80004cb2:	e406                	sd	ra,8(sp)
    80004cb4:	342027f3          	csrr	a5,mcause
    80004cb8:	473d                	li	a4,15
    80004cba:	02f76863          	bltu	a4,a5,80004cea <trap_from_machine_mode+0x3a>
    80004cbe:	00003717          	auipc	a4,0x3
    80004cc2:	21a70713          	addi	a4,a4,538 # 80007ed8 <syscall_table.3817+0x830>
    80004cc6:	078a                	slli	a5,a5,0x2
    80004cc8:	97ba                	add	a5,a5,a4
    80004cca:	439c                	lw	a5,0(a5)
    80004ccc:	97ba                	add	a5,a5,a4
    80004cce:	8782                	jr	a5
    80004cd0:	300027f3          	csrr	a5,mstatus
    80004cd4:	02e79713          	slli	a4,a5,0x2e
    80004cd8:	00075963          	bgez	a4,80004cea <trap_from_machine_mode+0x3a>
    80004cdc:	34302673          	csrr	a2,mtval
    80004ce0:	752c                	ld	a1,104(a0)
    80004ce2:	60a2                	ld	ra,8(sp)
    80004ce4:	7128                	ld	a0,96(a0)
    80004ce6:	0141                	addi	sp,sp,16
    80004ce8:	bf39                	j	80004c06 <redirect_trap>
    80004cea:	f9fff0ef          	jal	ra,80004c88 <bad_trap>

0000000080004cee <mcall_trap>:
    80004cee:	1141                	addi	sp,sp,-16
    80004cf0:	e022                	sd	s0,0(sp)
    80004cf2:	e406                	sd	ra,8(sp)
    80004cf4:	842a                	mv	s0,a0
    80004cf6:	0611                	addi	a2,a2,4
    80004cf8:	34161073          	csrw	mepc,a2
    80004cfc:	655c                	ld	a5,136(a0)
    80004cfe:	4721                	li	a4,8
    80004d00:	6928                	ld	a0,80(a0)
    80004d02:	0af76e63          	bltu	a4,a5,80004dbe <mcall_trap+0xd0>
    80004d06:	00003617          	auipc	a2,0x3
    80004d0a:	21260613          	addi	a2,a2,530 # 80007f18 <syscall_table.3817+0x870>
    80004d0e:	00279693          	slli	a3,a5,0x2
    80004d12:	96b2                	add	a3,a3,a2
    80004d14:	4298                	lw	a4,0(a3)
    80004d16:	9732                	add	a4,a4,a2
    80004d18:	8702                	jr	a4
    80004d1a:	4591                	li	a1,4
    80004d1c:	d37ff0ef          	jal	ra,80004a52 <send_ipi_many>
    80004d20:	4781                	li	a5,0
    80004d22:	60a2                	ld	ra,8(sp)
    80004d24:	e83c                	sd	a5,80(s0)
    80004d26:	6402                	ld	s0,0(sp)
    80004d28:	0141                	addi	sp,sp,16
    80004d2a:	8082                	ret
    80004d2c:	6705                	lui	a4,0x1
    80004d2e:	970a                	add	a4,a4,sp
    80004d30:	76fd                	lui	a3,0xfffff
    80004d32:	8f75                	and	a4,a4,a3
    80004d34:	fd073703          	ld	a4,-48(a4) # fd0 <_ftext-0x7ffff030>
    80004d38:	e308                	sd	a0,0(a4)
    80004d3a:	02000713          	li	a4,32
    80004d3e:	34473773          	csrrc	a4,mip,a4
    80004d42:	08000713          	li	a4,128
    80004d46:	30472773          	csrrs	a4,mie,a4
    80004d4a:	60a2                	ld	ra,8(sp)
    80004d4c:	e83c                	sd	a5,80(s0)
    80004d4e:	6402                	ld	s0,0(sp)
    80004d50:	0141                	addi	sp,sp,16
    80004d52:	8082                	ret
    80004d54:	0ff57513          	andi	a0,a0,255
    80004d58:	df9ff0ef          	jal	ra,80004b50 <mcall_console_putchar>
    80004d5c:	87aa                	mv	a5,a0
    80004d5e:	60a2                	ld	ra,8(sp)
    80004d60:	e83c                	sd	a5,80(s0)
    80004d62:	6402                	ld	s0,0(sp)
    80004d64:	0141                	addi	sp,sp,16
    80004d66:	8082                	ret
    80004d68:	00014797          	auipc	a5,0x14
    80004d6c:	5b07b783          	ld	a5,1456(a5) # 80019318 <uart>
    80004d70:	e3b9                	bnez	a5,80004db6 <mcall_trap+0xc8>
    80004d72:	00014797          	auipc	a5,0x14
    80004d76:	5ae7b783          	ld	a5,1454(a5) # 80019320 <uart16550>
    80004d7a:	eb95                	bnez	a5,80004dae <mcall_trap+0xc0>
    80004d7c:	00014797          	auipc	a5,0x14
    80004d80:	58c7b783          	ld	a5,1420(a5) # 80019308 <htif>
    80004d84:	dfd9                	beqz	a5,80004d22 <mcall_trap+0x34>
    80004d86:	478000ef          	jal	ra,800051fe <htif_console_getchar>
    80004d8a:	87aa                	mv	a5,a0
    80004d8c:	bf59                	j	80004d22 <mcall_trap+0x34>
    80004d8e:	34417573          	csrrci	a0,mip,2
    80004d92:	00257793          	andi	a5,a0,2
    80004d96:	60a2                	ld	ra,8(sp)
    80004d98:	e83c                	sd	a5,80(s0)
    80004d9a:	6402                	ld	s0,0(sp)
    80004d9c:	0141                	addi	sp,sp,16
    80004d9e:	8082                	ret
    80004da0:	4585                	li	a1,1
    80004da2:	bfad                	j	80004d1c <mcall_trap+0x2e>
    80004da4:	4589                	li	a1,2
    80004da6:	bf9d                	j	80004d1c <mcall_trap+0x2e>
    80004da8:	4501                	li	a0,0
    80004daa:	ea9ff0ef          	jal	ra,80004c52 <poweroff>
    80004dae:	7bc000ef          	jal	ra,8000556a <uart16550_getchar>
    80004db2:	87aa                	mv	a5,a0
    80004db4:	b7bd                	j	80004d22 <mcall_trap+0x34>
    80004db6:	688000ef          	jal	ra,8000543e <uart_getchar>
    80004dba:	87aa                	mv	a5,a0
    80004dbc:	b79d                	j	80004d22 <mcall_trap+0x34>
    80004dbe:	fa800793          	li	a5,-88
    80004dc2:	b785                	j	80004d22 <mcall_trap+0x34>

0000000080004dc4 <hart_init>:
    80004dc4:	301027f3          	csrr	a5,misa
    80004dc8:	0087f713          	andi	a4,a5,8
    80004dcc:	e749                	bnez	a4,80004e56 <hart_init+0x92>
    80004dce:	0207f793          	andi	a5,a5,32
    80004dd2:	e3d1                	bnez	a5,80004e56 <hart_init+0x92>
    80004dd4:	301027f3          	csrr	a5,misa
    80004dd8:	02d79713          	slli	a4,a5,0x2d
    80004ddc:	00075563          	bgez	a4,80004de6 <hart_init+0x22>
    80004de0:	57fd                	li	a5,-1
    80004de2:	10679073          	csrw	scounteren,a5
    80004de6:	57fd                	li	a5,-1
    80004de8:	30679073          	csrw	mcounteren,a5
    80004dec:	30445073          	csrwi	mie,8
    80004df0:	301027f3          	csrr	a5,misa
    80004df4:	02d79713          	slli	a4,a5,0x2d
    80004df8:	00075463          	bgez	a4,80004e00 <hart_init+0x3c>
    80004dfc:	18005073          	csrwi	satp,0
    80004e00:	301027f3          	csrr	a5,misa
    80004e04:	02d79713          	slli	a4,a5,0x2d
    80004e08:	04075b63          	bgez	a4,80004e5e <hart_init+0x9a>
    80004e0c:	1141                	addi	sp,sp,-16
    80004e0e:	e406                	sd	ra,8(sp)
    80004e10:	22200713          	li	a4,546
    80004e14:	30371073          	csrw	mideleg,a4
    80004e18:	67ad                	lui	a5,0xb
    80004e1a:	10978793          	addi	a5,a5,265 # b109 <_ftext-0x7fff4ef7>
    80004e1e:	30279073          	csrw	medeleg,a5
    80004e22:	303026f3          	csrr	a3,mideleg
    80004e26:	08e69063          	bne	a3,a4,80004ea6 <hart_init+0xe2>
    80004e2a:	30202773          	csrr	a4,medeleg
    80004e2e:	04f71863          	bne	a4,a5,80004e7e <hart_init+0xba>
    80004e32:	47fd                	li	a5,31
    80004e34:	577d                	li	a4,-1
    80004e36:	00000297          	auipc	t0,0x0
    80004e3a:	01628293          	addi	t0,t0,22 # 80004e4c <hart_init+0x88>
    80004e3e:	305292f3          	csrrw	t0,mtvec,t0
    80004e42:	3b071073          	csrw	pmpaddr0,a4
    80004e46:	3a079073          	csrw	pmpcfg0,a5
    80004e4a:	0001                	nop
    80004e4c:	30529073          	csrw	mtvec,t0
    80004e50:	60a2                	ld	ra,8(sp)
    80004e52:	0141                	addi	sp,sp,16
    80004e54:	8082                	ret
    80004e56:	6799                	lui	a5,0x6
    80004e58:	30079073          	csrw	mstatus,a5
    80004e5c:	bfa5                	j	80004dd4 <hart_init+0x10>
    80004e5e:	47fd                	li	a5,31
    80004e60:	577d                	li	a4,-1
    80004e62:	00000297          	auipc	t0,0x0
    80004e66:	01628293          	addi	t0,t0,22 # 80004e78 <hart_init+0xb4>
    80004e6a:	305292f3          	csrrw	t0,mtvec,t0
    80004e6e:	3b071073          	csrw	pmpaddr0,a4
    80004e72:	3a079073          	csrw	pmpcfg0,a5
    80004e76:	0001                	nop
    80004e78:	30529073          	csrw	mtvec,t0
    80004e7c:	8082                	ret
    80004e7e:	00003517          	auipc	a0,0x3
    80004e82:	24250513          	addi	a0,a0,578 # 800080c0 <illegal_insn_trap_table+0x184>
    80004e86:	00004697          	auipc	a3,0x4
    80004e8a:	daa68693          	addi	a3,a3,-598 # 80008c30 <illegal_insn_trap_table+0xcf4>
    80004e8e:	03d00613          	li	a2,61
    80004e92:	00004597          	auipc	a1,0x4
    80004e96:	d8658593          	addi	a1,a1,-634 # 80008c18 <illegal_insn_trap_table+0xcdc>
    80004e9a:	d49ff0ef          	jal	ra,80004be2 <printm>
    80004e9e:	6541                	lui	a0,0x10
    80004ea0:	157d                	addi	a0,a0,-1
    80004ea2:	db1ff0ef          	jal	ra,80004c52 <poweroff>
    80004ea6:	00003517          	auipc	a0,0x3
    80004eaa:	21a50513          	addi	a0,a0,538 # 800080c0 <illegal_insn_trap_table+0x184>
    80004eae:	00004697          	auipc	a3,0x4
    80004eb2:	d4a68693          	addi	a3,a3,-694 # 80008bf8 <illegal_insn_trap_table+0xcbc>
    80004eb6:	03c00613          	li	a2,60
    80004eba:	00004597          	auipc	a1,0x4
    80004ebe:	d5e58593          	addi	a1,a1,-674 # 80008c18 <illegal_insn_trap_table+0xcdc>
    80004ec2:	d21ff0ef          	jal	ra,80004be2 <printm>
    80004ec6:	6541                	lui	a0,0x10
    80004ec8:	157d                	addi	a0,a0,-1
    80004eca:	d89ff0ef          	jal	ra,80004c52 <poweroff>

0000000080004ece <hart_plic_init>:
    80004ece:	6605                	lui	a2,0x1
    80004ed0:	960a                	add	a2,a2,sp
    80004ed2:	77fd                	lui	a5,0xfffff
    80004ed4:	8e7d                	and	a2,a2,a5
    80004ed6:	fc063703          	ld	a4,-64(a2) # fc0 <_ftext-0x7ffff040>
    80004eda:	fd063783          	ld	a5,-48(a2)
    80004ede:	00072023          	sw	zero,0(a4)
    80004ee2:	577d                	li	a4,-1
    80004ee4:	e398                	sd	a4,0(a5)
    80004ee6:	34405073          	csrwi	mip,0
    80004eea:	00014697          	auipc	a3,0x14
    80004eee:	3e66b683          	ld	a3,998(a3) # 800192d0 <plic_ndevs>
    80004ef2:	ce9d                	beqz	a3,80004f30 <hart_plic_init+0x62>
    80004ef4:	03f68693          	addi	a3,a3,63
    80004ef8:	8299                	srli	a3,a3,0x6
    80004efa:	ce91                	beqz	a3,80004f16 <hart_plic_init+0x48>
    80004efc:	ff063583          	ld	a1,-16(a2)
    80004f00:	068e                	slli	a3,a3,0x3
    80004f02:	4781                	li	a5,0
    80004f04:	557d                	li	a0,-1
    80004f06:	c589                	beqz	a1,80004f10 <hart_plic_init+0x42>
    80004f08:	ff063703          	ld	a4,-16(a2)
    80004f0c:	973e                	add	a4,a4,a5
    80004f0e:	e308                	sd	a0,0(a4)
    80004f10:	07a1                	addi	a5,a5,8
    80004f12:	fef69ae3          	bne	a3,a5,80004f06 <hart_plic_init+0x38>
    80004f16:	6785                	lui	a5,0x1
    80004f18:	777d                	lui	a4,0xfffff
    80004f1a:	978a                	add	a5,a5,sp
    80004f1c:	8ff9                	and	a5,a5,a4
    80004f1e:	fd87b703          	ld	a4,-40(a5) # fd8 <_ftext-0x7ffff028>
    80004f22:	fe87b783          	ld	a5,-24(a5)
    80004f26:	4685                	li	a3,1
    80004f28:	c314                	sw	a3,0(a4)
    80004f2a:	c399                	beqz	a5,80004f30 <hart_plic_init+0x62>
    80004f2c:	0007a023          	sw	zero,0(a5)
    80004f30:	8082                	ret

0000000080004f32 <hls_init>:
    80004f32:	f14027f3          	csrr	a5,mhartid
    80004f36:	40f507b3          	sub	a5,a0,a5
    80004f3a:	6505                	lui	a0,0x1
    80004f3c:	950a                	add	a0,a0,sp
    80004f3e:	777d                	lui	a4,0xfffff
    80004f40:	07b2                	slli	a5,a5,0xc
    80004f42:	8d79                	and	a0,a0,a4
    80004f44:	fc078793          	addi	a5,a5,-64
    80004f48:	953e                	add	a0,a0,a5
    80004f4a:	00053023          	sd	zero,0(a0) # 1000 <_ftext-0x7ffff000>
    80004f4e:	00053423          	sd	zero,8(a0)
    80004f52:	00053823          	sd	zero,16(a0)
    80004f56:	00053c23          	sd	zero,24(a0)
    80004f5a:	02053023          	sd	zero,32(a0)
    80004f5e:	02053423          	sd	zero,40(a0)
    80004f62:	02053823          	sd	zero,48(a0)
    80004f66:	8082                	ret

0000000080004f68 <init_first_hart>:
    80004f68:	1141                	addi	sp,sp,-16
    80004f6a:	852e                	mv	a0,a1
    80004f6c:	e406                	sd	ra,8(sp)
    80004f6e:	e022                	sd	s0,0(sp)
    80004f70:	842e                	mv	s0,a1
    80004f72:	4e6000ef          	jal	ra,80005458 <query_uart>
    80004f76:	8522                	mv	a0,s0
    80004f78:	610000ef          	jal	ra,80005588 <query_uart16550>
    80004f7c:	8522                	mv	a0,s0
    80004f7e:	3d6000ef          	jal	ra,80005354 <query_htif>
    80004f82:	00004517          	auipc	a0,0x4
    80004f86:	cce50513          	addi	a0,a0,-818 # 80008c50 <illegal_insn_trap_table+0xd14>
    80004f8a:	c59ff0ef          	jal	ra,80004be2 <printm>
    80004f8e:	00005597          	auipc	a1,0x5
    80004f92:	07a5b583          	ld	a1,122(a1) # 8000a008 <tohost>
    80004f96:	00004517          	auipc	a0,0x4
    80004f9a:	cd250513          	addi	a0,a0,-814 # 80008c68 <illegal_insn_trap_table+0xd2c>
    80004f9e:	c45ff0ef          	jal	ra,80004be2 <printm>
    80004fa2:	00005597          	auipc	a1,0x5
    80004fa6:	05e5b583          	ld	a1,94(a1) # 8000a000 <fromhost>
    80004faa:	00004517          	auipc	a0,0x4
    80004fae:	cce50513          	addi	a0,a0,-818 # 80008c78 <illegal_insn_trap_table+0xd3c>
    80004fb2:	c31ff0ef          	jal	ra,80004be2 <printm>
    80004fb6:	e0fff0ef          	jal	ra,80004dc4 <hart_init>
    80004fba:	4501                	li	a0,0
    80004fbc:	f77ff0ef          	jal	ra,80004f32 <hls_init>
    80004fc0:	8522                	mv	a0,s0
    80004fc2:	6bc000ef          	jal	ra,8000567e <query_finisher>
    80004fc6:	8522                	mv	a0,s0
    80004fc8:	21d010ef          	jal	ra,800069e4 <query_mem>
    80004fcc:	8522                	mv	a0,s0
    80004fce:	283010ef          	jal	ra,80006a50 <query_harts>
    80004fd2:	8522                	mv	a0,s0
    80004fd4:	2fb010ef          	jal	ra,80006ace <query_clint>
    80004fd8:	8522                	mv	a0,s0
    80004fda:	357010ef          	jal	ra,80006b30 <query_plic>
    80004fde:	8522                	mv	a0,s0
    80004fe0:	3fd010ef          	jal	ra,80006bdc <query_chosen>
    80004fe4:	00014597          	auipc	a1,0x14
    80004fe8:	1e45b583          	ld	a1,484(a1) # 800191c8 <disabled_hart_mask>
    80004fec:	00014797          	auipc	a5,0x14
    80004ff0:	3447b783          	ld	a5,836(a5) # 80019330 <hart_mask>
    80004ff4:	fff5c593          	not	a1,a1
    80004ff8:	6605                	lui	a2,0x1
    80004ffa:	960a                	add	a2,a2,sp
    80004ffc:	8dfd                	and	a1,a1,a5
    80004ffe:	77fd                	lui	a5,0xfffff
    80005000:	8e7d                	and	a2,a2,a5
    80005002:	4701                	li	a4,0
    80005004:	4885                	li	a7,1
    80005006:	4821                	li	a6,8
    80005008:	f1402573          	csrr	a0,mhartid
    8000500c:	40a707b3          	sub	a5,a4,a0
    80005010:	00e5d6b3          	srl	a3,a1,a4
    80005014:	07b2                	slli	a5,a5,0xc
    80005016:	8a85                	andi	a3,a3,1
    80005018:	97b2                	add	a5,a5,a2
    8000501a:	0705                	addi	a4,a4,1
    8000501c:	c689                	beqz	a3,80005026 <init_first_hart+0xbe>
    8000501e:	fc07b783          	ld	a5,-64(a5) # ffffffffffffefc0 <_end+0xffffffff7ffe4fc0>
    80005022:	0117a023          	sw	a7,0(a5)
    80005026:	ff0713e3          	bne	a4,a6,8000500c <init_first_hart+0xa4>
    8000502a:	00014797          	auipc	a5,0x14
    8000502e:	2a67b783          	ld	a5,678(a5) # 800192d0 <plic_ndevs>
    80005032:	c385                	beqz	a5,80005052 <init_first_hart+0xea>
    80005034:	00014697          	auipc	a3,0x14
    80005038:	2a46b683          	ld	a3,676(a3) # 800192d8 <plic_priorities>
    8000503c:	00279713          	slli	a4,a5,0x2
    80005040:	4605                	li	a2,1
    80005042:	00468793          	addi	a5,a3,4
    80005046:	96ba                	add	a3,a3,a4
    80005048:	873e                	mv	a4,a5
    8000504a:	c390                	sw	a2,0(a5)
    8000504c:	0791                	addi	a5,a5,4
    8000504e:	fed71de3          	bne	a4,a3,80005048 <init_first_hart+0xe0>
    80005052:	e7dff0ef          	jal	ra,80004ece <hart_plic_init>
    80005056:	00014717          	auipc	a4,0x14
    8000505a:	28a70713          	addi	a4,a4,650 # 800192e0 <mem_size>
    8000505e:	631c                	ld	a5,0(a4)
    80005060:	8522                	mv	a0,s0
    80005062:	ffe006b7          	lui	a3,0xffe00
    80005066:	6402                	ld	s0,0(sp)
    80005068:	60a2                	ld	ra,8(sp)
    8000506a:	8ff5                	and	a5,a5,a3
    8000506c:	e31c                	sd	a5,0(a4)
    8000506e:	0141                	addi	sp,sp,16
    80005070:	c04fb06f          	j	80000474 <boot_loader>

0000000080005074 <init_other_hart>:
    80005074:	1141                	addi	sp,sp,-16
    80005076:	e406                	sd	ra,8(sp)
    80005078:	e022                	sd	s0,0(sp)
    8000507a:	842e                	mv	s0,a1
    8000507c:	d49ff0ef          	jal	ra,80004dc4 <hart_init>
    80005080:	e4fff0ef          	jal	ra,80004ece <hart_plic_init>
    80005084:	8522                	mv	a0,s0
    80005086:	6402                	ld	s0,0(sp)
    80005088:	60a2                	ld	ra,8(sp)
    8000508a:	0141                	addi	sp,sp,16
    8000508c:	c20fb06f          	j	800004ac <boot_other_hart>

0000000080005090 <setup_pmp>:
    80005090:	47fd                	li	a5,31
    80005092:	577d                	li	a4,-1
    80005094:	00000297          	auipc	t0,0x0
    80005098:	01428293          	addi	t0,t0,20 # 800050a8 <setup_pmp+0x18>
    8000509c:	305292f3          	csrrw	t0,mtvec,t0
    800050a0:	3b071073          	csrw	pmpaddr0,a4
    800050a4:	3a079073          	csrw	pmpcfg0,a5
    800050a8:	30529073          	csrw	mtvec,t0
    800050ac:	8082                	ret

00000000800050ae <enter_supervisor_mode>:
    800050ae:	86aa                	mv	a3,a0
    800050b0:	852e                	mv	a0,a1
    800050b2:	85b2                	mv	a1,a2
    800050b4:	30002773          	csrr	a4,mstatus
    800050b8:	7679                	lui	a2,0xffffe
    800050ba:	6785                	lui	a5,0x1
    800050bc:	77f60613          	addi	a2,a2,1919 # ffffffffffffe77f <_end+0xffffffff7ffe477f>
    800050c0:	8f71                	and	a4,a4,a2
    800050c2:	80078613          	addi	a2,a5,-2048 # 800 <_ftext-0x7ffff800>
    800050c6:	8f51                	or	a4,a4,a2
    800050c8:	30071073          	csrw	mstatus,a4
    800050cc:	777d                	lui	a4,0xfffff
    800050ce:	978a                	add	a5,a5,sp
    800050d0:	8ff9                	and	a5,a5,a4
    800050d2:	ec078793          	addi	a5,a5,-320
    800050d6:	34079073          	csrw	mscratch,a5
    800050da:	34169073          	csrw	mepc,a3
    800050de:	30200073          	mret

00000000800050e2 <enter_machine_mode>:
    800050e2:	1141                	addi	sp,sp,-16
    800050e4:	872a                	mv	a4,a0
    800050e6:	e406                	sd	ra,8(sp)
    800050e8:	852e                	mv	a0,a1
    800050ea:	85b2                	mv	a1,a2
    800050ec:	300027f3          	csrr	a5,mstatus
    800050f0:	f7f7f793          	andi	a5,a5,-129
    800050f4:	30079073          	csrw	mstatus,a5
    800050f8:	6785                	lui	a5,0x1
    800050fa:	978a                	add	a5,a5,sp
    800050fc:	76fd                	lui	a3,0xfffff
    800050fe:	8ff5                	and	a5,a5,a3
    80005100:	ec078793          	addi	a5,a5,-320 # ec0 <_ftext-0x7ffff140>
    80005104:	34079073          	csrw	mscratch,a5
    80005108:	9702                	jalr	a4

000000008000510a <htif_done>:
    8000510a:	419c                	lw	a5,0(a1)
    8000510c:	c791                	beqz	a5,80005118 <htif_done+0xe>
    8000510e:	4785                	li	a5,1
    80005110:	00014717          	auipc	a4,0x14
    80005114:	1ef73c23          	sd	a5,504(a4) # 80019308 <htif>
    80005118:	8082                	ret

000000008000511a <htif_open>:
    8000511a:	00058023          	sb	zero,0(a1)
    8000511e:	000580a3          	sb	zero,1(a1)
    80005122:	00058123          	sb	zero,2(a1)
    80005126:	000581a3          	sb	zero,3(a1)
    8000512a:	8082                	ret

000000008000512c <__check_fromhost>:
    8000512c:	00005797          	auipc	a5,0x5
    80005130:	ed47b783          	ld	a5,-300(a5) # 8000a000 <fromhost>
    80005134:	cf9d                	beqz	a5,80005172 <__check_fromhost+0x46>
    80005136:	1141                	addi	sp,sp,-16
    80005138:	00005717          	auipc	a4,0x5
    8000513c:	ec073423          	sd	zero,-312(a4) # 8000a000 <fromhost>
    80005140:	e406                	sd	ra,8(sp)
    80005142:	0387d693          	srli	a3,a5,0x38
    80005146:	4705                	li	a4,1
    80005148:	02e69663          	bne	a3,a4,80005174 <__check_fromhost+0x48>
    8000514c:	00879713          	slli	a4,a5,0x8
    80005150:	9361                	srli	a4,a4,0x38
    80005152:	c711                	beqz	a4,8000515e <__check_fromhost+0x32>
    80005154:	04d71463          	bne	a4,a3,8000519c <__check_fromhost+0x70>
    80005158:	60a2                	ld	ra,8(sp)
    8000515a:	0141                	addi	sp,sp,16
    8000515c:	8082                	ret
    8000515e:	60a2                	ld	ra,8(sp)
    80005160:	0ff7f793          	andi	a5,a5,255
    80005164:	2785                	addiw	a5,a5,1
    80005166:	00014717          	auipc	a4,0x14
    8000516a:	1af72523          	sw	a5,426(a4) # 80019310 <htif_console_buf>
    8000516e:	0141                	addi	sp,sp,16
    80005170:	8082                	ret
    80005172:	8082                	ret
    80005174:	00003517          	auipc	a0,0x3
    80005178:	f4c50513          	addi	a0,a0,-180 # 800080c0 <illegal_insn_trap_table+0x184>
    8000517c:	00004697          	auipc	a3,0x4
    80005180:	b0c68693          	addi	a3,a3,-1268 # 80008c88 <illegal_insn_trap_table+0xd4c>
    80005184:	02000613          	li	a2,32
    80005188:	00004597          	auipc	a1,0x4
    8000518c:	b1858593          	addi	a1,a1,-1256 # 80008ca0 <illegal_insn_trap_table+0xd64>
    80005190:	a53ff0ef          	jal	ra,80004be2 <printm>
    80005194:	6541                	lui	a0,0x10
    80005196:	157d                	addi	a0,a0,-1
    80005198:	abbff0ef          	jal	ra,80004c52 <poweroff>
    8000519c:	00003517          	auipc	a0,0x3
    800051a0:	f2450513          	addi	a0,a0,-220 # 800080c0 <illegal_insn_trap_table+0x184>
    800051a4:	00003697          	auipc	a3,0x3
    800051a8:	16c68693          	addi	a3,a3,364 # 80008310 <illegal_insn_trap_table+0x3d4>
    800051ac:	02800613          	li	a2,40
    800051b0:	00004597          	auipc	a1,0x4
    800051b4:	af058593          	addi	a1,a1,-1296 # 80008ca0 <illegal_insn_trap_table+0xd64>
    800051b8:	a2bff0ef          	jal	ra,80004be2 <printm>
    800051bc:	6541                	lui	a0,0x10
    800051be:	157d                	addi	a0,a0,-1
    800051c0:	a93ff0ef          	jal	ra,80004c52 <poweroff>

00000000800051c4 <htif_prop>:
    800051c4:	1101                	addi	sp,sp,-32
    800051c6:	e822                	sd	s0,16(sp)
    800051c8:	842a                	mv	s0,a0
    800051ca:	6508                	ld	a0,8(a0)
    800051cc:	e426                	sd	s1,8(sp)
    800051ce:	84ae                	mv	s1,a1
    800051d0:	00004597          	auipc	a1,0x4
    800051d4:	ae858593          	addi	a1,a1,-1304 # 80008cb8 <illegal_insn_trap_table+0xd7c>
    800051d8:	ec06                	sd	ra,24(sp)
    800051da:	274020ef          	jal	ra,8000744e <strcmp>
    800051de:	e919                	bnez	a0,800051f4 <htif_prop+0x30>
    800051e0:	6808                	ld	a0,16(s0)
    800051e2:	00004597          	auipc	a1,0x4
    800051e6:	ae658593          	addi	a1,a1,-1306 # 80008cc8 <illegal_insn_trap_table+0xd8c>
    800051ea:	264020ef          	jal	ra,8000744e <strcmp>
    800051ee:	e119                	bnez	a0,800051f4 <htif_prop+0x30>
    800051f0:	4785                	li	a5,1
    800051f2:	c09c                	sw	a5,0(s1)
    800051f4:	60e2                	ld	ra,24(sp)
    800051f6:	6442                	ld	s0,16(sp)
    800051f8:	64a2                	ld	s1,8(sp)
    800051fa:	6105                	addi	sp,sp,32
    800051fc:	8082                	ret

00000000800051fe <htif_console_getchar>:
    800051fe:	1101                	addi	sp,sp,-32
    80005200:	ec06                	sd	ra,24(sp)
    80005202:	e822                	sd	s0,16(sp)
    80005204:	e426                	sd	s1,8(sp)
    80005206:	00014717          	auipc	a4,0x14
    8000520a:	e7270713          	addi	a4,a4,-398 # 80019078 <htif_lock>
    8000520e:	56fd                	li	a3,-1
    80005210:	431c                	lw	a5,0(a4)
    80005212:	2781                	sext.w	a5,a5
    80005214:	fff5                	bnez	a5,80005210 <htif_console_getchar+0x12>
    80005216:	87b6                	mv	a5,a3
    80005218:	0cf727af          	amoswap.w.aq	a5,a5,(a4)
    8000521c:	2781                	sext.w	a5,a5
    8000521e:	0ff0000f          	fence
    80005222:	f7fd                	bnez	a5,80005210 <htif_console_getchar+0x12>
    80005224:	f09ff0ef          	jal	ra,8000512c <__check_fromhost>
    80005228:	00014497          	auipc	s1,0x14
    8000522c:	0e84a483          	lw	s1,232(s1) # 80019310 <htif_console_buf>
    80005230:	0204c463          	bltz	s1,80005258 <htif_console_getchar+0x5a>
    80005234:	57fd                	li	a5,-1
    80005236:	00014717          	auipc	a4,0x14
    8000523a:	0cf72d23          	sw	a5,218(a4) # 80019310 <htif_console_buf>
    8000523e:	00005417          	auipc	s0,0x5
    80005242:	dc240413          	addi	s0,s0,-574 # 8000a000 <fromhost>
    80005246:	641c                	ld	a5,8(s0)
    80005248:	c789                	beqz	a5,80005252 <htif_console_getchar+0x54>
    8000524a:	ee3ff0ef          	jal	ra,8000512c <__check_fromhost>
    8000524e:	641c                	ld	a5,8(s0)
    80005250:	ffed                	bnez	a5,8000524a <htif_console_getchar+0x4c>
    80005252:	4785                	li	a5,1
    80005254:	17e2                	slli	a5,a5,0x38
    80005256:	e41c                	sd	a5,8(s0)
    80005258:	0ff0000f          	fence
    8000525c:	60e2                	ld	ra,24(sp)
    8000525e:	6442                	ld	s0,16(sp)
    80005260:	00014797          	auipc	a5,0x14
    80005264:	e007ac23          	sw	zero,-488(a5) # 80019078 <htif_lock>
    80005268:	fff4851b          	addiw	a0,s1,-1
    8000526c:	64a2                	ld	s1,8(sp)
    8000526e:	6105                	addi	sp,sp,32
    80005270:	8082                	ret

0000000080005272 <htif_syscall>:
    80005272:	1101                	addi	sp,sp,-32
    80005274:	e426                	sd	s1,8(sp)
    80005276:	ec06                	sd	ra,24(sp)
    80005278:	e822                	sd	s0,16(sp)
    8000527a:	84aa                	mv	s1,a0
    8000527c:	00014797          	auipc	a5,0x14
    80005280:	dfc78793          	addi	a5,a5,-516 # 80019078 <htif_lock>
    80005284:	56fd                	li	a3,-1
    80005286:	4398                	lw	a4,0(a5)
    80005288:	2701                	sext.w	a4,a4
    8000528a:	ff75                	bnez	a4,80005286 <htif_syscall+0x14>
    8000528c:	8736                	mv	a4,a3
    8000528e:	0ce7a72f          	amoswap.w.aq	a4,a4,(a5)
    80005292:	2701                	sext.w	a4,a4
    80005294:	0ff0000f          	fence
    80005298:	f77d                	bnez	a4,80005286 <htif_syscall+0x14>
    8000529a:	00005417          	auipc	s0,0x5
    8000529e:	d6640413          	addi	s0,s0,-666 # 8000a000 <fromhost>
    800052a2:	641c                	ld	a5,8(s0)
    800052a4:	c789                	beqz	a5,800052ae <htif_syscall+0x3c>
    800052a6:	e87ff0ef          	jal	ra,8000512c <__check_fromhost>
    800052aa:	641c                	ld	a5,8(s0)
    800052ac:	ffed                	bnez	a5,800052a6 <htif_syscall+0x34>
    800052ae:	e404                	sd	s1,8(s0)
    800052b0:	601c                	ld	a5,0(s0)
    800052b2:	dffd                	beqz	a5,800052b0 <htif_syscall+0x3e>
    800052b4:	00879713          	slli	a4,a5,0x8
    800052b8:	8fd9                	or	a5,a5,a4
    800052ba:	93e1                	srli	a5,a5,0x38
    800052bc:	c781                	beqz	a5,800052c4 <htif_syscall+0x52>
    800052be:	e6fff0ef          	jal	ra,8000512c <__check_fromhost>
    800052c2:	b7fd                	j	800052b0 <htif_syscall+0x3e>
    800052c4:	00005797          	auipc	a5,0x5
    800052c8:	d207be23          	sd	zero,-708(a5) # 8000a000 <fromhost>
    800052cc:	0ff0000f          	fence
    800052d0:	60e2                	ld	ra,24(sp)
    800052d2:	6442                	ld	s0,16(sp)
    800052d4:	00014797          	auipc	a5,0x14
    800052d8:	da07a223          	sw	zero,-604(a5) # 80019078 <htif_lock>
    800052dc:	64a2                	ld	s1,8(sp)
    800052de:	6105                	addi	sp,sp,32
    800052e0:	8082                	ret

00000000800052e2 <htif_console_putchar>:
    800052e2:	1101                	addi	sp,sp,-32
    800052e4:	e426                	sd	s1,8(sp)
    800052e6:	ec06                	sd	ra,24(sp)
    800052e8:	e822                	sd	s0,16(sp)
    800052ea:	84aa                	mv	s1,a0
    800052ec:	00014717          	auipc	a4,0x14
    800052f0:	d8c70713          	addi	a4,a4,-628 # 80019078 <htif_lock>
    800052f4:	56fd                	li	a3,-1
    800052f6:	431c                	lw	a5,0(a4)
    800052f8:	2781                	sext.w	a5,a5
    800052fa:	fff5                	bnez	a5,800052f6 <htif_console_putchar+0x14>
    800052fc:	87b6                	mv	a5,a3
    800052fe:	0cf727af          	amoswap.w.aq	a5,a5,(a4)
    80005302:	2781                	sext.w	a5,a5
    80005304:	0ff0000f          	fence
    80005308:	f7fd                	bnez	a5,800052f6 <htif_console_putchar+0x14>
    8000530a:	00005417          	auipc	s0,0x5
    8000530e:	cf640413          	addi	s0,s0,-778 # 8000a000 <fromhost>
    80005312:	641c                	ld	a5,8(s0)
    80005314:	c789                	beqz	a5,8000531e <htif_console_putchar+0x3c>
    80005316:	e17ff0ef          	jal	ra,8000512c <__check_fromhost>
    8000531a:	641c                	ld	a5,8(s0)
    8000531c:	ffed                	bnez	a5,80005316 <htif_console_putchar+0x34>
    8000531e:	10100513          	li	a0,257
    80005322:	1542                	slli	a0,a0,0x30
    80005324:	8cc9                	or	s1,s1,a0
    80005326:	e404                	sd	s1,8(s0)
    80005328:	0ff0000f          	fence
    8000532c:	60e2                	ld	ra,24(sp)
    8000532e:	6442                	ld	s0,16(sp)
    80005330:	00014797          	auipc	a5,0x14
    80005334:	d407a423          	sw	zero,-696(a5) # 80019078 <htif_lock>
    80005338:	64a2                	ld	s1,8(sp)
    8000533a:	6105                	addi	sp,sp,32
    8000533c:	8082                	ret

000000008000533e <htif_poweroff>:
    8000533e:	00005717          	auipc	a4,0x5
    80005342:	cc270713          	addi	a4,a4,-830 # 8000a000 <fromhost>
    80005346:	4785                	li	a5,1
    80005348:	00005697          	auipc	a3,0x5
    8000534c:	ca06bc23          	sd	zero,-840(a3) # 8000a000 <fromhost>
    80005350:	e71c                	sd	a5,8(a4)
    80005352:	bfdd                	j	80005348 <htif_poweroff+0xa>

0000000080005354 <query_htif>:
    80005354:	7139                	addi	sp,sp,-64
    80005356:	00000797          	auipc	a5,0x0
    8000535a:	dc478793          	addi	a5,a5,-572 # 8000511a <htif_open>
    8000535e:	e43e                	sd	a5,8(sp)
    80005360:	00000797          	auipc	a5,0x0
    80005364:	e6478793          	addi	a5,a5,-412 # 800051c4 <htif_prop>
    80005368:	e83e                	sd	a5,16(sp)
    8000536a:	002c                	addi	a1,sp,8
    8000536c:	00000797          	auipc	a5,0x0
    80005370:	d9e78793          	addi	a5,a5,-610 # 8000510a <htif_done>
    80005374:	fc06                	sd	ra,56(sp)
    80005376:	f002                	sd	zero,32(sp)
    80005378:	ec3e                	sd	a5,24(sp)
    8000537a:	f40a                	sd	sp,40(sp)
    8000537c:	1b2010ef          	jal	ra,8000652e <fdt_scan>
    80005380:	70e2                	ld	ra,56(sp)
    80005382:	6121                	addi	sp,sp,64
    80005384:	8082                	ret

0000000080005386 <uart_done>:
    80005386:	419c                	lw	a5,0(a1)
    80005388:	cb89                	beqz	a5,8000539a <uart_done+0x14>
    8000538a:	659c                	ld	a5,8(a1)
    8000538c:	c799                	beqz	a5,8000539a <uart_done+0x14>
    8000538e:	00014717          	auipc	a4,0x14
    80005392:	f8a70713          	addi	a4,a4,-118 # 80019318 <uart>
    80005396:	6314                	ld	a3,0(a4)
    80005398:	c291                	beqz	a3,8000539c <uart_done+0x16>
    8000539a:	8082                	ret
    8000539c:	4685                	li	a3,1
    8000539e:	c794                	sw	a3,8(a5)
    800053a0:	e31c                	sd	a5,0(a4)
    800053a2:	c7d4                	sw	a3,12(a5)
    800053a4:	8082                	ret

00000000800053a6 <uart_open>:
    800053a6:	852e                	mv	a0,a1
    800053a8:	4641                	li	a2,16
    800053aa:	4581                	li	a1,0
    800053ac:	0420206f          	j	800073ee <memset>

00000000800053b0 <uart_prop>:
    800053b0:	1101                	addi	sp,sp,-32
    800053b2:	e04a                	sd	s2,0(sp)
    800053b4:	00853903          	ld	s2,8(a0) # 10008 <_ftext-0x7ffefff8>
    800053b8:	e822                	sd	s0,16(sp)
    800053ba:	e426                	sd	s1,8(sp)
    800053bc:	842a                	mv	s0,a0
    800053be:	84ae                	mv	s1,a1
    800053c0:	854a                	mv	a0,s2
    800053c2:	00004597          	auipc	a1,0x4
    800053c6:	8f658593          	addi	a1,a1,-1802 # 80008cb8 <illegal_insn_trap_table+0xd7c>
    800053ca:	ec06                	sd	ra,24(sp)
    800053cc:	082020ef          	jal	ra,8000744e <strcmp>
    800053d0:	e909                	bnez	a0,800053e2 <uart_prop+0x32>
    800053d2:	6808                	ld	a0,16(s0)
    800053d4:	00004597          	auipc	a1,0x4
    800053d8:	90458593          	addi	a1,a1,-1788 # 80008cd8 <illegal_insn_trap_table+0xd9c>
    800053dc:	072020ef          	jal	ra,8000744e <strcmp>
    800053e0:	cd19                	beqz	a0,800053fe <uart_prop+0x4e>
    800053e2:	00004597          	auipc	a1,0x4
    800053e6:	90658593          	addi	a1,a1,-1786 # 80008ce8 <illegal_insn_trap_table+0xdac>
    800053ea:	854a                	mv	a0,s2
    800053ec:	062020ef          	jal	ra,8000744e <strcmp>
    800053f0:	cd19                	beqz	a0,8000540e <uart_prop+0x5e>
    800053f2:	60e2                	ld	ra,24(sp)
    800053f4:	6442                	ld	s0,16(sp)
    800053f6:	64a2                	ld	s1,8(sp)
    800053f8:	6902                	ld	s2,0(sp)
    800053fa:	6105                	addi	sp,sp,32
    800053fc:	8082                	ret
    800053fe:	60e2                	ld	ra,24(sp)
    80005400:	6442                	ld	s0,16(sp)
    80005402:	4785                	li	a5,1
    80005404:	c09c                	sw	a5,0(s1)
    80005406:	6902                	ld	s2,0(sp)
    80005408:	64a2                	ld	s1,8(sp)
    8000540a:	6105                	addi	sp,sp,32
    8000540c:	8082                	ret
    8000540e:	601c                	ld	a5,0(s0)
    80005410:	680c                	ld	a1,16(s0)
    80005412:	6442                	ld	s0,16(sp)
    80005414:	60e2                	ld	ra,24(sp)
    80005416:	6902                	ld	s2,0(sp)
    80005418:	6388                	ld	a0,0(a5)
    8000541a:	00848613          	addi	a2,s1,8
    8000541e:	64a2                	ld	s1,8(sp)
    80005420:	6105                	addi	sp,sp,32
    80005422:	2420106f          	j	80006664 <fdt_get_address>

0000000080005426 <uart_putchar>:
    80005426:	00014697          	auipc	a3,0x14
    8000542a:	ef268693          	addi	a3,a3,-270 # 80019318 <uart>
    8000542e:	629c                	ld	a5,0(a3)
    80005430:	40a7a72f          	amoor.w	a4,a0,(a5)
    80005434:	02071793          	slli	a5,a4,0x20
    80005438:	fe07cbe3          	bltz	a5,8000542e <uart_putchar+0x8>
    8000543c:	8082                	ret

000000008000543e <uart_getchar>:
    8000543e:	00014797          	auipc	a5,0x14
    80005442:	eda7b783          	ld	a5,-294(a5) # 80019318 <uart>
    80005446:	43dc                	lw	a5,4(a5)
    80005448:	2781                	sext.w	a5,a5
    8000544a:	0007851b          	sext.w	a0,a5
    8000544e:	0007c363          	bltz	a5,80005454 <uart_getchar+0x16>
    80005452:	8082                	ret
    80005454:	557d                	li	a0,-1
    80005456:	8082                	ret

0000000080005458 <query_uart>:
    80005458:	715d                	addi	sp,sp,-80
    8000545a:	00000797          	auipc	a5,0x0
    8000545e:	f4c78793          	addi	a5,a5,-180 # 800053a6 <uart_open>
    80005462:	ec3e                	sd	a5,24(sp)
    80005464:	00000797          	auipc	a5,0x0
    80005468:	f4c78793          	addi	a5,a5,-180 # 800053b0 <uart_prop>
    8000546c:	f03e                	sd	a5,32(sp)
    8000546e:	00000797          	auipc	a5,0x0
    80005472:	f1878793          	addi	a5,a5,-232 # 80005386 <uart_done>
    80005476:	f43e                	sd	a5,40(sp)
    80005478:	082c                	addi	a1,sp,24
    8000547a:	003c                	addi	a5,sp,8
    8000547c:	e486                	sd	ra,72(sp)
    8000547e:	f802                	sd	zero,48(sp)
    80005480:	fc3e                	sd	a5,56(sp)
    80005482:	0ac010ef          	jal	ra,8000652e <fdt_scan>
    80005486:	60a6                	ld	ra,72(sp)
    80005488:	6161                	addi	sp,sp,80
    8000548a:	8082                	ret

000000008000548c <uart16550_done>:
    8000548c:	419c                	lw	a5,0(a1)
    8000548e:	cb89                	beqz	a5,800054a0 <uart16550_done+0x14>
    80005490:	6598                	ld	a4,8(a1)
    80005492:	c719                	beqz	a4,800054a0 <uart16550_done+0x14>
    80005494:	00014797          	auipc	a5,0x14
    80005498:	e8c78793          	addi	a5,a5,-372 # 80019320 <uart16550>
    8000549c:	6394                	ld	a3,0(a5)
    8000549e:	c291                	beqz	a3,800054a2 <uart16550_done+0x16>
    800054a0:	8082                	ret
    800054a2:	e398                	sd	a4,0(a5)
    800054a4:	000700a3          	sb	zero,1(a4)
    800054a8:	6394                	ld	a3,0(a5)
    800054aa:	f8000613          	li	a2,-128
    800054ae:	470d                	li	a4,3
    800054b0:	00c681a3          	sb	a2,3(a3)
    800054b4:	6394                	ld	a3,0(a5)
    800054b6:	00e68023          	sb	a4,0(a3)
    800054ba:	6394                	ld	a3,0(a5)
    800054bc:	000680a3          	sb	zero,1(a3)
    800054c0:	6394                	ld	a3,0(a5)
    800054c2:	00e681a3          	sb	a4,3(a3)
    800054c6:	639c                	ld	a5,0(a5)
    800054c8:	fc700713          	li	a4,-57
    800054cc:	00e78123          	sb	a4,2(a5)
    800054d0:	8082                	ret

00000000800054d2 <uart16550_open>:
    800054d2:	852e                	mv	a0,a1
    800054d4:	4641                	li	a2,16
    800054d6:	4581                	li	a1,0
    800054d8:	7170106f          	j	800073ee <memset>

00000000800054dc <uart16550_prop>:
    800054dc:	1101                	addi	sp,sp,-32
    800054de:	e04a                	sd	s2,0(sp)
    800054e0:	00853903          	ld	s2,8(a0)
    800054e4:	e822                	sd	s0,16(sp)
    800054e6:	e426                	sd	s1,8(sp)
    800054e8:	842a                	mv	s0,a0
    800054ea:	84ae                	mv	s1,a1
    800054ec:	854a                	mv	a0,s2
    800054ee:	00003597          	auipc	a1,0x3
    800054f2:	7ca58593          	addi	a1,a1,1994 # 80008cb8 <illegal_insn_trap_table+0xd7c>
    800054f6:	ec06                	sd	ra,24(sp)
    800054f8:	757010ef          	jal	ra,8000744e <strcmp>
    800054fc:	e909                	bnez	a0,8000550e <uart16550_prop+0x32>
    800054fe:	6808                	ld	a0,16(s0)
    80005500:	00003597          	auipc	a1,0x3
    80005504:	7f058593          	addi	a1,a1,2032 # 80008cf0 <illegal_insn_trap_table+0xdb4>
    80005508:	747010ef          	jal	ra,8000744e <strcmp>
    8000550c:	cd19                	beqz	a0,8000552a <uart16550_prop+0x4e>
    8000550e:	00003597          	auipc	a1,0x3
    80005512:	7da58593          	addi	a1,a1,2010 # 80008ce8 <illegal_insn_trap_table+0xdac>
    80005516:	854a                	mv	a0,s2
    80005518:	737010ef          	jal	ra,8000744e <strcmp>
    8000551c:	cd19                	beqz	a0,8000553a <uart16550_prop+0x5e>
    8000551e:	60e2                	ld	ra,24(sp)
    80005520:	6442                	ld	s0,16(sp)
    80005522:	64a2                	ld	s1,8(sp)
    80005524:	6902                	ld	s2,0(sp)
    80005526:	6105                	addi	sp,sp,32
    80005528:	8082                	ret
    8000552a:	60e2                	ld	ra,24(sp)
    8000552c:	6442                	ld	s0,16(sp)
    8000552e:	4785                	li	a5,1
    80005530:	c09c                	sw	a5,0(s1)
    80005532:	6902                	ld	s2,0(sp)
    80005534:	64a2                	ld	s1,8(sp)
    80005536:	6105                	addi	sp,sp,32
    80005538:	8082                	ret
    8000553a:	601c                	ld	a5,0(s0)
    8000553c:	680c                	ld	a1,16(s0)
    8000553e:	6442                	ld	s0,16(sp)
    80005540:	60e2                	ld	ra,24(sp)
    80005542:	6902                	ld	s2,0(sp)
    80005544:	6388                	ld	a0,0(a5)
    80005546:	00848613          	addi	a2,s1,8
    8000554a:	64a2                	ld	s1,8(sp)
    8000554c:	6105                	addi	sp,sp,32
    8000554e:	1160106f          	j	80006664 <fdt_get_address>

0000000080005552 <uart16550_putchar>:
    80005552:	00014717          	auipc	a4,0x14
    80005556:	dce73703          	ld	a4,-562(a4) # 80019320 <uart16550>
    8000555a:	00574783          	lbu	a5,5(a4)
    8000555e:	0207f793          	andi	a5,a5,32
    80005562:	dfe5                	beqz	a5,8000555a <uart16550_putchar+0x8>
    80005564:	00a70023          	sb	a0,0(a4)
    80005568:	8082                	ret

000000008000556a <uart16550_getchar>:
    8000556a:	00014717          	auipc	a4,0x14
    8000556e:	db673703          	ld	a4,-586(a4) # 80019320 <uart16550>
    80005572:	00574783          	lbu	a5,5(a4)
    80005576:	8b85                	andi	a5,a5,1
    80005578:	c791                	beqz	a5,80005584 <uart16550_getchar+0x1a>
    8000557a:	00074503          	lbu	a0,0(a4)
    8000557e:	0ff57513          	andi	a0,a0,255
    80005582:	8082                	ret
    80005584:	557d                	li	a0,-1
    80005586:	8082                	ret

0000000080005588 <query_uart16550>:
    80005588:	715d                	addi	sp,sp,-80
    8000558a:	00000797          	auipc	a5,0x0
    8000558e:	f4878793          	addi	a5,a5,-184 # 800054d2 <uart16550_open>
    80005592:	ec3e                	sd	a5,24(sp)
    80005594:	00000797          	auipc	a5,0x0
    80005598:	f4878793          	addi	a5,a5,-184 # 800054dc <uart16550_prop>
    8000559c:	f03e                	sd	a5,32(sp)
    8000559e:	00000797          	auipc	a5,0x0
    800055a2:	eee78793          	addi	a5,a5,-274 # 8000548c <uart16550_done>
    800055a6:	f43e                	sd	a5,40(sp)
    800055a8:	082c                	addi	a1,sp,24
    800055aa:	003c                	addi	a5,sp,8
    800055ac:	e486                	sd	ra,72(sp)
    800055ae:	f802                	sd	zero,48(sp)
    800055b0:	fc3e                	sd	a5,56(sp)
    800055b2:	77d000ef          	jal	ra,8000652e <fdt_scan>
    800055b6:	60a6                	ld	ra,72(sp)
    800055b8:	6161                	addi	sp,sp,80
    800055ba:	8082                	ret

00000000800055bc <finisher_done>:
    800055bc:	419c                	lw	a5,0(a1)
    800055be:	cb89                	beqz	a5,800055d0 <finisher_done+0x14>
    800055c0:	659c                	ld	a5,8(a1)
    800055c2:	c799                	beqz	a5,800055d0 <finisher_done+0x14>
    800055c4:	00014717          	auipc	a4,0x14
    800055c8:	d6470713          	addi	a4,a4,-668 # 80019328 <finisher>
    800055cc:	6314                	ld	a3,0(a4)
    800055ce:	c291                	beqz	a3,800055d2 <finisher_done+0x16>
    800055d0:	8082                	ret
    800055d2:	e31c                	sd	a5,0(a4)
    800055d4:	8082                	ret

00000000800055d6 <finisher_open>:
    800055d6:	852e                	mv	a0,a1
    800055d8:	4641                	li	a2,16
    800055da:	4581                	li	a1,0
    800055dc:	6130106f          	j	800073ee <memset>

00000000800055e0 <finisher_prop>:
    800055e0:	1101                	addi	sp,sp,-32
    800055e2:	e04a                	sd	s2,0(sp)
    800055e4:	00853903          	ld	s2,8(a0)
    800055e8:	e822                	sd	s0,16(sp)
    800055ea:	e426                	sd	s1,8(sp)
    800055ec:	842a                	mv	s0,a0
    800055ee:	84ae                	mv	s1,a1
    800055f0:	854a                	mv	a0,s2
    800055f2:	00003597          	auipc	a1,0x3
    800055f6:	6c658593          	addi	a1,a1,1734 # 80008cb8 <illegal_insn_trap_table+0xd7c>
    800055fa:	ec06                	sd	ra,24(sp)
    800055fc:	653010ef          	jal	ra,8000744e <strcmp>
    80005600:	e909                	bnez	a0,80005612 <finisher_prop+0x32>
    80005602:	6808                	ld	a0,16(s0)
    80005604:	00003597          	auipc	a1,0x3
    80005608:	6fc58593          	addi	a1,a1,1788 # 80008d00 <illegal_insn_trap_table+0xdc4>
    8000560c:	643010ef          	jal	ra,8000744e <strcmp>
    80005610:	cd19                	beqz	a0,8000562e <finisher_prop+0x4e>
    80005612:	00003597          	auipc	a1,0x3
    80005616:	6d658593          	addi	a1,a1,1750 # 80008ce8 <illegal_insn_trap_table+0xdac>
    8000561a:	854a                	mv	a0,s2
    8000561c:	633010ef          	jal	ra,8000744e <strcmp>
    80005620:	cd19                	beqz	a0,8000563e <finisher_prop+0x5e>
    80005622:	60e2                	ld	ra,24(sp)
    80005624:	6442                	ld	s0,16(sp)
    80005626:	64a2                	ld	s1,8(sp)
    80005628:	6902                	ld	s2,0(sp)
    8000562a:	6105                	addi	sp,sp,32
    8000562c:	8082                	ret
    8000562e:	60e2                	ld	ra,24(sp)
    80005630:	6442                	ld	s0,16(sp)
    80005632:	4785                	li	a5,1
    80005634:	c09c                	sw	a5,0(s1)
    80005636:	6902                	ld	s2,0(sp)
    80005638:	64a2                	ld	s1,8(sp)
    8000563a:	6105                	addi	sp,sp,32
    8000563c:	8082                	ret
    8000563e:	601c                	ld	a5,0(s0)
    80005640:	680c                	ld	a1,16(s0)
    80005642:	6442                	ld	s0,16(sp)
    80005644:	60e2                	ld	ra,24(sp)
    80005646:	6902                	ld	s2,0(sp)
    80005648:	6388                	ld	a0,0(a5)
    8000564a:	00848613          	addi	a2,s1,8
    8000564e:	64a2                	ld	s1,8(sp)
    80005650:	6105                	addi	sp,sp,32
    80005652:	0120106f          	j	80006664 <fdt_get_address>

0000000080005656 <finisher_exit>:
    80005656:	00014797          	auipc	a5,0x14
    8000565a:	cd27b783          	ld	a5,-814(a5) # 80019328 <finisher>
    8000565e:	cf99                	beqz	a5,8000567c <finisher_exit+0x26>
    80005660:	e511                	bnez	a0,8000566c <finisher_exit+0x16>
    80005662:	6715                	lui	a4,0x5
    80005664:	55570713          	addi	a4,a4,1365 # 5555 <_ftext-0x7fffaaab>
    80005668:	c398                	sw	a4,0(a5)
    8000566a:	8082                	ret
    8000566c:	670d                	lui	a4,0x3
    8000566e:	0105151b          	slliw	a0,a0,0x10
    80005672:	33370713          	addi	a4,a4,819 # 3333 <_ftext-0x7fffcccd>
    80005676:	8d59                	or	a0,a0,a4
    80005678:	2501                	sext.w	a0,a0
    8000567a:	c388                	sw	a0,0(a5)
    8000567c:	8082                	ret

000000008000567e <query_finisher>:
    8000567e:	715d                	addi	sp,sp,-80
    80005680:	00000797          	auipc	a5,0x0
    80005684:	f5678793          	addi	a5,a5,-170 # 800055d6 <finisher_open>
    80005688:	ec3e                	sd	a5,24(sp)
    8000568a:	00000797          	auipc	a5,0x0
    8000568e:	f5678793          	addi	a5,a5,-170 # 800055e0 <finisher_prop>
    80005692:	f03e                	sd	a5,32(sp)
    80005694:	00000797          	auipc	a5,0x0
    80005698:	f2878793          	addi	a5,a5,-216 # 800055bc <finisher_done>
    8000569c:	f43e                	sd	a5,40(sp)
    8000569e:	082c                	addi	a1,sp,24
    800056a0:	003c                	addi	a5,sp,8
    800056a2:	e486                	sd	ra,72(sp)
    800056a4:	f802                	sd	zero,48(sp)
    800056a6:	fc3e                	sd	a5,56(sp)
    800056a8:	687000ef          	jal	ra,8000652e <fdt_scan>
    800056ac:	60a6                	ld	ra,72(sp)
    800056ae:	6161                	addi	sp,sp,80
    800056b0:	8082                	ret

00000000800056b2 <hart_open>:
    800056b2:	619c                	ld	a5,0(a1)
    800056b4:	c799                	beqz	a5,800056c2 <hart_open+0x10>
    800056b6:	699c                	ld	a5,16(a1)
    800056b8:	c391                	beqz	a5,800056bc <hart_open+0xa>
    800056ba:	8082                	ret
    800056bc:	0005bc23          	sd	zero,24(a1)
    800056c0:	8082                	ret
    800056c2:	57fd                	li	a5,-1
    800056c4:	c59c                	sw	a5,8(a1)
    800056c6:	bfc5                	j	800056b6 <hart_open+0x4>

00000000800056c8 <hart_close>:
    800056c8:	619c                	ld	a5,0(a1)
    800056ca:	00a78763          	beq	a5,a0,800056d8 <hart_close+0x10>
    800056ce:	699c                	ld	a5,16(a1)
    800056d0:	00a78963          	beq	a5,a0,800056e2 <hart_close+0x1a>
    800056d4:	4501                	li	a0,0
    800056d6:	8082                	ret
    800056d8:	699c                	ld	a5,16(a1)
    800056da:	0005b023          	sd	zero,0(a1)
    800056de:	fea79be3          	bne	a5,a0,800056d4 <hart_close+0xc>
    800056e2:	0005b823          	sd	zero,16(a1)
    800056e6:	4501                	li	a0,0
    800056e8:	8082                	ret

00000000800056ea <clint_open>:
    800056ea:	0005a023          	sw	zero,0(a1)
    800056ee:	0005b423          	sd	zero,8(a1)
    800056f2:	0005b823          	sd	zero,16(a1)
    800056f6:	8082                	ret

00000000800056f8 <plic_open>:
    800056f8:	0005a023          	sw	zero,0(a1)
    800056fc:	0005b423          	sd	zero,8(a1)
    80005700:	0005b823          	sd	zero,16(a1)
    80005704:	8082                	ret

0000000080005706 <plic_redact>:
    80005706:	419c                	lw	a5,0(a1)
    80005708:	c3ad                	beqz	a5,8000576a <plic_redact+0x64>
    8000570a:	4d9c                	lw	a5,24(a1)
    8000570c:	4705                	li	a4,1
    8000570e:	cdd8                	sw	a4,28(a1)
    80005710:	41f7d61b          	sraiw	a2,a5,0x1f
    80005714:	01e6561b          	srliw	a2,a2,0x1e
    80005718:	9e3d                	addw	a2,a2,a5
    8000571a:	4026561b          	sraiw	a2,a2,0x2
    8000571e:	060a                	slli	a2,a2,0x2
    80005720:	6994                	ld	a3,16(a1)
    80005722:	04c05463          	blez	a2,8000576a <plic_redact+0x64>
    80005726:	ff010537          	lui	a0,0xff010
    8000572a:	00ff05b7          	lui	a1,0xff0
    8000572e:	9636                	add	a2,a2,a3
    80005730:	f0050513          	addi	a0,a0,-256 # ffffffffff00ff00 <_end+0xffffffff7eff5f00>
    80005734:	0ff58593          	addi	a1,a1,255 # ff00ff <_ftext-0x7f00ff01>
    80005738:	482d                	li	a6,11
    8000573a:	58fd                	li	a7,-1
    8000573c:	42d8                	lw	a4,4(a3)
    8000573e:	0087179b          	slliw	a5,a4,0x8
    80005742:	0087571b          	srliw	a4,a4,0x8
    80005746:	8f6d                	and	a4,a4,a1
    80005748:	8fe9                	and	a5,a5,a0
    8000574a:	8fd9                	or	a5,a5,a4
    8000574c:	0107971b          	slliw	a4,a5,0x10
    80005750:	0107d79b          	srliw	a5,a5,0x10
    80005754:	8fd9                	or	a5,a5,a4
    80005756:	2781                	sext.w	a5,a5
    80005758:	01079463          	bne	a5,a6,80005760 <plic_redact+0x5a>
    8000575c:	0116a223          	sw	a7,4(a3)
    80005760:	06a1                	addi	a3,a3,8
    80005762:	40d607b3          	sub	a5,a2,a3
    80005766:	fcf04be3          	bgtz	a5,8000573c <plic_redact+0x36>
    8000576a:	8082                	ret

000000008000576c <compat_open>:
    8000576c:	459c                	lw	a5,8(a1)
    8000576e:	2785                	addiw	a5,a5,1
    80005770:	c59c                	sw	a5,8(a1)
    80005772:	8082                	ret

0000000080005774 <compat_close>:
    80005774:	459c                	lw	a5,8(a1)
    80005776:	45d8                	lw	a4,12(a1)
    80005778:	4501                	li	a0,0
    8000577a:	fff7869b          	addiw	a3,a5,-1
    8000577e:	c594                	sw	a3,8(a1)
    80005780:	00f70363          	beq	a4,a5,80005786 <compat_close+0x12>
    80005784:	8082                	ret
    80005786:	3e700793          	li	a5,999
    8000578a:	c5dc                	sw	a5,12(a1)
    8000578c:	557d                	li	a0,-1
    8000578e:	8082                	ret

0000000080005790 <chosen_close>:
    80005790:	619c                	ld	a5,0(a1)
    80005792:	c399                	beqz	a5,80005798 <chosen_close+0x8>
    80005794:	00a78463          	beq	a5,a0,8000579c <chosen_close+0xc>
    80005798:	4501                	li	a0,0
    8000579a:	8082                	ret
    8000579c:	0005b023          	sd	zero,0(a1)
    800057a0:	4501                	li	a0,0
    800057a2:	8082                	ret

00000000800057a4 <hart_filter_open>:
    800057a4:	57fd                	li	a5,-1
    800057a6:	1782                	slli	a5,a5,0x20
    800057a8:	e19c                	sd	a5,0(a1)
    800057aa:	0005b423          	sd	zero,8(a1)
    800057ae:	0005b823          	sd	zero,16(a1)
    800057b2:	8082                	ret

00000000800057b4 <clint_done>:
    800057b4:	419c                	lw	a5,0(a1)
    800057b6:	c3ed                	beqz	a5,80005898 <clint_done+0xe4>
    800057b8:	0085bf03          	ld	t5,8(a1)
    800057bc:	1141                	addi	sp,sp,-16
    800057be:	e406                	sd	ra,8(sp)
    800057c0:	120f0563          	beqz	t5,800058ea <clint_done+0x136>
    800057c4:	6988                	ld	a0,16(a1)
    800057c6:	0e050e63          	beqz	a0,800058c2 <clint_done+0x10e>
    800057ca:	4d9c                	lw	a5,24(a1)
    800057cc:	00f7f813          	andi	a6,a5,15
    800057d0:	0e081963          	bnez	a6,800058c2 <clint_done+0x10e>
    800057d4:	4dd8                	lw	a4,28(a1)
    800057d6:	e371                	bnez	a4,8000589a <clint_done+0xe6>
    800057d8:	41f7d89b          	sraiw	a7,a5,0x1f
    800057dc:	01e8d89b          	srliw	a7,a7,0x1e
    800057e0:	00f888bb          	addw	a7,a7,a5
    800057e4:	67b1                	lui	a5,0xc
    800057e6:	17e1                	addi	a5,a5,-8
    800057e8:	4705                	li	a4,1
    800057ea:	4028d89b          	sraiw	a7,a7,0x2
    800057ee:	97fa                	add	a5,a5,t5
    800057f0:	cdd8                	sw	a4,28(a1)
    800057f2:	088a                	slli	a7,a7,0x2
    800057f4:	00014717          	auipc	a4,0x14
    800057f8:	aef73e23          	sd	a5,-1284(a4) # 800192f0 <mtime>
    800057fc:	07105763          	blez	a7,8000586a <clint_done+0xb6>
    80005800:	6e85                	lui	t4,0x1
    80005802:	9e8a                	add	t4,t4,sp
    80005804:	77fd                	lui	a5,0xfffff
    80005806:	ff010e37          	lui	t3,0xff010
    8000580a:	00ff0337          	lui	t1,0xff0
    8000580e:	6f91                	lui	t6,0x4
    80005810:	00fefeb3          	and	t4,t4,a5
    80005814:	98aa                	add	a7,a7,a0
    80005816:	f00e0e13          	addi	t3,t3,-256 # ffffffffff00ff00 <_end+0xffffffff7eff5f00>
    8000581a:	0ff30313          	addi	t1,t1,255 # ff00ff <_ftext-0x7f00ff01>
    8000581e:	45a1                	li	a1,8
    80005820:	9ffa                	add	t6,t6,t5
    80005822:	f14022f3          	csrr	t0,mhartid
    80005826:	4110                	lw	a2,0(a0)
    80005828:	00013717          	auipc	a4,0x13
    8000582c:	7d870713          	addi	a4,a4,2008 # 80019000 <hart_phandles>
    80005830:	4781                	li	a5,0
    80005832:	0086169b          	slliw	a3,a2,0x8
    80005836:	0086561b          	srliw	a2,a2,0x8
    8000583a:	00667633          	and	a2,a2,t1
    8000583e:	01c6f6b3          	and	a3,a3,t3
    80005842:	8ed1                	or	a3,a3,a2
    80005844:	0106961b          	slliw	a2,a3,0x10
    80005848:	0106d69b          	srliw	a3,a3,0x10
    8000584c:	8e55                	or	a2,a2,a3
    8000584e:	2601                	sext.w	a2,a2
    80005850:	4314                	lw	a3,0(a4)
    80005852:	00c68f63          	beq	a3,a2,80005870 <clint_done+0xbc>
    80005856:	2785                	addiw	a5,a5,1
    80005858:	0711                	addi	a4,a4,4
    8000585a:	feb79be3          	bne	a5,a1,80005850 <clint_done+0x9c>
    8000585e:	0541                	addi	a0,a0,16
    80005860:	40a887b3          	sub	a5,a7,a0
    80005864:	2811                	addiw	a6,a6,4
    80005866:	fcf040e3          	bgtz	a5,80005826 <clint_done+0x72>
    8000586a:	60a2                	ld	ra,8(sp)
    8000586c:	0141                	addi	sp,sp,16
    8000586e:	8082                	ret
    80005870:	405787b3          	sub	a5,a5,t0
    80005874:	07b2                	slli	a5,a5,0xc
    80005876:	0018171b          	slliw	a4,a6,0x1
    8000587a:	fc078793          	addi	a5,a5,-64 # ffffffffffffefc0 <_end+0xffffffff7ffe4fc0>
    8000587e:	97f6                	add	a5,a5,t4
    80005880:	01e806b3          	add	a3,a6,t5
    80005884:	977e                	add	a4,a4,t6
    80005886:	0541                	addi	a0,a0,16
    80005888:	e394                	sd	a3,0(a5)
    8000588a:	eb98                	sd	a4,16(a5)
    8000588c:	40a887b3          	sub	a5,a7,a0
    80005890:	2811                	addiw	a6,a6,4
    80005892:	f8f04ae3          	bgtz	a5,80005826 <clint_done+0x72>
    80005896:	bfd1                	j	8000586a <clint_done+0xb6>
    80005898:	8082                	ret
    8000589a:	00003517          	auipc	a0,0x3
    8000589e:	82650513          	addi	a0,a0,-2010 # 800080c0 <illegal_insn_trap_table+0x184>
    800058a2:	00003697          	auipc	a3,0x3
    800058a6:	4be68693          	addi	a3,a3,1214 # 80008d60 <illegal_insn_trap_table+0xe24>
    800058aa:	14f00613          	li	a2,335
    800058ae:	00003597          	auipc	a1,0x3
    800058b2:	47258593          	addi	a1,a1,1138 # 80008d20 <illegal_insn_trap_table+0xde4>
    800058b6:	b2cff0ef          	jal	ra,80004be2 <printm>
    800058ba:	6541                	lui	a0,0x10
    800058bc:	157d                	addi	a0,a0,-1
    800058be:	b94ff0ef          	jal	ra,80004c52 <poweroff>
    800058c2:	00002517          	auipc	a0,0x2
    800058c6:	7fe50513          	addi	a0,a0,2046 # 800080c0 <illegal_insn_trap_table+0x184>
    800058ca:	00003697          	auipc	a3,0x3
    800058ce:	46668693          	addi	a3,a3,1126 # 80008d30 <illegal_insn_trap_table+0xdf4>
    800058d2:	14e00613          	li	a2,334
    800058d6:	00003597          	auipc	a1,0x3
    800058da:	44a58593          	addi	a1,a1,1098 # 80008d20 <illegal_insn_trap_table+0xde4>
    800058de:	b04ff0ef          	jal	ra,80004be2 <printm>
    800058e2:	6541                	lui	a0,0x10
    800058e4:	157d                	addi	a0,a0,-1
    800058e6:	b6cff0ef          	jal	ra,80004c52 <poweroff>
    800058ea:	00002517          	auipc	a0,0x2
    800058ee:	7d650513          	addi	a0,a0,2006 # 800080c0 <illegal_insn_trap_table+0x184>
    800058f2:	00003697          	auipc	a3,0x3
    800058f6:	41e68693          	addi	a3,a3,1054 # 80008d10 <illegal_insn_trap_table+0xdd4>
    800058fa:	14d00613          	li	a2,333
    800058fe:	00003597          	auipc	a1,0x3
    80005902:	42258593          	addi	a1,a1,1058 # 80008d20 <illegal_insn_trap_table+0xde4>
    80005906:	adcff0ef          	jal	ra,80004be2 <printm>
    8000590a:	6541                	lui	a0,0x10
    8000590c:	157d                	addi	a0,a0,-1
    8000590e:	b44ff0ef          	jal	ra,80004c52 <poweroff>

0000000080005912 <plic_done>:
    80005912:	419c                	lw	a5,0(a1)
    80005914:	1a078463          	beqz	a5,80005abc <plic_done+0x1aa>
    80005918:	6594                	ld	a3,8(a1)
    8000591a:	715d                	addi	sp,sp,-80
    8000591c:	f052                	sd	s4,32(sp)
    8000591e:	e486                	sd	ra,72(sp)
    80005920:	e0a2                	sd	s0,64(sp)
    80005922:	fc26                	sd	s1,56(sp)
    80005924:	f84a                	sd	s2,48(sp)
    80005926:	f44e                	sd	s3,40(sp)
    80005928:	ec56                	sd	s5,24(sp)
    8000592a:	e85a                	sd	s6,16(sp)
    8000592c:	e45e                	sd	s7,8(sp)
    8000592e:	e062                	sd	s8,0(sp)
    80005930:	8a2e                	mv	s4,a1
    80005932:	20068263          	beqz	a3,80005b36 <plic_done+0x224>
    80005936:	6980                	ld	s0,16(a1)
    80005938:	1c040b63          	beqz	s0,80005b0e <plic_done+0x1fc>
    8000593c:	4d9c                	lw	a5,24(a1)
    8000593e:	0077f713          	andi	a4,a5,7
    80005942:	1c071663          	bnez	a4,80005b0e <plic_done+0x1fc>
    80005946:	5198                	lw	a4,32(a1)
    80005948:	3ff00613          	li	a2,1023
    8000594c:	18e66d63          	bltu	a2,a4,80005ae6 <plic_done+0x1d4>
    80005950:	4dd0                	lw	a2,28(a1)
    80005952:	16061663          	bnez	a2,80005abe <plic_done+0x1ac>
    80005956:	41f7d49b          	sraiw	s1,a5,0x1f
    8000595a:	01e4d49b          	srliw	s1,s1,0x1e
    8000595e:	9cbd                	addw	s1,s1,a5
    80005960:	4024d49b          	sraiw	s1,s1,0x2
    80005964:	4785                	li	a5,1
    80005966:	cddc                	sw	a5,28(a1)
    80005968:	048a                	slli	s1,s1,0x2
    8000596a:	00014797          	auipc	a5,0x14
    8000596e:	96d7b723          	sd	a3,-1682(a5) # 800192d8 <plic_priorities>
    80005972:	00014797          	auipc	a5,0x14
    80005976:	94e7bf23          	sd	a4,-1698(a5) # 800192d0 <plic_ndevs>
    8000597a:	06905a63          	blez	s1,800059ee <plic_done+0xdc>
    8000597e:	6a85                	lui	s5,0x1
    80005980:	40800b3b          	negw	s6,s0
    80005984:	9a8a                	add	s5,s5,sp
    80005986:	ff0109b7          	lui	s3,0xff010
    8000598a:	00ff0937          	lui	s2,0xff0
    8000598e:	77fd                	lui	a5,0xfffff
    80005990:	004b1c1b          	slliw	s8,s6,0x4
    80005994:	94a2                	add	s1,s1,s0
    80005996:	009b1b1b          	slliw	s6,s6,0x9
    8000599a:	f0098993          	addi	s3,s3,-256 # ffffffffff00ff00 <_end+0xffffffff7eff5f00>
    8000599e:	0ff90913          	addi	s2,s2,255 # ff00ff <_ftext-0x7f00ff01>
    800059a2:	00fafab3          	and	s5,s5,a5
    800059a6:	f1402bf3          	csrr	s7,mhartid
    800059aa:	4014                	lw	a3,0(s0)
    800059ac:	00013797          	auipc	a5,0x13
    800059b0:	65478793          	addi	a5,a5,1620 # 80019000 <hart_phandles>
    800059b4:	4581                	li	a1,0
    800059b6:	0086971b          	slliw	a4,a3,0x8
    800059ba:	0086d69b          	srliw	a3,a3,0x8
    800059be:	0126f6b3          	and	a3,a3,s2
    800059c2:	01377733          	and	a4,a4,s3
    800059c6:	8f55                	or	a4,a4,a3
    800059c8:	0107169b          	slliw	a3,a4,0x10
    800059cc:	0107571b          	srliw	a4,a4,0x10
    800059d0:	8ed9                	or	a3,a3,a4
    800059d2:	2681                	sext.w	a3,a3
    800059d4:	4621                	li	a2,8
    800059d6:	4398                	lw	a4,0(a5)
    800059d8:	02d70763          	beq	a4,a3,80005a06 <plic_done+0xf4>
    800059dc:	2585                	addiw	a1,a1,1
    800059de:	0791                	addi	a5,a5,4
    800059e0:	fec59be3          	bne	a1,a2,800059d6 <plic_done+0xc4>
    800059e4:	0421                	addi	s0,s0,8
    800059e6:	408487b3          	sub	a5,s1,s0
    800059ea:	fcf040e3          	bgtz	a5,800059aa <plic_done+0x98>
    800059ee:	60a6                	ld	ra,72(sp)
    800059f0:	6406                	ld	s0,64(sp)
    800059f2:	74e2                	ld	s1,56(sp)
    800059f4:	7942                	ld	s2,48(sp)
    800059f6:	79a2                	ld	s3,40(sp)
    800059f8:	7a02                	ld	s4,32(sp)
    800059fa:	6ae2                	ld	s5,24(sp)
    800059fc:	6b42                	ld	s6,16(sp)
    800059fe:	6ba2                	ld	s7,8(sp)
    80005a00:	6c02                	ld	s8,0(sp)
    80005a02:	6161                	addi	sp,sp,80
    80005a04:	8082                	ret
    80005a06:	4054                	lw	a3,4(s0)
    80005a08:	41758733          	sub	a4,a1,s7
    80005a0c:	0732                	slli	a4,a4,0xc
    80005a0e:	0086979b          	slliw	a5,a3,0x8
    80005a12:	0086d69b          	srliw	a3,a3,0x8
    80005a16:	0137f7b3          	and	a5,a5,s3
    80005a1a:	0126f6b3          	and	a3,a3,s2
    80005a1e:	8fd5                	or	a5,a5,a3
    80005a20:	0107961b          	slliw	a2,a5,0x10
    80005a24:	0107d79b          	srliw	a5,a5,0x10
    80005a28:	8fd1                	or	a5,a5,a2
    80005a2a:	fc070713          	addi	a4,a4,-64
    80005a2e:	0007861b          	sext.w	a2,a5
    80005a32:	47ad                	li	a5,11
    80005a34:	9756                	add	a4,a4,s5
    80005a36:	02f60e63          	beq	a2,a5,80005a72 <plic_done+0x160>
    80005a3a:	47a5                	li	a5,9
    80005a3c:	06f61463          	bne	a2,a5,80005aa4 <plic_done+0x192>
    80005a40:	008a3603          	ld	a2,8(s4)
    80005a44:	0044169b          	slliw	a3,s0,0x4
    80005a48:	0094179b          	slliw	a5,s0,0x9
    80005a4c:	6589                	lui	a1,0x2
    80005a4e:	00200537          	lui	a0,0x200
    80005a52:	95b2                	add	a1,a1,a2
    80005a54:	018686bb          	addw	a3,a3,s8
    80005a58:	016787bb          	addw	a5,a5,s6
    80005a5c:	962a                	add	a2,a2,a0
    80005a5e:	97b2                	add	a5,a5,a2
    80005a60:	96ae                	add	a3,a3,a1
    80005a62:	0421                	addi	s0,s0,8
    80005a64:	f71c                	sd	a5,40(a4)
    80005a66:	fb14                	sd	a3,48(a4)
    80005a68:	408487b3          	sub	a5,s1,s0
    80005a6c:	f2f04fe3          	bgtz	a5,800059aa <plic_done+0x98>
    80005a70:	bfbd                	j	800059ee <plic_done+0xdc>
    80005a72:	008a3603          	ld	a2,8(s4)
    80005a76:	0044169b          	slliw	a3,s0,0x4
    80005a7a:	0094179b          	slliw	a5,s0,0x9
    80005a7e:	6589                	lui	a1,0x2
    80005a80:	00200537          	lui	a0,0x200
    80005a84:	95b2                	add	a1,a1,a2
    80005a86:	018686bb          	addw	a3,a3,s8
    80005a8a:	016787bb          	addw	a5,a5,s6
    80005a8e:	962a                	add	a2,a2,a0
    80005a90:	97b2                	add	a5,a5,a2
    80005a92:	96ae                	add	a3,a3,a1
    80005a94:	0421                	addi	s0,s0,8
    80005a96:	ef1c                	sd	a5,24(a4)
    80005a98:	f314                	sd	a3,32(a4)
    80005a9a:	408487b3          	sub	a5,s1,s0
    80005a9e:	f0f046e3          	bgtz	a5,800059aa <plic_done+0x98>
    80005aa2:	b7b1                	j	800059ee <plic_done+0xdc>
    80005aa4:	00003517          	auipc	a0,0x3
    80005aa8:	32450513          	addi	a0,a0,804 # 80008dc8 <illegal_insn_trap_table+0xe8c>
    80005aac:	936ff0ef          	jal	ra,80004be2 <printm>
    80005ab0:	0421                	addi	s0,s0,8
    80005ab2:	408487b3          	sub	a5,s1,s0
    80005ab6:	eef04ae3          	bgtz	a5,800059aa <plic_done+0x98>
    80005aba:	bf15                	j	800059ee <plic_done+0xdc>
    80005abc:	8082                	ret
    80005abe:	00002517          	auipc	a0,0x2
    80005ac2:	60250513          	addi	a0,a0,1538 # 800080c0 <illegal_insn_trap_table+0x184>
    80005ac6:	00003697          	auipc	a3,0x3
    80005aca:	29a68693          	addi	a3,a3,666 # 80008d60 <illegal_insn_trap_table+0xe24>
    80005ace:	1a500613          	li	a2,421
    80005ad2:	00003597          	auipc	a1,0x3
    80005ad6:	24e58593          	addi	a1,a1,590 # 80008d20 <illegal_insn_trap_table+0xde4>
    80005ada:	908ff0ef          	jal	ra,80004be2 <printm>
    80005ade:	6541                	lui	a0,0x10
    80005ae0:	157d                	addi	a0,a0,-1
    80005ae2:	970ff0ef          	jal	ra,80004c52 <poweroff>
    80005ae6:	00002517          	auipc	a0,0x2
    80005aea:	5da50513          	addi	a0,a0,1498 # 800080c0 <illegal_insn_trap_table+0x184>
    80005aee:	00003697          	auipc	a3,0x3
    80005af2:	2b268693          	addi	a3,a3,690 # 80008da0 <illegal_insn_trap_table+0xe64>
    80005af6:	1a400613          	li	a2,420
    80005afa:	00003597          	auipc	a1,0x3
    80005afe:	22658593          	addi	a1,a1,550 # 80008d20 <illegal_insn_trap_table+0xde4>
    80005b02:	8e0ff0ef          	jal	ra,80004be2 <printm>
    80005b06:	6541                	lui	a0,0x10
    80005b08:	157d                	addi	a0,a0,-1
    80005b0a:	948ff0ef          	jal	ra,80004c52 <poweroff>
    80005b0e:	00002517          	auipc	a0,0x2
    80005b12:	5b250513          	addi	a0,a0,1458 # 800080c0 <illegal_insn_trap_table+0x184>
    80005b16:	00003697          	auipc	a3,0x3
    80005b1a:	25a68693          	addi	a3,a3,602 # 80008d70 <illegal_insn_trap_table+0xe34>
    80005b1e:	1a300613          	li	a2,419
    80005b22:	00003597          	auipc	a1,0x3
    80005b26:	1fe58593          	addi	a1,a1,510 # 80008d20 <illegal_insn_trap_table+0xde4>
    80005b2a:	8b8ff0ef          	jal	ra,80004be2 <printm>
    80005b2e:	6541                	lui	a0,0x10
    80005b30:	157d                	addi	a0,a0,-1
    80005b32:	920ff0ef          	jal	ra,80004c52 <poweroff>
    80005b36:	00002517          	auipc	a0,0x2
    80005b3a:	58a50513          	addi	a0,a0,1418 # 800080c0 <illegal_insn_trap_table+0x184>
    80005b3e:	00003697          	auipc	a3,0x3
    80005b42:	1d268693          	addi	a3,a3,466 # 80008d10 <illegal_insn_trap_table+0xdd4>
    80005b46:	1a200613          	li	a2,418
    80005b4a:	00003597          	auipc	a1,0x3
    80005b4e:	1d658593          	addi	a1,a1,470 # 80008d20 <illegal_insn_trap_table+0xde4>
    80005b52:	890ff0ef          	jal	ra,80004be2 <printm>
    80005b56:	6541                	lui	a0,0x10
    80005b58:	157d                	addi	a0,a0,-1
    80005b5a:	8f8ff0ef          	jal	ra,80004c52 <poweroff>

0000000080005b5e <mem_done>:
    80005b5e:	419c                	lw	a5,0(a1)
    80005b60:	12078063          	beqz	a5,80005c80 <mem_done+0x122>
    80005b64:	0085b283          	ld	t0,8(a1)
    80005b68:	1101                	addi	sp,sp,-32
    80005b6a:	ec06                	sd	ra,24(sp)
    80005b6c:	e822                	sd	s0,16(sp)
    80005b6e:	e426                	sd	s1,8(sp)
    80005b70:	10028963          	beqz	t0,80005c82 <mem_done+0x124>
    80005b74:	4998                	lw	a4,16(a1)
    80005b76:	00377793          	andi	a5,a4,3
    80005b7a:	10079463          	bnez	a5,80005c82 <mem_done+0x124>
    80005b7e:	41f7579b          	sraiw	a5,a4,0x1f
    80005b82:	01e7d79b          	srliw	a5,a5,0x1e
    80005b86:	9fb9                	addw	a5,a5,a4
    80005b88:	4027d79b          	sraiw	a5,a5,0x2
    80005b8c:	078a                	slli	a5,a5,0x2
    80005b8e:	00f288b3          	add	a7,t0,a5
    80005b92:	0cf05a63          	blez	a5,80005c66 <mem_done+0x108>
    80005b96:	611c                	ld	a5,0(a0)
    80005b98:	00013f97          	auipc	t6,0x13
    80005b9c:	748f8f93          	addi	t6,t6,1864 # 800192e0 <mem_size>
    80005ba0:	000fbf03          	ld	t5,0(t6)
    80005ba4:	0107a303          	lw	t1,16(a5)
    80005ba8:	0147ae03          	lw	t3,20(a5)
    80005bac:	ff010637          	lui	a2,0xff010
    80005bb0:	fff3051b          	addiw	a0,t1,-1
    80005bb4:	fffe059b          	addiw	a1,t3,-1
    80005bb8:	1502                	slli	a0,a0,0x20
    80005bba:	1582                	slli	a1,a1,0x20
    80005bbc:	9101                	srli	a0,a0,0x20
    80005bbe:	9181                	srli	a1,a1,0x20
    80005bc0:	0505                	addi	a0,a0,1
    80005bc2:	0585                	addi	a1,a1,1
    80005bc4:	00ff06b7          	lui	a3,0xff0
    80005bc8:	00000817          	auipc	a6,0x0
    80005bcc:	f9680813          	addi	a6,a6,-106 # 80005b5e <mem_done>
    80005bd0:	050a                	slli	a0,a0,0x2
    80005bd2:	058a                	slli	a1,a1,0x2
    80005bd4:	4e81                	li	t4,0
    80005bd6:	f0060613          	addi	a2,a2,-256 # ffffffffff00ff00 <_end+0xffffffff7eff5f00>
    80005bda:	0ff68693          	addi	a3,a3,255 # ff00ff <_ftext-0x7f00ff01>
    80005bde:	08605b63          	blez	t1,80005c74 <mem_done+0x116>
    80005be2:	00a28433          	add	s0,t0,a0
    80005be6:	4381                	li	t2,0
    80005be8:	0002a703          	lw	a4,0(t0)
    80005bec:	1382                	slli	t2,t2,0x20
    80005bee:	0291                	addi	t0,t0,4
    80005bf0:	0087179b          	slliw	a5,a4,0x8
    80005bf4:	0087571b          	srliw	a4,a4,0x8
    80005bf8:	8f75                	and	a4,a4,a3
    80005bfa:	8ff1                	and	a5,a5,a2
    80005bfc:	8fd9                	or	a5,a5,a4
    80005bfe:	0107971b          	slliw	a4,a5,0x10
    80005c02:	0107d79b          	srliw	a5,a5,0x10
    80005c06:	8fd9                	or	a5,a5,a4
    80005c08:	1782                	slli	a5,a5,0x20
    80005c0a:	9381                	srli	a5,a5,0x20
    80005c0c:	93be                	add	t2,t2,a5
    80005c0e:	fc829de3          	bne	t0,s0,80005be8 <mem_done+0x8a>
    80005c12:	07c05563          	blez	t3,80005c7c <mem_done+0x11e>
    80005c16:	00b284b3          	add	s1,t0,a1
    80005c1a:	4781                	li	a5,0
    80005c1c:	0002a703          	lw	a4,0(t0)
    80005c20:	02079413          	slli	s0,a5,0x20
    80005c24:	0291                	addi	t0,t0,4
    80005c26:	0087179b          	slliw	a5,a4,0x8
    80005c2a:	0087571b          	srliw	a4,a4,0x8
    80005c2e:	8f75                	and	a4,a4,a3
    80005c30:	8ff1                	and	a5,a5,a2
    80005c32:	8fd9                	or	a5,a5,a4
    80005c34:	0107971b          	slliw	a4,a5,0x10
    80005c38:	0107d79b          	srliw	a5,a5,0x10
    80005c3c:	8fd9                	or	a5,a5,a4
    80005c3e:	1782                	slli	a5,a5,0x20
    80005c40:	9381                	srli	a5,a5,0x20
    80005c42:	97a2                	add	a5,a5,s0
    80005c44:	fc929ce3          	bne	t0,s1,80005c1c <mem_done+0xbe>
    80005c48:	00786763          	bltu	a6,t2,80005c56 <mem_done+0xf8>
    80005c4c:	93be                	add	t2,t2,a5
    80005c4e:	0103e463          	bltu	t2,a6,80005c56 <mem_done+0xf8>
    80005c52:	8f3e                	mv	t5,a5
    80005c54:	4e85                	li	t4,1
    80005c56:	405887b3          	sub	a5,a7,t0
    80005c5a:	f8f042e3          	bgtz	a5,80005bde <mem_done+0x80>
    80005c5e:	000e8463          	beqz	t4,80005c66 <mem_done+0x108>
    80005c62:	01efb023          	sd	t5,0(t6)
    80005c66:	04589263          	bne	a7,t0,80005caa <mem_done+0x14c>
    80005c6a:	60e2                	ld	ra,24(sp)
    80005c6c:	6442                	ld	s0,16(sp)
    80005c6e:	64a2                	ld	s1,8(sp)
    80005c70:	6105                	addi	sp,sp,32
    80005c72:	8082                	ret
    80005c74:	4381                	li	t2,0
    80005c76:	fbc040e3          	bgtz	t3,80005c16 <mem_done+0xb8>
    80005c7a:	bff1                	j	80005c56 <mem_done+0xf8>
    80005c7c:	4781                	li	a5,0
    80005c7e:	b7e9                	j	80005c48 <mem_done+0xea>
    80005c80:	8082                	ret
    80005c82:	00002517          	auipc	a0,0x2
    80005c86:	43e50513          	addi	a0,a0,1086 # 800080c0 <illegal_insn_trap_table+0x184>
    80005c8a:	00003697          	auipc	a3,0x3
    80005c8e:	16e68693          	addi	a3,a3,366 # 80008df8 <illegal_insn_trap_table+0xebc>
    80005c92:	0af00613          	li	a2,175
    80005c96:	00003597          	auipc	a1,0x3
    80005c9a:	08a58593          	addi	a1,a1,138 # 80008d20 <illegal_insn_trap_table+0xde4>
    80005c9e:	f45fe0ef          	jal	ra,80004be2 <printm>
    80005ca2:	6541                	lui	a0,0x10
    80005ca4:	157d                	addi	a0,a0,-1
    80005ca6:	fadfe0ef          	jal	ra,80004c52 <poweroff>
    80005caa:	00002517          	auipc	a0,0x2
    80005cae:	41650513          	addi	a0,a0,1046 # 800080c0 <illegal_insn_trap_table+0x184>
    80005cb2:	00003697          	auipc	a3,0x3
    80005cb6:	17668693          	addi	a3,a3,374 # 80008e28 <illegal_insn_trap_table+0xeec>
    80005cba:	0b700613          	li	a2,183
    80005cbe:	00003597          	auipc	a1,0x3
    80005cc2:	06258593          	addi	a1,a1,98 # 80008d20 <illegal_insn_trap_table+0xde4>
    80005cc6:	f1dfe0ef          	jal	ra,80004be2 <printm>
    80005cca:	6541                	lui	a0,0x10
    80005ccc:	157d                	addi	a0,a0,-1
    80005cce:	f85fe0ef          	jal	ra,80004c52 <poweroff>

0000000080005cd2 <mem_prop>:
    80005cd2:	1101                	addi	sp,sp,-32
    80005cd4:	e04a                	sd	s2,0(sp)
    80005cd6:	00853903          	ld	s2,8(a0) # 10008 <_ftext-0x7ffefff8>
    80005cda:	e822                	sd	s0,16(sp)
    80005cdc:	e426                	sd	s1,8(sp)
    80005cde:	842a                	mv	s0,a0
    80005ce0:	84ae                	mv	s1,a1
    80005ce2:	854a                	mv	a0,s2
    80005ce4:	00003597          	auipc	a1,0x3
    80005ce8:	15458593          	addi	a1,a1,340 # 80008e38 <illegal_insn_trap_table+0xefc>
    80005cec:	ec06                	sd	ra,24(sp)
    80005cee:	760010ef          	jal	ra,8000744e <strcmp>
    80005cf2:	e10d                	bnez	a0,80005d14 <mem_prop+0x42>
    80005cf4:	6808                	ld	a0,16(s0)
    80005cf6:	00003597          	auipc	a1,0x3
    80005cfa:	15258593          	addi	a1,a1,338 # 80008e48 <illegal_insn_trap_table+0xf0c>
    80005cfe:	750010ef          	jal	ra,8000744e <strcmp>
    80005d02:	e909                	bnez	a0,80005d14 <mem_prop+0x42>
    80005d04:	4785                	li	a5,1
    80005d06:	c09c                	sw	a5,0(s1)
    80005d08:	60e2                	ld	ra,24(sp)
    80005d0a:	6442                	ld	s0,16(sp)
    80005d0c:	64a2                	ld	s1,8(sp)
    80005d0e:	6902                	ld	s2,0(sp)
    80005d10:	6105                	addi	sp,sp,32
    80005d12:	8082                	ret
    80005d14:	00003597          	auipc	a1,0x3
    80005d18:	fd458593          	addi	a1,a1,-44 # 80008ce8 <illegal_insn_trap_table+0xdac>
    80005d1c:	854a                	mv	a0,s2
    80005d1e:	730010ef          	jal	ra,8000744e <strcmp>
    80005d22:	f17d                	bnez	a0,80005d08 <mem_prop+0x36>
    80005d24:	6818                	ld	a4,16(s0)
    80005d26:	4c1c                	lw	a5,24(s0)
    80005d28:	60e2                	ld	ra,24(sp)
    80005d2a:	6442                	ld	s0,16(sp)
    80005d2c:	e498                	sd	a4,8(s1)
    80005d2e:	c89c                	sw	a5,16(s1)
    80005d30:	6902                	ld	s2,0(sp)
    80005d32:	64a2                	ld	s1,8(sp)
    80005d34:	6105                	addi	sp,sp,32
    80005d36:	8082                	ret

0000000080005d38 <chosen_open>:
    80005d38:	1101                	addi	sp,sp,-32
    80005d3a:	e822                	sd	s0,16(sp)
    80005d3c:	842a                	mv	s0,a0
    80005d3e:	6508                	ld	a0,8(a0)
    80005d40:	e426                	sd	s1,8(sp)
    80005d42:	84ae                	mv	s1,a1
    80005d44:	00003597          	auipc	a1,0x3
    80005d48:	10c58593          	addi	a1,a1,268 # 80008e50 <illegal_insn_trap_table+0xf14>
    80005d4c:	ec06                	sd	ra,24(sp)
    80005d4e:	700010ef          	jal	ra,8000744e <strcmp>
    80005d52:	e111                	bnez	a0,80005d56 <chosen_open+0x1e>
    80005d54:	e080                	sd	s0,0(s1)
    80005d56:	60e2                	ld	ra,24(sp)
    80005d58:	6442                	ld	s0,16(sp)
    80005d5a:	64a2                	ld	s1,8(sp)
    80005d5c:	6105                	addi	sp,sp,32
    80005d5e:	8082                	ret

0000000080005d60 <hart_prop>:
    80005d60:	1101                	addi	sp,sp,-32
    80005d62:	e04a                	sd	s2,0(sp)
    80005d64:	00853903          	ld	s2,8(a0)
    80005d68:	e822                	sd	s0,16(sp)
    80005d6a:	e426                	sd	s1,8(sp)
    80005d6c:	842a                	mv	s0,a0
    80005d6e:	84ae                	mv	s1,a1
    80005d70:	854a                	mv	a0,s2
    80005d72:	00003597          	auipc	a1,0x3
    80005d76:	0c658593          	addi	a1,a1,198 # 80008e38 <illegal_insn_trap_table+0xefc>
    80005d7a:	ec06                	sd	ra,24(sp)
    80005d7c:	6d2010ef          	jal	ra,8000744e <strcmp>
    80005d80:	e505                	bnez	a0,80005da8 <hart_prop+0x48>
    80005d82:	6808                	ld	a0,16(s0)
    80005d84:	00003597          	auipc	a1,0x3
    80005d88:	0d458593          	addi	a1,a1,212 # 80008e58 <illegal_insn_trap_table+0xf1c>
    80005d8c:	6c2010ef          	jal	ra,8000744e <strcmp>
    80005d90:	ed01                	bnez	a0,80005da8 <hart_prop+0x48>
    80005d92:	609c                	ld	a5,0(s1)
    80005d94:	14079d63          	bnez	a5,80005eee <hart_prop+0x18e>
    80005d98:	601c                	ld	a5,0(s0)
    80005d9a:	60e2                	ld	ra,24(sp)
    80005d9c:	6442                	ld	s0,16(sp)
    80005d9e:	e09c                	sd	a5,0(s1)
    80005da0:	6902                	ld	s2,0(sp)
    80005da2:	64a2                	ld	s1,8(sp)
    80005da4:	6105                	addi	sp,sp,32
    80005da6:	8082                	ret
    80005da8:	00003597          	auipc	a1,0x3
    80005dac:	0c858593          	addi	a1,a1,200 # 80008e70 <illegal_insn_trap_table+0xf34>
    80005db0:	854a                	mv	a0,s2
    80005db2:	69c010ef          	jal	ra,8000744e <strcmp>
    80005db6:	ed01                	bnez	a0,80005dce <hart_prop+0x6e>
    80005db8:	689c                	ld	a5,16(s1)
    80005dba:	10079663          	bnez	a5,80005ec6 <hart_prop+0x166>
    80005dbe:	601c                	ld	a5,0(s0)
    80005dc0:	e89c                	sd	a5,16(s1)
    80005dc2:	60e2                	ld	ra,24(sp)
    80005dc4:	6442                	ld	s0,16(sp)
    80005dc6:	64a2                	ld	s1,8(sp)
    80005dc8:	6902                	ld	s2,0(sp)
    80005dca:	6105                	addi	sp,sp,32
    80005dcc:	8082                	ret
    80005dce:	00003597          	auipc	a1,0x3
    80005dd2:	0d258593          	addi	a1,a1,210 # 80008ea0 <illegal_insn_trap_table+0xf64>
    80005dd6:	854a                	mv	a0,s2
    80005dd8:	676010ef          	jal	ra,8000744e <strcmp>
    80005ddc:	c129                	beqz	a0,80005e1e <hart_prop+0xbe>
    80005dde:	00003597          	auipc	a1,0x3
    80005de2:	0da58593          	addi	a1,a1,218 # 80008eb8 <illegal_insn_trap_table+0xf7c>
    80005de6:	854a                	mv	a0,s2
    80005de8:	666010ef          	jal	ra,8000744e <strcmp>
    80005dec:	e535                	bnez	a0,80005e58 <hart_prop+0xf8>
    80005dee:	681c                	ld	a5,16(s0)
    80005df0:	ff0106b7          	lui	a3,0xff010
    80005df4:	f0068693          	addi	a3,a3,-256 # ffffffffff00ff00 <_end+0xffffffff7eff5f00>
    80005df8:	4398                	lw	a4,0(a5)
    80005dfa:	0087179b          	slliw	a5,a4,0x8
    80005dfe:	8ff5                	and	a5,a5,a3
    80005e00:	00ff06b7          	lui	a3,0xff0
    80005e04:	0087571b          	srliw	a4,a4,0x8
    80005e08:	0ff68693          	addi	a3,a3,255 # ff00ff <_ftext-0x7f00ff01>
    80005e0c:	8f75                	and	a4,a4,a3
    80005e0e:	8fd9                	or	a5,a5,a4
    80005e10:	0107971b          	slliw	a4,a5,0x10
    80005e14:	0107d79b          	srliw	a5,a5,0x10
    80005e18:	8fd9                	or	a5,a5,a4
    80005e1a:	ccdc                	sw	a5,28(s1)
    80005e1c:	b75d                	j	80005dc2 <hart_prop+0x62>
    80005e1e:	681c                	ld	a5,16(s0)
    80005e20:	ff0106b7          	lui	a3,0xff010
    80005e24:	f0068693          	addi	a3,a3,-256 # ffffffffff00ff00 <_end+0xffffffff7eff5f00>
    80005e28:	4398                	lw	a4,0(a5)
    80005e2a:	60e2                	ld	ra,24(sp)
    80005e2c:	6442                	ld	s0,16(sp)
    80005e2e:	0087179b          	slliw	a5,a4,0x8
    80005e32:	8ff5                	and	a5,a5,a3
    80005e34:	00ff06b7          	lui	a3,0xff0
    80005e38:	0087571b          	srliw	a4,a4,0x8
    80005e3c:	0ff68693          	addi	a3,a3,255 # ff00ff <_ftext-0x7f00ff01>
    80005e40:	8f75                	and	a4,a4,a3
    80005e42:	8fd9                	or	a5,a5,a4
    80005e44:	0107971b          	slliw	a4,a5,0x10
    80005e48:	0107d79b          	srliw	a5,a5,0x10
    80005e4c:	8fd9                	or	a5,a5,a4
    80005e4e:	cc9c                	sw	a5,24(s1)
    80005e50:	6902                	ld	s2,0(sp)
    80005e52:	64a2                	ld	s1,8(sp)
    80005e54:	6105                	addi	sp,sp,32
    80005e56:	8082                	ret
    80005e58:	00003597          	auipc	a1,0x3
    80005e5c:	e9058593          	addi	a1,a1,-368 # 80008ce8 <illegal_insn_trap_table+0xdac>
    80005e60:	854a                	mv	a0,s2
    80005e62:	5ec010ef          	jal	ra,8000744e <strcmp>
    80005e66:	87aa                	mv	a5,a0
    80005e68:	fd29                	bnez	a0,80005dc2 <hart_prop+0x62>
    80005e6a:	6018                	ld	a4,0(s0)
    80005e6c:	6810                	ld	a2,16(s0)
    80005e6e:	6318                	ld	a4,0(a4)
    80005e70:	4b18                	lw	a4,16(a4)
    80005e72:	04e05863          	blez	a4,80005ec2 <hart_prop+0x162>
    80005e76:	fff7059b          	addiw	a1,a4,-1
    80005e7a:	1582                	slli	a1,a1,0x20
    80005e7c:	9181                	srli	a1,a1,0x20
    80005e7e:	0585                	addi	a1,a1,1
    80005e80:	058a                	slli	a1,a1,0x2
    80005e82:	ff010837          	lui	a6,0xff010
    80005e86:	00ff0537          	lui	a0,0xff0
    80005e8a:	95b2                	add	a1,a1,a2
    80005e8c:	f0080813          	addi	a6,a6,-256 # ffffffffff00ff00 <_end+0xffffffff7eff5f00>
    80005e90:	0ff50513          	addi	a0,a0,255 # ff00ff <_ftext-0x7f00ff01>
    80005e94:	4218                	lw	a4,0(a2)
    80005e96:	02079693          	slli	a3,a5,0x20
    80005e9a:	0611                	addi	a2,a2,4
    80005e9c:	0087179b          	slliw	a5,a4,0x8
    80005ea0:	0087571b          	srliw	a4,a4,0x8
    80005ea4:	8f69                	and	a4,a4,a0
    80005ea6:	0107f7b3          	and	a5,a5,a6
    80005eaa:	8fd9                	or	a5,a5,a4
    80005eac:	0107971b          	slliw	a4,a5,0x10
    80005eb0:	0107d79b          	srliw	a5,a5,0x10
    80005eb4:	8fd9                	or	a5,a5,a4
    80005eb6:	1782                	slli	a5,a5,0x20
    80005eb8:	9381                	srli	a5,a5,0x20
    80005eba:	97b6                	add	a5,a5,a3
    80005ebc:	fcb61ce3          	bne	a2,a1,80005e94 <hart_prop+0x134>
    80005ec0:	2781                	sext.w	a5,a5
    80005ec2:	c49c                	sw	a5,8(s1)
    80005ec4:	bdfd                	j	80005dc2 <hart_prop+0x62>
    80005ec6:	00002517          	auipc	a0,0x2
    80005eca:	1fa50513          	addi	a0,a0,506 # 800080c0 <illegal_insn_trap_table+0x184>
    80005ece:	00003697          	auipc	a3,0x3
    80005ed2:	fba68693          	addi	a3,a3,-70 # 80008e88 <illegal_insn_trap_table+0xf4c>
    80005ed6:	0ea00613          	li	a2,234
    80005eda:	00003597          	auipc	a1,0x3
    80005ede:	e4658593          	addi	a1,a1,-442 # 80008d20 <illegal_insn_trap_table+0xde4>
    80005ee2:	d01fe0ef          	jal	ra,80004be2 <printm>
    80005ee6:	6541                	lui	a0,0x10
    80005ee8:	157d                	addi	a0,a0,-1
    80005eea:	d69fe0ef          	jal	ra,80004c52 <poweroff>
    80005eee:	00002517          	auipc	a0,0x2
    80005ef2:	1d250513          	addi	a0,a0,466 # 800080c0 <illegal_insn_trap_table+0x184>
    80005ef6:	00003697          	auipc	a3,0x3
    80005efa:	f6a68693          	addi	a3,a3,-150 # 80008e60 <illegal_insn_trap_table+0xf24>
    80005efe:	0e700613          	li	a2,231
    80005f02:	bfe1                	j	80005eda <hart_prop+0x17a>

0000000080005f04 <hart_filter_prop>:
    80005f04:	1101                	addi	sp,sp,-32
    80005f06:	e04a                	sd	s2,0(sp)
    80005f08:	00853903          	ld	s2,8(a0)
    80005f0c:	e822                	sd	s0,16(sp)
    80005f0e:	e426                	sd	s1,8(sp)
    80005f10:	842e                	mv	s0,a1
    80005f12:	84aa                	mv	s1,a0
    80005f14:	00003597          	auipc	a1,0x3
    80005f18:	f2458593          	addi	a1,a1,-220 # 80008e38 <illegal_insn_trap_table+0xefc>
    80005f1c:	854a                	mv	a0,s2
    80005f1e:	ec06                	sd	ra,24(sp)
    80005f20:	52e010ef          	jal	ra,8000744e <strcmp>
    80005f24:	e10d                	bnez	a0,80005f46 <hart_filter_prop+0x42>
    80005f26:	6888                	ld	a0,16(s1)
    80005f28:	00003597          	auipc	a1,0x3
    80005f2c:	f3058593          	addi	a1,a1,-208 # 80008e58 <illegal_insn_trap_table+0xf1c>
    80005f30:	51e010ef          	jal	ra,8000744e <strcmp>
    80005f34:	e909                	bnez	a0,80005f46 <hart_filter_prop+0x42>
    80005f36:	4785                	li	a5,1
    80005f38:	60e2                	ld	ra,24(sp)
    80005f3a:	c01c                	sw	a5,0(s0)
    80005f3c:	6442                	ld	s0,16(sp)
    80005f3e:	64a2                	ld	s1,8(sp)
    80005f40:	6902                	ld	s2,0(sp)
    80005f42:	6105                	addi	sp,sp,32
    80005f44:	8082                	ret
    80005f46:	00003597          	auipc	a1,0x3
    80005f4a:	da258593          	addi	a1,a1,-606 # 80008ce8 <illegal_insn_trap_table+0xdac>
    80005f4e:	854a                	mv	a0,s2
    80005f50:	4fe010ef          	jal	ra,8000744e <strcmp>
    80005f54:	87aa                	mv	a5,a0
    80005f56:	e525                	bnez	a0,80005fbe <hart_filter_prop+0xba>
    80005f58:	6098                	ld	a4,0(s1)
    80005f5a:	6890                	ld	a2,16(s1)
    80005f5c:	6318                	ld	a4,0(a4)
    80005f5e:	4b18                	lw	a4,16(a4)
    80005f60:	04e05863          	blez	a4,80005fb0 <hart_filter_prop+0xac>
    80005f64:	fff7059b          	addiw	a1,a4,-1
    80005f68:	1582                	slli	a1,a1,0x20
    80005f6a:	9181                	srli	a1,a1,0x20
    80005f6c:	0585                	addi	a1,a1,1
    80005f6e:	058a                	slli	a1,a1,0x2
    80005f70:	ff010837          	lui	a6,0xff010
    80005f74:	00ff0537          	lui	a0,0xff0
    80005f78:	95b2                	add	a1,a1,a2
    80005f7a:	f0080813          	addi	a6,a6,-256 # ffffffffff00ff00 <_end+0xffffffff7eff5f00>
    80005f7e:	0ff50513          	addi	a0,a0,255 # ff00ff <_ftext-0x7f00ff01>
    80005f82:	4218                	lw	a4,0(a2)
    80005f84:	02079693          	slli	a3,a5,0x20
    80005f88:	0611                	addi	a2,a2,4
    80005f8a:	0087179b          	slliw	a5,a4,0x8
    80005f8e:	0087571b          	srliw	a4,a4,0x8
    80005f92:	8f69                	and	a4,a4,a0
    80005f94:	0107f7b3          	and	a5,a5,a6
    80005f98:	8fd9                	or	a5,a5,a4
    80005f9a:	0107971b          	slliw	a4,a5,0x10
    80005f9e:	0107d79b          	srliw	a5,a5,0x10
    80005fa2:	8fd9                	or	a5,a5,a4
    80005fa4:	1782                	slli	a5,a5,0x20
    80005fa6:	9381                	srli	a5,a5,0x20
    80005fa8:	97b6                	add	a5,a5,a3
    80005faa:	fcb61ce3          	bne	a2,a1,80005f82 <hart_filter_prop+0x7e>
    80005fae:	2781                	sext.w	a5,a5
    80005fb0:	c05c                	sw	a5,4(s0)
    80005fb2:	60e2                	ld	ra,24(sp)
    80005fb4:	6442                	ld	s0,16(sp)
    80005fb6:	64a2                	ld	s1,8(sp)
    80005fb8:	6902                	ld	s2,0(sp)
    80005fba:	6105                	addi	sp,sp,32
    80005fbc:	8082                	ret
    80005fbe:	00003597          	auipc	a1,0x3
    80005fc2:	f8258593          	addi	a1,a1,-126 # 80008f40 <illegal_insn_trap_table+0x1004>
    80005fc6:	854a                	mv	a0,s2
    80005fc8:	486010ef          	jal	ra,8000744e <strcmp>
    80005fcc:	cd01                	beqz	a0,80005fe4 <hart_filter_prop+0xe0>
    80005fce:	00003597          	auipc	a1,0x3
    80005fd2:	ef258593          	addi	a1,a1,-270 # 80008ec0 <illegal_insn_trap_table+0xf84>
    80005fd6:	854a                	mv	a0,s2
    80005fd8:	476010ef          	jal	ra,8000744e <strcmp>
    80005fdc:	f979                	bnez	a0,80005fb2 <hart_filter_prop+0xae>
    80005fde:	689c                	ld	a5,16(s1)
    80005fe0:	e81c                	sd	a5,16(s0)
    80005fe2:	bfc1                	j	80005fb2 <hart_filter_prop+0xae>
    80005fe4:	689c                	ld	a5,16(s1)
    80005fe6:	60e2                	ld	ra,24(sp)
    80005fe8:	64a2                	ld	s1,8(sp)
    80005fea:	e41c                	sd	a5,8(s0)
    80005fec:	6442                	ld	s0,16(sp)
    80005fee:	6902                	ld	s2,0(sp)
    80005ff0:	6105                	addi	sp,sp,32
    80005ff2:	8082                	ret

0000000080005ff4 <fdt_scan_helper>:
    80005ff4:	4785                	li	a5,1
    80005ff6:	7131                	addi	sp,sp,-192
    80005ff8:	1782                	slli	a5,a5,0x20
    80005ffa:	f922                	sd	s0,176(sp)
    80005ffc:	f526                	sd	s1,168(sp)
    80005ffe:	0789                	addi	a5,a5,2
    80006000:	00ff04b7          	lui	s1,0xff0
    80006004:	ff010437          	lui	s0,0xff010
    80006008:	f14a                	sd	s2,160(sp)
    8000600a:	ed4e                	sd	s3,152(sp)
    8000600c:	e952                	sd	s4,144(sp)
    8000600e:	e556                	sd	s5,136(sp)
    80006010:	e15a                	sd	s6,128(sp)
    80006012:	fcde                	sd	s7,120(sp)
    80006014:	f8e2                	sd	s8,112(sp)
    80006016:	f4e6                	sd	s9,104(sp)
    80006018:	f0ea                	sd	s10,96(sp)
    8000601a:	fd06                	sd	ra,184(sp)
    8000601c:	ecee                	sd	s11,88(sp)
    8000601e:	8c32                	mv	s8,a2
    80006020:	8baa                	mv	s7,a0
    80006022:	892e                	mv	s2,a1
    80006024:	8b36                	mv	s6,a3
    80006026:	ec32                	sd	a2,24(sp)
    80006028:	f43e                	sd	a5,40(sp)
    8000602a:	f832                	sd	a2,48(sp)
    8000602c:	4d01                	li	s10,0
    8000602e:	0ff48493          	addi	s1,s1,255 # ff00ff <_ftext-0x7f00ff01>
    80006032:	f0040413          	addi	s0,s0,-256 # ffffffffff00ff00 <_end+0xffffffff7eff5f00>
    80006036:	4c8d                	li	s9,3
    80006038:	00003a97          	auipc	s5,0x3
    8000603c:	ea0a8a93          	addi	s5,s5,-352 # 80008ed8 <illegal_insn_trap_table+0xf9c>
    80006040:	00003a17          	auipc	s4,0x3
    80006044:	ea8a0a13          	addi	s4,s4,-344 # 80008ee8 <illegal_insn_trap_table+0xfac>
    80006048:	4991                	li	s3,4
    8000604a:	000ba783          	lw	a5,0(s7)
    8000604e:	0087d71b          	srliw	a4,a5,0x8
    80006052:	0087979b          	slliw	a5,a5,0x8
    80006056:	8fe1                	and	a5,a5,s0
    80006058:	8f65                	and	a4,a4,s1
    8000605a:	8f5d                	or	a4,a4,a5
    8000605c:	0107179b          	slliw	a5,a4,0x10
    80006060:	0107571b          	srliw	a4,a4,0x10
    80006064:	8fd9                	or	a5,a5,a4
    80006066:	2781                	sext.w	a5,a5
    80006068:	07978763          	beq	a5,s9,800060d6 <fdt_scan_helper+0xe2>
    8000606c:	02fceb63          	bltu	s9,a5,800060a2 <fdt_scan_helper+0xae>
    80006070:	4705                	li	a4,1
    80006072:	12e78c63          	beq	a5,a4,800061aa <fdt_scan_helper+0x1b6>
    80006076:	4709                	li	a4,2
    80006078:	04e79363          	bne	a5,a4,800060be <fdt_scan_helper+0xca>
    8000607c:	020d0763          	beqz	s10,800060aa <fdt_scan_helper+0xb6>
    80006080:	0b91                	addi	s7,s7,4
    80006082:	70ea                	ld	ra,184(sp)
    80006084:	744a                	ld	s0,176(sp)
    80006086:	74aa                	ld	s1,168(sp)
    80006088:	790a                	ld	s2,160(sp)
    8000608a:	69ea                	ld	s3,152(sp)
    8000608c:	6a4a                	ld	s4,144(sp)
    8000608e:	6aaa                	ld	s5,136(sp)
    80006090:	6b0a                	ld	s6,128(sp)
    80006092:	7c46                	ld	s8,112(sp)
    80006094:	7ca6                	ld	s9,104(sp)
    80006096:	7d06                	ld	s10,96(sp)
    80006098:	6de6                	ld	s11,88(sp)
    8000609a:	855e                	mv	a0,s7
    8000609c:	7be6                	ld	s7,120(sp)
    8000609e:	6129                	addi	sp,sp,192
    800060a0:	8082                	ret
    800060a2:	01379e63          	bne	a5,s3,800060be <fdt_scan_helper+0xca>
    800060a6:	0b91                	addi	s7,s7,4
    800060a8:	b74d                	j	8000604a <fdt_scan_helper+0x56>
    800060aa:	fc0c0be3          	beqz	s8,80006080 <fdt_scan_helper+0x8c>
    800060ae:	010b3783          	ld	a5,16(s6) # 1010 <_ftext-0x7fffeff0>
    800060b2:	d7f9                	beqz	a5,80006080 <fdt_scan_helper+0x8c>
    800060b4:	020b3583          	ld	a1,32(s6)
    800060b8:	8562                	mv	a0,s8
    800060ba:	9782                	jalr	a5
    800060bc:	b7d1                	j	80006080 <fdt_scan_helper+0x8c>
    800060be:	fc0d12e3          	bnez	s10,80006082 <fdt_scan_helper+0x8e>
    800060c2:	fc0c00e3          	beqz	s8,80006082 <fdt_scan_helper+0x8e>
    800060c6:	010b3783          	ld	a5,16(s6)
    800060ca:	dfc5                	beqz	a5,80006082 <fdt_scan_helper+0x8e>
    800060cc:	020b3583          	ld	a1,32(s6)
    800060d0:	8562                	mv	a0,s8
    800060d2:	9782                	jalr	a5
    800060d4:	b77d                	j	80006082 <fdt_scan_helper+0x8e>
    800060d6:	140d1463          	bnez	s10,8000621e <fdt_scan_helper+0x22a>
    800060da:	008ba703          	lw	a4,8(s7)
    800060de:	004ba603          	lw	a2,4(s7)
    800060e2:	00cb8593          	addi	a1,s7,12
    800060e6:	0087179b          	slliw	a5,a4,0x8
    800060ea:	0087571b          	srliw	a4,a4,0x8
    800060ee:	8f65                	and	a4,a4,s1
    800060f0:	8fe1                	and	a5,a5,s0
    800060f2:	0086169b          	slliw	a3,a2,0x8
    800060f6:	8fd9                	or	a5,a5,a4
    800060f8:	0086561b          	srliw	a2,a2,0x8
    800060fc:	0107971b          	slliw	a4,a5,0x10
    80006100:	8ee1                	and	a3,a3,s0
    80006102:	8e65                	and	a2,a2,s1
    80006104:	0107d79b          	srliw	a5,a5,0x10
    80006108:	8ed1                	or	a3,a3,a2
    8000610a:	8f5d                	or	a4,a4,a5
    8000610c:	01069d9b          	slliw	s11,a3,0x10
    80006110:	1702                	slli	a4,a4,0x20
    80006112:	0106d69b          	srliw	a3,a3,0x10
    80006116:	9301                	srli	a4,a4,0x20
    80006118:	00dde6b3          	or	a3,s11,a3
    8000611c:	974a                	add	a4,a4,s2
    8000611e:	00068d9b          	sext.w	s11,a3
    80006122:	fc3a                	sd	a4,56(sp)
    80006124:	c4ee                	sw	s11,72(sp)
    80006126:	e0ae                	sd	a1,64(sp)
    80006128:	040c0e63          	beqz	s8,80006184 <fdt_scan_helper+0x190>
    8000612c:	853a                	mv	a0,a4
    8000612e:	85d6                	mv	a1,s5
    80006130:	e43a                	sd	a4,8(sp)
    80006132:	31c010ef          	jal	ra,8000744e <strcmp>
    80006136:	6722                	ld	a4,8(sp)
    80006138:	e10d                	bnez	a0,8000615a <fdt_scan_helper+0x166>
    8000613a:	00cba683          	lw	a3,12(s7)
    8000613e:	0086979b          	slliw	a5,a3,0x8
    80006142:	0086d69b          	srliw	a3,a3,0x8
    80006146:	8ee5                	and	a3,a3,s1
    80006148:	8fe1                	and	a5,a5,s0
    8000614a:	8fd5                	or	a5,a5,a3
    8000614c:	0107969b          	slliw	a3,a5,0x10
    80006150:	0107d79b          	srliw	a5,a5,0x10
    80006154:	8fd5                	or	a5,a5,a3
    80006156:	00fc2823          	sw	a5,16(s8)
    8000615a:	85d2                	mv	a1,s4
    8000615c:	853a                	mv	a0,a4
    8000615e:	2f0010ef          	jal	ra,8000744e <strcmp>
    80006162:	e10d                	bnez	a0,80006184 <fdt_scan_helper+0x190>
    80006164:	00cba703          	lw	a4,12(s7)
    80006168:	0087179b          	slliw	a5,a4,0x8
    8000616c:	0087571b          	srliw	a4,a4,0x8
    80006170:	8f65                	and	a4,a4,s1
    80006172:	8fe1                	and	a5,a5,s0
    80006174:	8fd9                	or	a5,a5,a4
    80006176:	0107971b          	slliw	a4,a5,0x10
    8000617a:	0107d79b          	srliw	a5,a5,0x10
    8000617e:	8fd9                	or	a5,a5,a4
    80006180:	00fc2a23          	sw	a5,20(s8)
    80006184:	2d8d                	addiw	s11,s11,3
    80006186:	41fdd79b          	sraiw	a5,s11,0x1f
    8000618a:	01e7d79b          	srliw	a5,a5,0x1e
    8000618e:	01b787bb          	addw	a5,a5,s11
    80006192:	008b3703          	ld	a4,8(s6)
    80006196:	020b3583          	ld	a1,32(s6)
    8000619a:	4027d79b          	sraiw	a5,a5,0x2
    8000619e:	278d                	addiw	a5,a5,3
    800061a0:	078a                	slli	a5,a5,0x2
    800061a2:	1808                	addi	a0,sp,48
    800061a4:	9bbe                	add	s7,s7,a5
    800061a6:	9702                	jalr	a4
    800061a8:	b54d                	j	8000604a <fdt_scan_helper+0x56>
    800061aa:	000d1b63          	bnez	s10,800061c0 <fdt_scan_helper+0x1cc>
    800061ae:	000c0963          	beqz	s8,800061c0 <fdt_scan_helper+0x1cc>
    800061b2:	010b3783          	ld	a5,16(s6)
    800061b6:	c789                	beqz	a5,800061c0 <fdt_scan_helper+0x1cc>
    800061b8:	020b3583          	ld	a1,32(s6)
    800061bc:	8562                	mv	a0,s8
    800061be:	9782                	jalr	a5
    800061c0:	000b3783          	ld	a5,0(s6)
    800061c4:	004b8513          	addi	a0,s7,4
    800061c8:	f02a                	sd	a0,32(sp)
    800061ca:	c791                	beqz	a5,800061d6 <fdt_scan_helper+0x1e2>
    800061cc:	020b3583          	ld	a1,32(s6)
    800061d0:	0828                	addi	a0,sp,24
    800061d2:	9782                	jalr	a5
    800061d4:	7502                	ld	a0,32(sp)
    800061d6:	25e010ef          	jal	ra,80007434 <strlen>
    800061da:	9971                	andi	a0,a0,-4
    800061dc:	0521                	addi	a0,a0,8
    800061de:	86da                	mv	a3,s6
    800061e0:	0830                	addi	a2,sp,24
    800061e2:	85ca                	mv	a1,s2
    800061e4:	955e                	add	a0,a0,s7
    800061e6:	e0fff0ef          	jal	ra,80005ff4 <fdt_scan_helper>
    800061ea:	018b3783          	ld	a5,24(s6)
    800061ee:	8d2a                	mv	s10,a0
    800061f0:	cb81                	beqz	a5,80006200 <fdt_scan_helper+0x20c>
    800061f2:	020b3583          	ld	a1,32(s6)
    800061f6:	0828                	addi	a0,sp,24
    800061f8:	9782                	jalr	a5
    800061fa:	57fd                	li	a5,-1
    800061fc:	00f50563          	beq	a0,a5,80006206 <fdt_scan_helper+0x212>
    80006200:	8bea                	mv	s7,s10
    80006202:	4d05                	li	s10,1
    80006204:	b599                	j	8000604a <fdt_scan_helper+0x56>
    80006206:	01ab8a63          	beq	s7,s10,8000621a <fdt_scan_helper+0x226>
    8000620a:	040007b7          	lui	a5,0x4000
    8000620e:	0b91                	addi	s7,s7,4
    80006210:	fefbae23          	sw	a5,-4(s7)
    80006214:	ff7d1de3          	bne	s10,s7,8000620e <fdt_scan_helper+0x21a>
    80006218:	b7e5                	j	80006200 <fdt_scan_helper+0x20c>
    8000621a:	4d05                	li	s10,1
    8000621c:	b53d                	j	8000604a <fdt_scan_helper+0x56>
    8000621e:	00002517          	auipc	a0,0x2
    80006222:	ea250513          	addi	a0,a0,-350 # 800080c0 <illegal_insn_trap_table+0x184>
    80006226:	00003697          	auipc	a3,0x3
    8000622a:	caa68693          	addi	a3,a3,-854 # 80008ed0 <illegal_insn_trap_table+0xf94>
    8000622e:	03500613          	li	a2,53
    80006232:	00003597          	auipc	a1,0x3
    80006236:	aee58593          	addi	a1,a1,-1298 # 80008d20 <illegal_insn_trap_table+0xde4>
    8000623a:	9a9fe0ef          	jal	ra,80004be2 <printm>
    8000623e:	6541                	lui	a0,0x10
    80006240:	157d                	addi	a0,a0,-1
    80006242:	a11fe0ef          	jal	ra,80004c52 <poweroff>

0000000080006246 <mem_open>:
    80006246:	852e                	mv	a0,a1
    80006248:	4661                	li	a2,24
    8000624a:	4581                	li	a1,0
    8000624c:	1a20106f          	j	800073ee <memset>

0000000080006250 <hart_done>:
    80006250:	619c                	ld	a5,0(a1)
    80006252:	1141                	addi	sp,sp,-16
    80006254:	e406                	sd	ra,8(sp)
    80006256:	00a78863          	beq	a5,a0,80006266 <hart_done+0x16>
    8000625a:	6998                	ld	a4,16(a1)
    8000625c:	02a70c63          	beq	a4,a0,80006294 <hart_done+0x44>
    80006260:	60a2                	ld	ra,8(sp)
    80006262:	0141                	addi	sp,sp,16
    80006264:	8082                	ret
    80006266:	4598                	lw	a4,8(a1)
    80006268:	fe0759e3          	bgez	a4,8000625a <hart_done+0xa>
    8000626c:	00002517          	auipc	a0,0x2
    80006270:	e5450513          	addi	a0,a0,-428 # 800080c0 <illegal_insn_trap_table+0x184>
    80006274:	00003697          	auipc	a3,0x3
    80006278:	c8468693          	addi	a3,a3,-892 # 80008ef8 <illegal_insn_trap_table+0xfbc>
    8000627c:	0fc00613          	li	a2,252
    80006280:	00003597          	auipc	a1,0x3
    80006284:	aa058593          	addi	a1,a1,-1376 # 80008d20 <illegal_insn_trap_table+0xde4>
    80006288:	95bfe0ef          	jal	ra,80004be2 <printm>
    8000628c:	6541                	lui	a0,0x10
    8000628e:	157d                	addi	a0,a0,-1
    80006290:	9c3fe0ef          	jal	ra,80004c52 <poweroff>
    80006294:	d7f1                	beqz	a5,80006260 <hart_done+0x10>
    80006296:	4dd8                	lw	a4,28(a1)
    80006298:	cf1d                	beqz	a4,800062d6 <hart_done+0x86>
    8000629a:	4d94                	lw	a3,24(a1)
    8000629c:	4785                	li	a5,1
    8000629e:	04f69763          	bne	a3,a5,800062ec <hart_done+0x9c>
    800062a2:	459c                	lw	a5,8(a1)
    800062a4:	469d                	li	a3,7
    800062a6:	faf6cde3          	blt	a3,a5,80006260 <hart_done+0x10>
    800062aa:	00013697          	auipc	a3,0x13
    800062ae:	d5668693          	addi	a3,a3,-682 # 80019000 <hart_phandles>
    800062b2:	078a                	slli	a5,a5,0x2
    800062b4:	97b6                	add	a5,a5,a3
    800062b6:	c398                	sw	a4,0(a5)
    800062b8:	4588                	lw	a0,8(a1)
    800062ba:	00013717          	auipc	a4,0x13
    800062be:	07670713          	addi	a4,a4,118 # 80019330 <hart_mask>
    800062c2:	6314                	ld	a3,0(a4)
    800062c4:	4785                	li	a5,1
    800062c6:	00a797bb          	sllw	a5,a5,a0
    800062ca:	60a2                	ld	ra,8(sp)
    800062cc:	8fd5                	or	a5,a5,a3
    800062ce:	e31c                	sd	a5,0(a4)
    800062d0:	0141                	addi	sp,sp,16
    800062d2:	c61fe06f          	j	80004f32 <hls_init>
    800062d6:	00002517          	auipc	a0,0x2
    800062da:	dea50513          	addi	a0,a0,-534 # 800080c0 <illegal_insn_trap_table+0x184>
    800062de:	00003697          	auipc	a3,0x3
    800062e2:	c2a68693          	addi	a3,a3,-982 # 80008f08 <illegal_insn_trap_table+0xfcc>
    800062e6:	10000613          	li	a2,256
    800062ea:	bf59                	j	80006280 <hart_done+0x30>
    800062ec:	00002517          	auipc	a0,0x2
    800062f0:	dd450513          	addi	a0,a0,-556 # 800080c0 <illegal_insn_trap_table+0x184>
    800062f4:	00003697          	auipc	a3,0x3
    800062f8:	c2c68693          	addi	a3,a3,-980 # 80008f20 <illegal_insn_trap_table+0xfe4>
    800062fc:	10100613          	li	a2,257
    80006300:	b741                	j	80006280 <hart_done+0x30>

0000000080006302 <hart_filter_done>:
    80006302:	419c                	lw	a5,0(a1)
    80006304:	c7e1                	beqz	a5,800063cc <hart_filter_done+0xca>
    80006306:	1101                	addi	sp,sp,-32
    80006308:	e426                	sd	s1,8(sp)
    8000630a:	6584                	ld	s1,8(a1)
    8000630c:	e822                	sd	s0,16(sp)
    8000630e:	ec06                	sd	ra,24(sp)
    80006310:	e04a                	sd	s2,0(sp)
    80006312:	842e                	mv	s0,a1
    80006314:	cccd                	beqz	s1,800063ce <hart_filter_done+0xcc>
    80006316:	41dc                	lw	a5,4(a1)
    80006318:	0c07cf63          	bltz	a5,800063f6 <hart_filter_done+0xf4>
    8000631c:	0105b903          	ld	s2,16(a1)
    80006320:	04090363          	beqz	s2,80006366 <hart_filter_done+0x64>
    80006324:	00003597          	auipc	a1,0x3
    80006328:	c3c58593          	addi	a1,a1,-964 # 80008f60 <illegal_insn_trap_table+0x1024>
    8000632c:	8526                	mv	a0,s1
    8000632e:	120010ef          	jal	ra,8000744e <strcmp>
    80006332:	e915                	bnez	a0,80006366 <hart_filter_done+0x64>
    80006334:	00003597          	auipc	a1,0x3
    80006338:	c3458593          	addi	a1,a1,-972 # 80008f68 <illegal_insn_trap_table+0x102c>
    8000633c:	854a                	mv	a0,s2
    8000633e:	110010ef          	jal	ra,8000744e <strcmp>
    80006342:	cd3d                	beqz	a0,800063c0 <hart_filter_done+0xbe>
    80006344:	00003597          	auipc	a1,0x3
    80006348:	c3458593          	addi	a1,a1,-972 # 80008f78 <illegal_insn_trap_table+0x103c>
    8000634c:	854a                	mv	a0,s2
    8000634e:	100010ef          	jal	ra,8000744e <strcmp>
    80006352:	c53d                	beqz	a0,800063c0 <hart_filter_done+0xbe>
    80006354:	85a6                	mv	a1,s1
    80006356:	864a                	mv	a2,s2
    80006358:	00003517          	auipc	a0,0x3
    8000635c:	c3050513          	addi	a0,a0,-976 # 80008f88 <illegal_insn_trap_table+0x104c>
    80006360:	883fe0ef          	jal	ra,80004be2 <printm>
    80006364:	6404                	ld	s1,8(s0)
    80006366:	00003797          	auipc	a5,0x3
    8000636a:	c6a78793          	addi	a5,a5,-918 # 80008fd0 <illegal_insn_trap_table+0x1094>
    8000636e:	0037c603          	lbu	a2,3(a5)
    80006372:	0047c683          	lbu	a3,4(a5)
    80006376:	0057c703          	lbu	a4,5(a5)
    8000637a:	0007c803          	lbu	a6,0(a5)
    8000637e:	0017c503          	lbu	a0,1(a5)
    80006382:	0027c583          	lbu	a1,2(a5)
    80006386:	0067c783          	lbu	a5,6(a5)
    8000638a:	00e482a3          	sb	a4,5(s1)
    8000638e:	01048023          	sb	a6,0(s1)
    80006392:	00a480a3          	sb	a0,1(s1)
    80006396:	00b48123          	sb	a1,2(s1)
    8000639a:	00c481a3          	sb	a2,3(s1)
    8000639e:	00d48223          	sb	a3,4(s1)
    800063a2:	00f48323          	sb	a5,6(s1)
    800063a6:	641c                	ld	a5,8(s0)
    800063a8:	6c14                	ld	a3,24(s0)
    800063aa:	07000737          	lui	a4,0x7000
    800063ae:	fee7ac23          	sw	a4,-8(a5)
    800063b2:	4050                	lw	a2,4(s0)
    800063b4:	629c                	ld	a5,0(a3)
    800063b6:	4705                	li	a4,1
    800063b8:	00c7173b          	sllw	a4,a4,a2
    800063bc:	8fd9                	or	a5,a5,a4
    800063be:	e29c                	sd	a5,0(a3)
    800063c0:	60e2                	ld	ra,24(sp)
    800063c2:	6442                	ld	s0,16(sp)
    800063c4:	64a2                	ld	s1,8(sp)
    800063c6:	6902                	ld	s2,0(sp)
    800063c8:	6105                	addi	sp,sp,32
    800063ca:	8082                	ret
    800063cc:	8082                	ret
    800063ce:	00002517          	auipc	a0,0x2
    800063d2:	cf250513          	addi	a0,a0,-782 # 800080c0 <illegal_insn_trap_table+0x184>
    800063d6:	00003697          	auipc	a3,0x3
    800063da:	b6268693          	addi	a3,a3,-1182 # 80008f38 <illegal_insn_trap_table+0xffc>
    800063de:	29500613          	li	a2,661
    800063e2:	00003597          	auipc	a1,0x3
    800063e6:	93e58593          	addi	a1,a1,-1730 # 80008d20 <illegal_insn_trap_table+0xde4>
    800063ea:	ff8fe0ef          	jal	ra,80004be2 <printm>
    800063ee:	6541                	lui	a0,0x10
    800063f0:	157d                	addi	a0,a0,-1
    800063f2:	861fe0ef          	jal	ra,80004c52 <poweroff>
    800063f6:	00002517          	auipc	a0,0x2
    800063fa:	cca50513          	addi	a0,a0,-822 # 800080c0 <illegal_insn_trap_table+0x184>
    800063fe:	00003697          	auipc	a3,0x3
    80006402:	b4a68693          	addi	a3,a3,-1206 # 80008f48 <illegal_insn_trap_table+0x100c>
    80006406:	29600613          	li	a2,662
    8000640a:	00003597          	auipc	a1,0x3
    8000640e:	91658593          	addi	a1,a1,-1770 # 80008d20 <illegal_insn_trap_table+0xde4>
    80006412:	fd0fe0ef          	jal	ra,80004be2 <printm>
    80006416:	6541                	lui	a0,0x10
    80006418:	157d                	addi	a0,a0,-1
    8000641a:	839fe0ef          	jal	ra,80004c52 <poweroff>

000000008000641e <chosen_prop>:
    8000641e:	619c                	ld	a5,0(a1)
    80006420:	10078163          	beqz	a5,80006522 <chosen_prop+0x104>
    80006424:	1101                	addi	sp,sp,-32
    80006426:	e04a                	sd	s2,0(sp)
    80006428:	00853903          	ld	s2,8(a0) # 10008 <_ftext-0x7ffefff8>
    8000642c:	e822                	sd	s0,16(sp)
    8000642e:	e426                	sd	s1,8(sp)
    80006430:	842e                	mv	s0,a1
    80006432:	84aa                	mv	s1,a0
    80006434:	00003597          	auipc	a1,0x3
    80006438:	ba458593          	addi	a1,a1,-1116 # 80008fd8 <illegal_insn_trap_table+0x109c>
    8000643c:	854a                	mv	a0,s2
    8000643e:	ec06                	sd	ra,24(sp)
    80006440:	00e010ef          	jal	ra,8000744e <strcmp>
    80006444:	e525                	bnez	a0,800064ac <chosen_prop+0x8e>
    80006446:	609c                	ld	a5,0(s1)
    80006448:	6890                	ld	a2,16(s1)
    8000644a:	639c                	ld	a5,0(a5)
    8000644c:	4b9c                	lw	a5,16(a5)
    8000644e:	0cf05e63          	blez	a5,8000652a <chosen_prop+0x10c>
    80006452:	fff7859b          	addiw	a1,a5,-1
    80006456:	1582                	slli	a1,a1,0x20
    80006458:	9181                	srli	a1,a1,0x20
    8000645a:	0585                	addi	a1,a1,1
    8000645c:	058a                	slli	a1,a1,0x2
    8000645e:	ff010837          	lui	a6,0xff010
    80006462:	00ff0537          	lui	a0,0xff0
    80006466:	95b2                	add	a1,a1,a2
    80006468:	4781                	li	a5,0
    8000646a:	f0080813          	addi	a6,a6,-256 # ffffffffff00ff00 <_end+0xffffffff7eff5f00>
    8000646e:	0ff50513          	addi	a0,a0,255 # ff00ff <_ftext-0x7f00ff01>
    80006472:	4218                	lw	a4,0(a2)
    80006474:	02079693          	slli	a3,a5,0x20
    80006478:	0611                	addi	a2,a2,4
    8000647a:	0087179b          	slliw	a5,a4,0x8
    8000647e:	0087571b          	srliw	a4,a4,0x8
    80006482:	8f69                	and	a4,a4,a0
    80006484:	0107f7b3          	and	a5,a5,a6
    80006488:	8fd9                	or	a5,a5,a4
    8000648a:	0107971b          	slliw	a4,a5,0x10
    8000648e:	0107d79b          	srliw	a5,a5,0x10
    80006492:	8fd9                	or	a5,a5,a4
    80006494:	1782                	slli	a5,a5,0x20
    80006496:	9381                	srli	a5,a5,0x20
    80006498:	97b6                	add	a5,a5,a3
    8000649a:	fcb61ce3          	bne	a2,a1,80006472 <chosen_prop+0x54>
    8000649e:	e41c                	sd	a5,8(s0)
    800064a0:	60e2                	ld	ra,24(sp)
    800064a2:	6442                	ld	s0,16(sp)
    800064a4:	64a2                	ld	s1,8(sp)
    800064a6:	6902                	ld	s2,0(sp)
    800064a8:	6105                	addi	sp,sp,32
    800064aa:	8082                	ret
    800064ac:	00003597          	auipc	a1,0x3
    800064b0:	b4458593          	addi	a1,a1,-1212 # 80008ff0 <illegal_insn_trap_table+0x10b4>
    800064b4:	854a                	mv	a0,s2
    800064b6:	799000ef          	jal	ra,8000744e <strcmp>
    800064ba:	f17d                	bnez	a0,800064a0 <chosen_prop+0x82>
    800064bc:	609c                	ld	a5,0(s1)
    800064be:	6890                	ld	a2,16(s1)
    800064c0:	639c                	ld	a5,0(a5)
    800064c2:	4b9c                	lw	a5,16(a5)
    800064c4:	06f05063          	blez	a5,80006524 <chosen_prop+0x106>
    800064c8:	fff7859b          	addiw	a1,a5,-1
    800064cc:	1582                	slli	a1,a1,0x20
    800064ce:	9181                	srli	a1,a1,0x20
    800064d0:	0585                	addi	a1,a1,1
    800064d2:	058a                	slli	a1,a1,0x2
    800064d4:	ff010837          	lui	a6,0xff010
    800064d8:	00ff0537          	lui	a0,0xff0
    800064dc:	95b2                	add	a1,a1,a2
    800064de:	4781                	li	a5,0
    800064e0:	f0080813          	addi	a6,a6,-256 # ffffffffff00ff00 <_end+0xffffffff7eff5f00>
    800064e4:	0ff50513          	addi	a0,a0,255 # ff00ff <_ftext-0x7f00ff01>
    800064e8:	4218                	lw	a4,0(a2)
    800064ea:	02079693          	slli	a3,a5,0x20
    800064ee:	0611                	addi	a2,a2,4
    800064f0:	0087179b          	slliw	a5,a4,0x8
    800064f4:	0087571b          	srliw	a4,a4,0x8
    800064f8:	8f69                	and	a4,a4,a0
    800064fa:	0107f7b3          	and	a5,a5,a6
    800064fe:	8fd9                	or	a5,a5,a4
    80006500:	0107971b          	slliw	a4,a5,0x10
    80006504:	0107d79b          	srliw	a5,a5,0x10
    80006508:	8fd9                	or	a5,a5,a4
    8000650a:	1782                	slli	a5,a5,0x20
    8000650c:	9381                	srli	a5,a5,0x20
    8000650e:	97b6                	add	a5,a5,a3
    80006510:	fcb61ce3          	bne	a2,a1,800064e8 <chosen_prop+0xca>
    80006514:	e81c                	sd	a5,16(s0)
    80006516:	60e2                	ld	ra,24(sp)
    80006518:	6442                	ld	s0,16(sp)
    8000651a:	64a2                	ld	s1,8(sp)
    8000651c:	6902                	ld	s2,0(sp)
    8000651e:	6105                	addi	sp,sp,32
    80006520:	8082                	ret
    80006522:	8082                	ret
    80006524:	4781                	li	a5,0
    80006526:	e81c                	sd	a5,16(s0)
    80006528:	b7fd                	j	80006516 <chosen_prop+0xf8>
    8000652a:	4781                	li	a5,0
    8000652c:	bf8d                	j	8000649e <chosen_prop+0x80>

000000008000652e <fdt_scan>:
    8000652e:	4118                	lw	a4,0(a0)
    80006530:	00ff0637          	lui	a2,0xff0
    80006534:	ff010837          	lui	a6,0xff010
    80006538:	0087579b          	srliw	a5,a4,0x8
    8000653c:	0ff60613          	addi	a2,a2,255 # ff00ff <_ftext-0x7f00ff01>
    80006540:	0087171b          	slliw	a4,a4,0x8
    80006544:	f0080813          	addi	a6,a6,-256 # ffffffffff00ff00 <_end+0xffffffff7eff5f00>
    80006548:	01077733          	and	a4,a4,a6
    8000654c:	8ff1                	and	a5,a5,a2
    8000654e:	8fd9                	or	a5,a5,a4
    80006550:	0107971b          	slliw	a4,a5,0x10
    80006554:	0107d79b          	srliw	a5,a5,0x10
    80006558:	8fd9                	or	a5,a5,a4
    8000655a:	d00e0737          	lui	a4,0xd00e0
    8000655e:	2781                	sext.w	a5,a5
    80006560:	eed70713          	addi	a4,a4,-275 # ffffffffd00dfeed <_end+0xffffffff500c5eed>
    80006564:	02e79463          	bne	a5,a4,8000658c <fdt_scan+0x5e>
    80006568:	4d18                	lw	a4,24(a0)
    8000656a:	46c5                	li	a3,17
    8000656c:	0087179b          	slliw	a5,a4,0x8
    80006570:	0087571b          	srliw	a4,a4,0x8
    80006574:	8f71                	and	a4,a4,a2
    80006576:	0107f7b3          	and	a5,a5,a6
    8000657a:	8fd9                	or	a5,a5,a4
    8000657c:	0107971b          	slliw	a4,a5,0x10
    80006580:	0107d79b          	srliw	a5,a5,0x10
    80006584:	8fd9                	or	a5,a5,a4
    80006586:	2781                	sext.w	a5,a5
    80006588:	00f6f363          	bgeu	a3,a5,8000658e <fdt_scan+0x60>
    8000658c:	8082                	ret
    8000658e:	455c                	lw	a5,12(a0)
    80006590:	00852883          	lw	a7,8(a0)
    80006594:	86ae                	mv	a3,a1
    80006596:	0087971b          	slliw	a4,a5,0x8
    8000659a:	0087d59b          	srliw	a1,a5,0x8
    8000659e:	0088979b          	slliw	a5,a7,0x8
    800065a2:	0088d89b          	srliw	a7,a7,0x8
    800065a6:	01077733          	and	a4,a4,a6
    800065aa:	8df1                	and	a1,a1,a2
    800065ac:	0107f833          	and	a6,a5,a6
    800065b0:	00c8f633          	and	a2,a7,a2
    800065b4:	00b767b3          	or	a5,a4,a1
    800065b8:	00c86633          	or	a2,a6,a2
    800065bc:	0107959b          	slliw	a1,a5,0x10
    800065c0:	0106171b          	slliw	a4,a2,0x10
    800065c4:	0107d79b          	srliw	a5,a5,0x10
    800065c8:	0106561b          	srliw	a2,a2,0x10
    800065cc:	8e59                	or	a2,a2,a4
    800065ce:	8fcd                	or	a5,a5,a1
    800065d0:	02061713          	slli	a4,a2,0x20
    800065d4:	02079593          	slli	a1,a5,0x20
    800065d8:	9181                	srli	a1,a1,0x20
    800065da:	9301                	srli	a4,a4,0x20
    800065dc:	95aa                	add	a1,a1,a0
    800065de:	4601                	li	a2,0
    800065e0:	953a                	add	a0,a0,a4
    800065e2:	bc09                	j	80005ff4 <fdt_scan_helper>

00000000800065e4 <fdt_size>:
    800065e4:	4118                	lw	a4,0(a0)
    800065e6:	ff010637          	lui	a2,0xff010
    800065ea:	00ff06b7          	lui	a3,0xff0
    800065ee:	0087179b          	slliw	a5,a4,0x8
    800065f2:	f0060613          	addi	a2,a2,-256 # ffffffffff00ff00 <_end+0xffffffff7eff5f00>
    800065f6:	0087571b          	srliw	a4,a4,0x8
    800065fa:	0ff68693          	addi	a3,a3,255 # ff00ff <_ftext-0x7f00ff01>
    800065fe:	8f75                	and	a4,a4,a3
    80006600:	8ff1                	and	a5,a5,a2
    80006602:	8fd9                	or	a5,a5,a4
    80006604:	0107971b          	slliw	a4,a5,0x10
    80006608:	0107d79b          	srliw	a5,a5,0x10
    8000660c:	8fd9                	or	a5,a5,a4
    8000660e:	d00e0737          	lui	a4,0xd00e0
    80006612:	2781                	sext.w	a5,a5
    80006614:	eed70713          	addi	a4,a4,-275 # ffffffffd00dfeed <_end+0xffffffff500c5eed>
    80006618:	85aa                	mv	a1,a0
    8000661a:	04e79363          	bne	a5,a4,80006660 <fdt_size+0x7c>
    8000661e:	4d18                	lw	a4,24(a0)
    80006620:	4845                	li	a6,17
    80006622:	4501                	li	a0,0
    80006624:	0087179b          	slliw	a5,a4,0x8
    80006628:	0087571b          	srliw	a4,a4,0x8
    8000662c:	8f75                	and	a4,a4,a3
    8000662e:	8ff1                	and	a5,a5,a2
    80006630:	8fd9                	or	a5,a5,a4
    80006632:	0107971b          	slliw	a4,a5,0x10
    80006636:	0107d79b          	srliw	a5,a5,0x10
    8000663a:	8fd9                	or	a5,a5,a4
    8000663c:	2781                	sext.w	a5,a5
    8000663e:	02f86263          	bltu	a6,a5,80006662 <fdt_size+0x7e>
    80006642:	41dc                	lw	a5,4(a1)
    80006644:	0087951b          	slliw	a0,a5,0x8
    80006648:	0087d79b          	srliw	a5,a5,0x8
    8000664c:	8e69                	and	a2,a2,a0
    8000664e:	8efd                	and	a3,a3,a5
    80006650:	8ed1                	or	a3,a3,a2
    80006652:	0106951b          	slliw	a0,a3,0x10
    80006656:	0106d69b          	srliw	a3,a3,0x10
    8000665a:	8d55                	or	a0,a0,a3
    8000665c:	2501                	sext.w	a0,a0
    8000665e:	8082                	ret
    80006660:	4501                	li	a0,0
    80006662:	8082                	ret

0000000080006664 <fdt_get_address>:
    80006664:	491c                	lw	a5,16(a0)
    80006666:	00063023          	sd	zero,0(a2)
    8000666a:	06f05363          	blez	a5,800066d0 <fdt_get_address+0x6c>
    8000666e:	fff7831b          	addiw	t1,a5,-1
    80006672:	02031893          	slli	a7,t1,0x20
    80006676:	0208d893          	srli	a7,a7,0x20
    8000667a:	0885                	addi	a7,a7,1
    8000667c:	088a                	slli	a7,a7,0x2
    8000667e:	ff010eb7          	lui	t4,0xff010
    80006682:	00ff0e37          	lui	t3,0xff0
    80006686:	98ae                	add	a7,a7,a1
    80006688:	882e                	mv	a6,a1
    8000668a:	4781                	li	a5,0
    8000668c:	f00e8e93          	addi	t4,t4,-256 # ffffffffff00ff00 <_end+0xffffffff7eff5f00>
    80006690:	0ffe0e13          	addi	t3,t3,255 # ff00ff <_ftext-0x7f00ff01>
    80006694:	00082703          	lw	a4,0(a6)
    80006698:	02079693          	slli	a3,a5,0x20
    8000669c:	0811                	addi	a6,a6,4
    8000669e:	0087179b          	slliw	a5,a4,0x8
    800066a2:	0087571b          	srliw	a4,a4,0x8
    800066a6:	01c77733          	and	a4,a4,t3
    800066aa:	01d7f7b3          	and	a5,a5,t4
    800066ae:	8fd9                	or	a5,a5,a4
    800066b0:	0107971b          	slliw	a4,a5,0x10
    800066b4:	0107d79b          	srliw	a5,a5,0x10
    800066b8:	8fd9                	or	a5,a5,a4
    800066ba:	1782                	slli	a5,a5,0x20
    800066bc:	9381                	srli	a5,a5,0x20
    800066be:	97b6                	add	a5,a5,a3
    800066c0:	fd181ae3          	bne	a6,a7,80006694 <fdt_get_address+0x30>
    800066c4:	0305                	addi	t1,t1,1
    800066c6:	030a                	slli	t1,t1,0x2
    800066c8:	00658533          	add	a0,a1,t1
    800066cc:	e21c                	sd	a5,0(a2)
    800066ce:	8082                	ret
    800066d0:	852e                	mv	a0,a1
    800066d2:	8082                	ret

00000000800066d4 <fdt_get_size>:
    800066d4:	495c                	lw	a5,20(a0)
    800066d6:	00063023          	sd	zero,0(a2)
    800066da:	06f05363          	blez	a5,80006740 <fdt_get_size+0x6c>
    800066de:	fff7831b          	addiw	t1,a5,-1
    800066e2:	02031893          	slli	a7,t1,0x20
    800066e6:	0208d893          	srli	a7,a7,0x20
    800066ea:	0885                	addi	a7,a7,1
    800066ec:	088a                	slli	a7,a7,0x2
    800066ee:	ff010eb7          	lui	t4,0xff010
    800066f2:	00ff0e37          	lui	t3,0xff0
    800066f6:	98ae                	add	a7,a7,a1
    800066f8:	882e                	mv	a6,a1
    800066fa:	4781                	li	a5,0
    800066fc:	f00e8e93          	addi	t4,t4,-256 # ffffffffff00ff00 <_end+0xffffffff7eff5f00>
    80006700:	0ffe0e13          	addi	t3,t3,255 # ff00ff <_ftext-0x7f00ff01>
    80006704:	00082703          	lw	a4,0(a6)
    80006708:	02079693          	slli	a3,a5,0x20
    8000670c:	0811                	addi	a6,a6,4
    8000670e:	0087179b          	slliw	a5,a4,0x8
    80006712:	0087571b          	srliw	a4,a4,0x8
    80006716:	01c77733          	and	a4,a4,t3
    8000671a:	01d7f7b3          	and	a5,a5,t4
    8000671e:	8fd9                	or	a5,a5,a4
    80006720:	0107971b          	slliw	a4,a5,0x10
    80006724:	0107d79b          	srliw	a5,a5,0x10
    80006728:	8fd9                	or	a5,a5,a4
    8000672a:	1782                	slli	a5,a5,0x20
    8000672c:	9381                	srli	a5,a5,0x20
    8000672e:	97b6                	add	a5,a5,a3
    80006730:	fd181ae3          	bne	a6,a7,80006704 <fdt_get_size+0x30>
    80006734:	0305                	addi	t1,t1,1
    80006736:	030a                	slli	t1,t1,0x2
    80006738:	00658533          	add	a0,a1,t1
    8000673c:	e21c                	sd	a5,0(a2)
    8000673e:	8082                	ret
    80006740:	852e                	mv	a0,a1
    80006742:	8082                	ret

0000000080006744 <fdt_string_list_index>:
    80006744:	7179                	addi	sp,sp,-48
    80006746:	4d1c                	lw	a5,24(a0)
    80006748:	f022                	sd	s0,32(sp)
    8000674a:	6900                	ld	s0,16(a0)
    8000674c:	e44e                	sd	s3,8(sp)
    8000674e:	f406                	sd	ra,40(sp)
    80006750:	ec26                	sd	s1,24(sp)
    80006752:	e84a                	sd	s2,16(sp)
    80006754:	00f409b3          	add	s3,s0,a5
    80006758:	02f05d63          	blez	a5,80006792 <fdt_string_list_index+0x4e>
    8000675c:	892e                	mv	s2,a1
    8000675e:	4481                	li	s1,0
    80006760:	a811                	j	80006774 <fdt_string_list_index+0x30>
    80006762:	4d3000ef          	jal	ra,80007434 <strlen>
    80006766:	0505                	addi	a0,a0,1
    80006768:	942a                	add	s0,s0,a0
    8000676a:	408987b3          	sub	a5,s3,s0
    8000676e:	2485                	addiw	s1,s1,1
    80006770:	02f05163          	blez	a5,80006792 <fdt_string_list_index+0x4e>
    80006774:	85ca                	mv	a1,s2
    80006776:	8522                	mv	a0,s0
    80006778:	4d7000ef          	jal	ra,8000744e <strcmp>
    8000677c:	87aa                	mv	a5,a0
    8000677e:	8522                	mv	a0,s0
    80006780:	f3ed                	bnez	a5,80006762 <fdt_string_list_index+0x1e>
    80006782:	70a2                	ld	ra,40(sp)
    80006784:	7402                	ld	s0,32(sp)
    80006786:	6942                	ld	s2,16(sp)
    80006788:	69a2                	ld	s3,8(sp)
    8000678a:	8526                	mv	a0,s1
    8000678c:	64e2                	ld	s1,24(sp)
    8000678e:	6145                	addi	sp,sp,48
    80006790:	8082                	ret
    80006792:	70a2                	ld	ra,40(sp)
    80006794:	7402                	ld	s0,32(sp)
    80006796:	54fd                	li	s1,-1
    80006798:	6942                	ld	s2,16(sp)
    8000679a:	69a2                	ld	s3,8(sp)
    8000679c:	8526                	mv	a0,s1
    8000679e:	64e2                	ld	s1,24(sp)
    800067a0:	6145                	addi	sp,sp,48
    800067a2:	8082                	ret

00000000800067a4 <clint_prop>:
    800067a4:	1101                	addi	sp,sp,-32
    800067a6:	e04a                	sd	s2,0(sp)
    800067a8:	00853903          	ld	s2,8(a0)
    800067ac:	e822                	sd	s0,16(sp)
    800067ae:	e426                	sd	s1,8(sp)
    800067b0:	842e                	mv	s0,a1
    800067b2:	84aa                	mv	s1,a0
    800067b4:	00002597          	auipc	a1,0x2
    800067b8:	50458593          	addi	a1,a1,1284 # 80008cb8 <illegal_insn_trap_table+0xd7c>
    800067bc:	854a                	mv	a0,s2
    800067be:	ec06                	sd	ra,24(sp)
    800067c0:	48f000ef          	jal	ra,8000744e <strcmp>
    800067c4:	e115                	bnez	a0,800067e8 <clint_prop+0x44>
    800067c6:	00003597          	auipc	a1,0x3
    800067ca:	84258593          	addi	a1,a1,-1982 # 80009008 <illegal_insn_trap_table+0x10cc>
    800067ce:	8526                	mv	a0,s1
    800067d0:	f75ff0ef          	jal	ra,80006744 <fdt_string_list_index>
    800067d4:	00054a63          	bltz	a0,800067e8 <clint_prop+0x44>
    800067d8:	4785                	li	a5,1
    800067da:	60e2                	ld	ra,24(sp)
    800067dc:	c01c                	sw	a5,0(s0)
    800067de:	6442                	ld	s0,16(sp)
    800067e0:	64a2                	ld	s1,8(sp)
    800067e2:	6902                	ld	s2,0(sp)
    800067e4:	6105                	addi	sp,sp,32
    800067e6:	8082                	ret
    800067e8:	00002597          	auipc	a1,0x2
    800067ec:	50058593          	addi	a1,a1,1280 # 80008ce8 <illegal_insn_trap_table+0xdac>
    800067f0:	854a                	mv	a0,s2
    800067f2:	45d000ef          	jal	ra,8000744e <strcmp>
    800067f6:	e535                	bnez	a0,80006862 <clint_prop+0xbe>
    800067f8:	609c                	ld	a5,0(s1)
    800067fa:	6894                	ld	a3,16(s1)
    800067fc:	639c                	ld	a5,0(a5)
    800067fe:	00043423          	sd	zero,8(s0)
    80006802:	4b9c                	lw	a5,16(a5)
    80006804:	04f05963          	blez	a5,80006856 <clint_prop+0xb2>
    80006808:	fff7859b          	addiw	a1,a5,-1
    8000680c:	1582                	slli	a1,a1,0x20
    8000680e:	9181                	srli	a1,a1,0x20
    80006810:	0585                	addi	a1,a1,1
    80006812:	058a                	slli	a1,a1,0x2
    80006814:	ff010837          	lui	a6,0xff010
    80006818:	00ff0537          	lui	a0,0xff0
    8000681c:	95b6                	add	a1,a1,a3
    8000681e:	4781                	li	a5,0
    80006820:	f0080813          	addi	a6,a6,-256 # ffffffffff00ff00 <_end+0xffffffff7eff5f00>
    80006824:	0ff50513          	addi	a0,a0,255 # ff00ff <_ftext-0x7f00ff01>
    80006828:	4298                	lw	a4,0(a3)
    8000682a:	02079613          	slli	a2,a5,0x20
    8000682e:	0691                	addi	a3,a3,4
    80006830:	0087179b          	slliw	a5,a4,0x8
    80006834:	0087571b          	srliw	a4,a4,0x8
    80006838:	8f69                	and	a4,a4,a0
    8000683a:	0107f7b3          	and	a5,a5,a6
    8000683e:	8fd9                	or	a5,a5,a4
    80006840:	0107971b          	slliw	a4,a5,0x10
    80006844:	0107d79b          	srliw	a5,a5,0x10
    80006848:	8fd9                	or	a5,a5,a4
    8000684a:	1782                	slli	a5,a5,0x20
    8000684c:	9381                	srli	a5,a5,0x20
    8000684e:	97b2                	add	a5,a5,a2
    80006850:	fcb69ce3          	bne	a3,a1,80006828 <clint_prop+0x84>
    80006854:	e41c                	sd	a5,8(s0)
    80006856:	60e2                	ld	ra,24(sp)
    80006858:	6442                	ld	s0,16(sp)
    8000685a:	64a2                	ld	s1,8(sp)
    8000685c:	6902                	ld	s2,0(sp)
    8000685e:	6105                	addi	sp,sp,32
    80006860:	8082                	ret
    80006862:	00002597          	auipc	a1,0x2
    80006866:	7b658593          	addi	a1,a1,1974 # 80009018 <illegal_insn_trap_table+0x10dc>
    8000686a:	854a                	mv	a0,s2
    8000686c:	3e3000ef          	jal	ra,8000744e <strcmp>
    80006870:	f17d                	bnez	a0,80006856 <clint_prop+0xb2>
    80006872:	6898                	ld	a4,16(s1)
    80006874:	4c9c                	lw	a5,24(s1)
    80006876:	60e2                	ld	ra,24(sp)
    80006878:	e818                	sd	a4,16(s0)
    8000687a:	cc1c                	sw	a5,24(s0)
    8000687c:	6442                	ld	s0,16(sp)
    8000687e:	64a2                	ld	s1,8(sp)
    80006880:	6902                	ld	s2,0(sp)
    80006882:	6105                	addi	sp,sp,32
    80006884:	8082                	ret

0000000080006886 <plic_prop>:
    80006886:	1101                	addi	sp,sp,-32
    80006888:	e04a                	sd	s2,0(sp)
    8000688a:	00853903          	ld	s2,8(a0)
    8000688e:	e822                	sd	s0,16(sp)
    80006890:	e426                	sd	s1,8(sp)
    80006892:	842e                	mv	s0,a1
    80006894:	84aa                	mv	s1,a0
    80006896:	00002597          	auipc	a1,0x2
    8000689a:	42258593          	addi	a1,a1,1058 # 80008cb8 <illegal_insn_trap_table+0xd7c>
    8000689e:	854a                	mv	a0,s2
    800068a0:	ec06                	sd	ra,24(sp)
    800068a2:	3ad000ef          	jal	ra,8000744e <strcmp>
    800068a6:	e115                	bnez	a0,800068ca <plic_prop+0x44>
    800068a8:	00002597          	auipc	a1,0x2
    800068ac:	78858593          	addi	a1,a1,1928 # 80009030 <illegal_insn_trap_table+0x10f4>
    800068b0:	8526                	mv	a0,s1
    800068b2:	e93ff0ef          	jal	ra,80006744 <fdt_string_list_index>
    800068b6:	00054a63          	bltz	a0,800068ca <plic_prop+0x44>
    800068ba:	4785                	li	a5,1
    800068bc:	60e2                	ld	ra,24(sp)
    800068be:	c01c                	sw	a5,0(s0)
    800068c0:	6442                	ld	s0,16(sp)
    800068c2:	64a2                	ld	s1,8(sp)
    800068c4:	6902                	ld	s2,0(sp)
    800068c6:	6105                	addi	sp,sp,32
    800068c8:	8082                	ret
    800068ca:	00002597          	auipc	a1,0x2
    800068ce:	41e58593          	addi	a1,a1,1054 # 80008ce8 <illegal_insn_trap_table+0xdac>
    800068d2:	854a                	mv	a0,s2
    800068d4:	37b000ef          	jal	ra,8000744e <strcmp>
    800068d8:	e535                	bnez	a0,80006944 <plic_prop+0xbe>
    800068da:	609c                	ld	a5,0(s1)
    800068dc:	6894                	ld	a3,16(s1)
    800068de:	639c                	ld	a5,0(a5)
    800068e0:	00043423          	sd	zero,8(s0)
    800068e4:	4b9c                	lw	a5,16(a5)
    800068e6:	04f05963          	blez	a5,80006938 <plic_prop+0xb2>
    800068ea:	fff7859b          	addiw	a1,a5,-1
    800068ee:	1582                	slli	a1,a1,0x20
    800068f0:	9181                	srli	a1,a1,0x20
    800068f2:	0585                	addi	a1,a1,1
    800068f4:	058a                	slli	a1,a1,0x2
    800068f6:	ff010837          	lui	a6,0xff010
    800068fa:	00ff0537          	lui	a0,0xff0
    800068fe:	95b6                	add	a1,a1,a3
    80006900:	4781                	li	a5,0
    80006902:	f0080813          	addi	a6,a6,-256 # ffffffffff00ff00 <_end+0xffffffff7eff5f00>
    80006906:	0ff50513          	addi	a0,a0,255 # ff00ff <_ftext-0x7f00ff01>
    8000690a:	4298                	lw	a4,0(a3)
    8000690c:	02079613          	slli	a2,a5,0x20
    80006910:	0691                	addi	a3,a3,4
    80006912:	0087179b          	slliw	a5,a4,0x8
    80006916:	0087571b          	srliw	a4,a4,0x8
    8000691a:	8f69                	and	a4,a4,a0
    8000691c:	0107f7b3          	and	a5,a5,a6
    80006920:	8fd9                	or	a5,a5,a4
    80006922:	0107971b          	slliw	a4,a5,0x10
    80006926:	0107d79b          	srliw	a5,a5,0x10
    8000692a:	8fd9                	or	a5,a5,a4
    8000692c:	1782                	slli	a5,a5,0x20
    8000692e:	9381                	srli	a5,a5,0x20
    80006930:	97b2                	add	a5,a5,a2
    80006932:	fcb69ce3          	bne	a3,a1,8000690a <plic_prop+0x84>
    80006936:	e41c                	sd	a5,8(s0)
    80006938:	60e2                	ld	ra,24(sp)
    8000693a:	6442                	ld	s0,16(sp)
    8000693c:	64a2                	ld	s1,8(sp)
    8000693e:	6902                	ld	s2,0(sp)
    80006940:	6105                	addi	sp,sp,32
    80006942:	8082                	ret
    80006944:	00002597          	auipc	a1,0x2
    80006948:	6d458593          	addi	a1,a1,1748 # 80009018 <illegal_insn_trap_table+0x10dc>
    8000694c:	854a                	mv	a0,s2
    8000694e:	301000ef          	jal	ra,8000744e <strcmp>
    80006952:	c129                	beqz	a0,80006994 <plic_prop+0x10e>
    80006954:	00002597          	auipc	a1,0x2
    80006958:	6ec58593          	addi	a1,a1,1772 # 80009040 <illegal_insn_trap_table+0x1104>
    8000695c:	854a                	mv	a0,s2
    8000695e:	2f1000ef          	jal	ra,8000744e <strcmp>
    80006962:	f979                	bnez	a0,80006938 <plic_prop+0xb2>
    80006964:	689c                	ld	a5,16(s1)
    80006966:	ff0106b7          	lui	a3,0xff010
    8000696a:	f0068693          	addi	a3,a3,-256 # ffffffffff00ff00 <_end+0xffffffff7eff5f00>
    8000696e:	4398                	lw	a4,0(a5)
    80006970:	0087179b          	slliw	a5,a4,0x8
    80006974:	8ff5                	and	a5,a5,a3
    80006976:	00ff06b7          	lui	a3,0xff0
    8000697a:	0087571b          	srliw	a4,a4,0x8
    8000697e:	0ff68693          	addi	a3,a3,255 # ff00ff <_ftext-0x7f00ff01>
    80006982:	8f75                	and	a4,a4,a3
    80006984:	8fd9                	or	a5,a5,a4
    80006986:	0107971b          	slliw	a4,a5,0x10
    8000698a:	0107d79b          	srliw	a5,a5,0x10
    8000698e:	8fd9                	or	a5,a5,a4
    80006990:	d01c                	sw	a5,32(s0)
    80006992:	b75d                	j	80006938 <plic_prop+0xb2>
    80006994:	6898                	ld	a4,16(s1)
    80006996:	4c9c                	lw	a5,24(s1)
    80006998:	60e2                	ld	ra,24(sp)
    8000699a:	e818                	sd	a4,16(s0)
    8000699c:	cc1c                	sw	a5,24(s0)
    8000699e:	6442                	ld	s0,16(sp)
    800069a0:	64a2                	ld	s1,8(sp)
    800069a2:	6902                	ld	s2,0(sp)
    800069a4:	6105                	addi	sp,sp,32
    800069a6:	8082                	ret

00000000800069a8 <compat_prop>:
    800069a8:	1101                	addi	sp,sp,-32
    800069aa:	e822                	sd	s0,16(sp)
    800069ac:	842a                	mv	s0,a0
    800069ae:	6508                	ld	a0,8(a0)
    800069b0:	e426                	sd	s1,8(sp)
    800069b2:	84ae                	mv	s1,a1
    800069b4:	00002597          	auipc	a1,0x2
    800069b8:	30458593          	addi	a1,a1,772 # 80008cb8 <illegal_insn_trap_table+0xd7c>
    800069bc:	ec06                	sd	ra,24(sp)
    800069be:	291000ef          	jal	ra,8000744e <strcmp>
    800069c2:	ed01                	bnez	a0,800069da <compat_prop+0x32>
    800069c4:	608c                	ld	a1,0(s1)
    800069c6:	8522                	mv	a0,s0
    800069c8:	d7dff0ef          	jal	ra,80006744 <fdt_string_list_index>
    800069cc:	00054763          	bltz	a0,800069da <compat_prop+0x32>
    800069d0:	449c                	lw	a5,8(s1)
    800069d2:	44d8                	lw	a4,12(s1)
    800069d4:	00e7d363          	bge	a5,a4,800069da <compat_prop+0x32>
    800069d8:	c4dc                	sw	a5,12(s1)
    800069da:	60e2                	ld	ra,24(sp)
    800069dc:	6442                	ld	s0,16(sp)
    800069de:	64a2                	ld	s1,8(sp)
    800069e0:	6105                	addi	sp,sp,32
    800069e2:	8082                	ret

00000000800069e4 <query_mem>:
    800069e4:	715d                	addi	sp,sp,-80
    800069e6:	00000797          	auipc	a5,0x0
    800069ea:	86078793          	addi	a5,a5,-1952 # 80006246 <mem_open>
    800069ee:	ec3e                	sd	a5,24(sp)
    800069f0:	fffff797          	auipc	a5,0xfffff
    800069f4:	2e278793          	addi	a5,a5,738 # 80005cd2 <mem_prop>
    800069f8:	f03e                	sd	a5,32(sp)
    800069fa:	082c                	addi	a1,sp,24
    800069fc:	fffff797          	auipc	a5,0xfffff
    80006a00:	16278793          	addi	a5,a5,354 # 80005b5e <mem_done>
    80006a04:	f43e                	sd	a5,40(sp)
    80006a06:	e486                	sd	ra,72(sp)
    80006a08:	00013797          	auipc	a5,0x13
    80006a0c:	8c07bc23          	sd	zero,-1832(a5) # 800192e0 <mem_size>
    80006a10:	f802                	sd	zero,48(sp)
    80006a12:	fc0a                	sd	sp,56(sp)
    80006a14:	b1bff0ef          	jal	ra,8000652e <fdt_scan>
    80006a18:	00013797          	auipc	a5,0x13
    80006a1c:	8c87b783          	ld	a5,-1848(a5) # 800192e0 <mem_size>
    80006a20:	c781                	beqz	a5,80006a28 <query_mem+0x44>
    80006a22:	60a6                	ld	ra,72(sp)
    80006a24:	6161                	addi	sp,sp,80
    80006a26:	8082                	ret
    80006a28:	00001517          	auipc	a0,0x1
    80006a2c:	69850513          	addi	a0,a0,1688 # 800080c0 <illegal_insn_trap_table+0x184>
    80006a30:	00002697          	auipc	a3,0x2
    80006a34:	62068693          	addi	a3,a3,1568 # 80009050 <illegal_insn_trap_table+0x1114>
    80006a38:	0c700613          	li	a2,199
    80006a3c:	00002597          	auipc	a1,0x2
    80006a40:	2e458593          	addi	a1,a1,740 # 80008d20 <illegal_insn_trap_table+0xde4>
    80006a44:	99efe0ef          	jal	ra,80004be2 <printm>
    80006a48:	6541                	lui	a0,0x10
    80006a4a:	157d                	addi	a0,a0,-1
    80006a4c:	a06fe0ef          	jal	ra,80004c52 <poweroff>

0000000080006a50 <query_harts>:
    80006a50:	711d                	addi	sp,sp,-96
    80006a52:	fffff717          	auipc	a4,0xfffff
    80006a56:	c6070713          	addi	a4,a4,-928 # 800056b2 <hart_open>
    80006a5a:	f43a                	sd	a4,40(sp)
    80006a5c:	fffff717          	auipc	a4,0xfffff
    80006a60:	30470713          	addi	a4,a4,772 # 80005d60 <hart_prop>
    80006a64:	f83a                	sd	a4,48(sp)
    80006a66:	fffff717          	auipc	a4,0xfffff
    80006a6a:	7ea70713          	addi	a4,a4,2026 # 80006250 <hart_done>
    80006a6e:	003c                	addi	a5,sp,8
    80006a70:	fc3a                	sd	a4,56(sp)
    80006a72:	102c                	addi	a1,sp,40
    80006a74:	fffff717          	auipc	a4,0xfffff
    80006a78:	c5470713          	addi	a4,a4,-940 # 800056c8 <hart_close>
    80006a7c:	ec86                	sd	ra,88(sp)
    80006a7e:	e402                	sd	zero,8(sp)
    80006a80:	e0ba                	sd	a4,64(sp)
    80006a82:	e4be                	sd	a5,72(sp)
    80006a84:	e802                	sd	zero,16(sp)
    80006a86:	ec02                	sd	zero,24(sp)
    80006a88:	f002                	sd	zero,32(sp)
    80006a8a:	aa5ff0ef          	jal	ra,8000652e <fdt_scan>
    80006a8e:	f1402773          	csrr	a4,mhartid
    80006a92:	00013797          	auipc	a5,0x13
    80006a96:	89e7b783          	ld	a5,-1890(a5) # 80019330 <hart_mask>
    80006a9a:	00e7d7b3          	srl	a5,a5,a4
    80006a9e:	c781                	beqz	a5,80006aa6 <query_harts+0x56>
    80006aa0:	60e6                	ld	ra,88(sp)
    80006aa2:	6125                	addi	sp,sp,96
    80006aa4:	8082                	ret
    80006aa6:	00001517          	auipc	a0,0x1
    80006aaa:	61a50513          	addi	a0,a0,1562 # 800080c0 <illegal_insn_trap_table+0x184>
    80006aae:	00002697          	auipc	a3,0x2
    80006ab2:	5b268693          	addi	a3,a3,1458 # 80009060 <illegal_insn_trap_table+0x1124>
    80006ab6:	12300613          	li	a2,291
    80006aba:	00002597          	auipc	a1,0x2
    80006abe:	26658593          	addi	a1,a1,614 # 80008d20 <illegal_insn_trap_table+0xde4>
    80006ac2:	920fe0ef          	jal	ra,80004be2 <printm>
    80006ac6:	6541                	lui	a0,0x10
    80006ac8:	157d                	addi	a0,a0,-1
    80006aca:	988fe0ef          	jal	ra,80004c52 <poweroff>

0000000080006ace <query_clint>:
    80006ace:	711d                	addi	sp,sp,-96
    80006ad0:	fffff797          	auipc	a5,0xfffff
    80006ad4:	c1a78793          	addi	a5,a5,-998 # 800056ea <clint_open>
    80006ad8:	f43e                	sd	a5,40(sp)
    80006ada:	00000797          	auipc	a5,0x0
    80006ade:	cca78793          	addi	a5,a5,-822 # 800067a4 <clint_prop>
    80006ae2:	f83e                	sd	a5,48(sp)
    80006ae4:	fffff797          	auipc	a5,0xfffff
    80006ae8:	cd078793          	addi	a5,a5,-816 # 800057b4 <clint_done>
    80006aec:	fc3e                	sd	a5,56(sp)
    80006aee:	102c                	addi	a1,sp,40
    80006af0:	003c                	addi	a5,sp,8
    80006af2:	e4be                	sd	a5,72(sp)
    80006af4:	ec86                	sd	ra,88(sp)
    80006af6:	e082                	sd	zero,64(sp)
    80006af8:	d202                	sw	zero,36(sp)
    80006afa:	a35ff0ef          	jal	ra,8000652e <fdt_scan>
    80006afe:	5792                	lw	a5,36(sp)
    80006b00:	c781                	beqz	a5,80006b08 <query_clint+0x3a>
    80006b02:	60e6                	ld	ra,88(sp)
    80006b04:	6125                	addi	sp,sp,96
    80006b06:	8082                	ret
    80006b08:	00001517          	auipc	a0,0x1
    80006b0c:	5b850513          	addi	a0,a0,1464 # 800080c0 <illegal_insn_trap_table+0x184>
    80006b10:	00002697          	auipc	a3,0x2
    80006b14:	57868693          	addi	a3,a3,1400 # 80009088 <illegal_insn_trap_table+0x114c>
    80006b18:	17000613          	li	a2,368
    80006b1c:	00002597          	auipc	a1,0x2
    80006b20:	20458593          	addi	a1,a1,516 # 80008d20 <illegal_insn_trap_table+0xde4>
    80006b24:	8befe0ef          	jal	ra,80004be2 <printm>
    80006b28:	6541                	lui	a0,0x10
    80006b2a:	157d                	addi	a0,a0,-1
    80006b2c:	926fe0ef          	jal	ra,80004c52 <poweroff>

0000000080006b30 <query_plic>:
    80006b30:	711d                	addi	sp,sp,-96
    80006b32:	fffff797          	auipc	a5,0xfffff
    80006b36:	bc678793          	addi	a5,a5,-1082 # 800056f8 <plic_open>
    80006b3a:	e03e                	sd	a5,0(sp)
    80006b3c:	00000797          	auipc	a5,0x0
    80006b40:	d4a78793          	addi	a5,a5,-694 # 80006886 <plic_prop>
    80006b44:	e43e                	sd	a5,8(sp)
    80006b46:	fffff797          	auipc	a5,0xfffff
    80006b4a:	dcc78793          	addi	a5,a5,-564 # 80005912 <plic_done>
    80006b4e:	e83e                	sd	a5,16(sp)
    80006b50:	858a                	mv	a1,sp
    80006b52:	103c                	addi	a5,sp,40
    80006b54:	ec86                	sd	ra,88(sp)
    80006b56:	ec02                	sd	zero,24(sp)
    80006b58:	f03e                	sd	a5,32(sp)
    80006b5a:	c282                	sw	zero,68(sp)
    80006b5c:	9d3ff0ef          	jal	ra,8000652e <fdt_scan>
    80006b60:	60e6                	ld	ra,88(sp)
    80006b62:	6125                	addi	sp,sp,96
    80006b64:	8082                	ret

0000000080006b66 <filter_plic>:
    80006b66:	711d                	addi	sp,sp,-96
    80006b68:	fffff797          	auipc	a5,0xfffff
    80006b6c:	b9078793          	addi	a5,a5,-1136 # 800056f8 <plic_open>
    80006b70:	e03e                	sd	a5,0(sp)
    80006b72:	00000797          	auipc	a5,0x0
    80006b76:	d1478793          	addi	a5,a5,-748 # 80006886 <plic_prop>
    80006b7a:	e43e                	sd	a5,8(sp)
    80006b7c:	fffff797          	auipc	a5,0xfffff
    80006b80:	b8a78793          	addi	a5,a5,-1142 # 80005706 <plic_redact>
    80006b84:	e83e                	sd	a5,16(sp)
    80006b86:	858a                	mv	a1,sp
    80006b88:	103c                	addi	a5,sp,40
    80006b8a:	ec86                	sd	ra,88(sp)
    80006b8c:	ec02                	sd	zero,24(sp)
    80006b8e:	f03e                	sd	a5,32(sp)
    80006b90:	c282                	sw	zero,68(sp)
    80006b92:	99dff0ef          	jal	ra,8000652e <fdt_scan>
    80006b96:	60e6                	ld	ra,88(sp)
    80006b98:	6125                	addi	sp,sp,96
    80006b9a:	8082                	ret

0000000080006b9c <filter_compat>:
    80006b9c:	715d                	addi	sp,sp,-80
    80006b9e:	fffff717          	auipc	a4,0xfffff
    80006ba2:	bce70713          	addi	a4,a4,-1074 # 8000576c <compat_open>
    80006ba6:	87ae                	mv	a5,a1
    80006ba8:	ec3a                	sd	a4,24(sp)
    80006baa:	00000717          	auipc	a4,0x0
    80006bae:	dfe70713          	addi	a4,a4,-514 # 800069a8 <compat_prop>
    80006bb2:	f03a                	sd	a4,32(sp)
    80006bb4:	e43e                	sd	a5,8(sp)
    80006bb6:	fffff717          	auipc	a4,0xfffff
    80006bba:	bbe70713          	addi	a4,a4,-1090 # 80005774 <compat_close>
    80006bbe:	3e700793          	li	a5,999
    80006bc2:	f83a                	sd	a4,48(sp)
    80006bc4:	082c                	addi	a1,sp,24
    80006bc6:	0038                	addi	a4,sp,8
    80006bc8:	1782                	slli	a5,a5,0x20
    80006bca:	e486                	sd	ra,72(sp)
    80006bcc:	f402                	sd	zero,40(sp)
    80006bce:	fc3a                	sd	a4,56(sp)
    80006bd0:	e83e                	sd	a5,16(sp)
    80006bd2:	95dff0ef          	jal	ra,8000652e <fdt_scan>
    80006bd6:	60a6                	ld	ra,72(sp)
    80006bd8:	6161                	addi	sp,sp,80
    80006bda:	8082                	ret

0000000080006bdc <query_chosen>:
    80006bdc:	715d                	addi	sp,sp,-80
    80006bde:	fffff797          	auipc	a5,0xfffff
    80006be2:	15a78793          	addi	a5,a5,346 # 80005d38 <chosen_open>
    80006be6:	ec3e                	sd	a5,24(sp)
    80006be8:	fffff797          	auipc	a5,0xfffff
    80006bec:	ba878793          	addi	a5,a5,-1112 # 80005790 <chosen_close>
    80006bf0:	f83e                	sd	a5,48(sp)
    80006bf2:	082c                	addi	a1,sp,24
    80006bf4:	00000797          	auipc	a5,0x0
    80006bf8:	82a78793          	addi	a5,a5,-2006 # 8000641e <chosen_prop>
    80006bfc:	e486                	sd	ra,72(sp)
    80006bfe:	f03e                	sd	a5,32(sp)
    80006c00:	f402                	sd	zero,40(sp)
    80006c02:	e002                	sd	zero,0(sp)
    80006c04:	fc0a                	sd	sp,56(sp)
    80006c06:	e402                	sd	zero,8(sp)
    80006c08:	e802                	sd	zero,16(sp)
    80006c0a:	925ff0ef          	jal	ra,8000652e <fdt_scan>
    80006c0e:	67a2                	ld	a5,8(sp)
    80006c10:	60a6                	ld	ra,72(sp)
    80006c12:	00012717          	auipc	a4,0x12
    80006c16:	6ef73723          	sd	a5,1774(a4) # 80019300 <kernel_start>
    80006c1a:	67c2                	ld	a5,16(sp)
    80006c1c:	00012717          	auipc	a4,0x12
    80006c20:	6cf73623          	sd	a5,1740(a4) # 800192e8 <kernel_end>
    80006c24:	6161                	addi	sp,sp,80
    80006c26:	8082                	ret

0000000080006c28 <filter_harts>:
    80006c28:	711d                	addi	sp,sp,-96
    80006c2a:	fffff717          	auipc	a4,0xfffff
    80006c2e:	b7a70713          	addi	a4,a4,-1158 # 800057a4 <hart_filter_open>
    80006c32:	f43a                	sd	a4,40(sp)
    80006c34:	fffff717          	auipc	a4,0xfffff
    80006c38:	2d070713          	addi	a4,a4,720 # 80005f04 <hart_filter_prop>
    80006c3c:	ec86                	sd	ra,88(sp)
    80006c3e:	f83a                	sd	a4,48(sp)
    80006c40:	fffff717          	auipc	a4,0xfffff
    80006c44:	6c270713          	addi	a4,a4,1730 # 80006302 <hart_filter_done>
    80006c48:	87ae                	mv	a5,a1
    80006c4a:	fc3a                	sd	a4,56(sp)
    80006c4c:	0005b023          	sd	zero,0(a1)
    80006c50:	0038                	addi	a4,sp,8
    80006c52:	102c                	addi	a1,sp,40
    80006c54:	e082                	sd	zero,64(sp)
    80006c56:	e4ba                	sd	a4,72(sp)
    80006c58:	f03e                	sd	a5,32(sp)
    80006c5a:	8d5ff0ef          	jal	ra,8000652e <fdt_scan>
    80006c5e:	60e6                	ld	ra,88(sp)
    80006c60:	6125                	addi	sp,sp,96
    80006c62:	8082                	ret

0000000080006c64 <truly_illegal_insn.constprop.0>:
    80006c64:	fa3fd06f          	j	80004c06 <redirect_trap>

0000000080006c68 <illegal_insn_trap>:
    80006c68:	87b2                	mv	a5,a2
    80006c6a:	300028f3          	csrr	a7,mstatus
    80006c6e:	34302773          	csrr	a4,mtval
    80006c72:	480d                	li	a6,3
    80006c74:	00377313          	andi	t1,a4,3
    80006c78:	03031263          	bne	t1,a6,80006c9c <illegal_insn_trap+0x34>
    80006c7c:	00478693          	addi	a3,a5,4
    80006c80:	34169073          	csrw	mepc,a3
    80006c84:	00001697          	auipc	a3,0x1
    80006c88:	2b868693          	addi	a3,a3,696 # 80007f3c <illegal_insn_trap_table>
    80006c8c:	07c77613          	andi	a2,a4,124
    80006c90:	9636                	add	a2,a2,a3
    80006c92:	00066303          	lwu	t1,0(a2)
    80006c96:	86c6                	mv	a3,a7
    80006c98:	863e                	mv	a2,a5
    80006c9a:	8302                	jr	t1
    80006c9c:	c709                	beqz	a4,80006ca6 <illegal_insn_trap+0x3e>
    80006c9e:	863a                	mv	a2,a4
    80006ca0:	85c6                	mv	a1,a7
    80006ca2:	853e                	mv	a0,a5
    80006ca4:	b7c1                	j	80006c64 <truly_illegal_insn.constprop.0>
    80006ca6:	000a08b7          	lui	a7,0xa0
    80006caa:	3008a6f3          	csrrs	a3,mstatus,a7
    80006cae:	00267313          	andi	t1,a2,2
    80006cb2:	00031b63          	bnez	t1,80006cc8 <illegal_insn_trap+0x60>
    80006cb6:	00066703          	lwu	a4,0(a2)
    80006cba:	01077333          	and	t1,a4,a6
    80006cbe:	01030f63          	beq	t1,a6,80006cdc <illegal_insn_trap+0x74>
    80006cc2:	1742                	slli	a4,a4,0x30
    80006cc4:	9341                	srli	a4,a4,0x30
    80006cc6:	a819                	j	80006cdc <illegal_insn_trap+0x74>
    80006cc8:	00065703          	lhu	a4,0(a2)
    80006ccc:	01077333          	and	t1,a4,a6
    80006cd0:	01031663          	bne	t1,a6,80006cdc <illegal_insn_trap+0x74>
    80006cd4:	00265303          	lhu	t1,2(a2)
    80006cd8:	0342                	slli	t1,t1,0x10
    80006cda:	971a                	add	a4,a4,t1
    80006cdc:	30069073          	csrw	mstatus,a3
    80006ce0:	00377613          	andi	a2,a4,3
    80006ce4:	88b6                	mv	a7,a3
    80006ce6:	f9060be3          	beq	a2,a6,80006c7c <illegal_insn_trap+0x14>
    80006cea:	bf55                	j	80006c9e <illegal_insn_trap+0x36>

0000000080006cec <truly_illegal_insn>:
    80006cec:	8532                	mv	a0,a2
    80006cee:	85b6                	mv	a1,a3
    80006cf0:	863a                	mv	a2,a4
    80006cf2:	f15fd06f          	j	80004c06 <redirect_trap>

0000000080006cf6 <emulate_system_opcode>:
    80006cf6:	6889                	lui	a7,0x2
    80006cf8:	00c75813          	srli	a6,a4,0xc
    80006cfc:	80088893          	addi	a7,a7,-2048 # 1800 <_ftext-0x7fffe800>
    80006d00:	832a                	mv	t1,a0
    80006d02:	00f75e13          	srli	t3,a4,0xf
    80006d06:	0f887793          	andi	a5,a6,248
    80006d0a:	85b6                	mv	a1,a3
    80006d0c:	0116f8b3          	and	a7,a3,a7
    80006d10:	7ff00693          	li	a3,2047
    80006d14:	01fe7e93          	andi	t4,t3,31
    80006d18:	8532                	mv	a0,a2
    80006d1a:	00f30e33          	add	t3,t1,a5
    80006d1e:	0147579b          	srliw	a5,a4,0x14
    80006d22:	0716e263          	bltu	a3,a7,80006d86 <emulate_system_opcode+0x90>
    80006d26:	10602673          	csrr	a2,scounteren
    80006d2a:	6885                	lui	a7,0x1
    80006d2c:	b0488693          	addi	a3,a7,-1276 # b04 <_ftext-0x7ffff4fc>
    80006d30:	14d78d63          	beq	a5,a3,80006e8a <emulate_system_opcode+0x194>
    80006d34:	02f6ec63          	bltu	a3,a5,80006d6c <emulate_system_opcode+0x76>
    80006d38:	32400693          	li	a3,804
    80006d3c:	0ed78d63          	beq	a5,a3,80006e36 <emulate_system_opcode+0x140>
    80006d40:	b0388893          	addi	a7,a7,-1277
    80006d44:	07179063          	bne	a5,a7,80006da4 <emulate_system_opcode+0xae>
    80006d48:	8a21                	andi	a2,a2,8
    80006d4a:	ca49                	beqz	a2,80006ddc <emulate_system_opcode+0xe6>
    80006d4c:	b03028f3          	csrr	a7,mhpmcounter3
    80006d50:	00787813          	andi	a6,a6,7
    80006d54:	00001617          	auipc	a2,0x1
    80006d58:	26860613          	addi	a2,a2,616 # 80007fbc <illegal_insn_trap_table+0x80>
    80006d5c:	080a                	slli	a6,a6,0x2
    80006d5e:	9832                	add	a6,a6,a2
    80006d60:	00082683          	lw	a3,0(a6)
    80006d64:	000e3803          	ld	a6,0(t3)
    80006d68:	96b2                	add	a3,a3,a2
    80006d6a:	8682                	jr	a3
    80006d6c:	c0188693          	addi	a3,a7,-1023
    80006d70:	0cd78663          	beq	a5,a3,80006e3c <emulate_system_opcode+0x146>
    80006d74:	c0288693          	addi	a3,a7,-1022
    80006d78:	02d79d63          	bne	a5,a3,80006db2 <emulate_system_opcode+0xbc>
    80006d7c:	8a11                	andi	a2,a2,4
    80006d7e:	ce39                	beqz	a2,80006ddc <emulate_system_opcode+0xe6>
    80006d80:	b02028f3          	csrr	a7,minstret
    80006d84:	b7f1                	j	80006d50 <emulate_system_opcode+0x5a>
    80006d86:	6885                	lui	a7,0x1
    80006d88:	b0488693          	addi	a3,a7,-1276 # b04 <_ftext-0x7ffff4fc>
    80006d8c:	10d78163          	beq	a5,a3,80006e8e <emulate_system_opcode+0x198>
    80006d90:	02f6ea63          	bltu	a3,a5,80006dc4 <emulate_system_opcode+0xce>
    80006d94:	32400693          	li	a3,804
    80006d98:	08d78f63          	beq	a5,a3,80006e36 <emulate_system_opcode+0x140>
    80006d9c:	b0388893          	addi	a7,a7,-1277
    80006da0:	fb1786e3          	beq	a5,a7,80006d4c <emulate_system_opcode+0x56>
    80006da4:	32300693          	li	a3,803
    80006da8:	02d79a63          	bne	a5,a3,80006ddc <emulate_system_opcode+0xe6>
    80006dac:	323028f3          	csrr	a7,mhpmevent3
    80006db0:	b745                	j	80006d50 <emulate_system_opcode+0x5a>
    80006db2:	c0088893          	addi	a7,a7,-1024
    80006db6:	03179363          	bne	a5,a7,80006ddc <emulate_system_opcode+0xe6>
    80006dba:	8a05                	andi	a2,a2,1
    80006dbc:	c205                	beqz	a2,80006ddc <emulate_system_opcode+0xe6>
    80006dbe:	b00028f3          	csrr	a7,mcycle
    80006dc2:	b779                	j	80006d50 <emulate_system_opcode+0x5a>
    80006dc4:	c0188693          	addi	a3,a7,-1023
    80006dc8:	06d78c63          	beq	a5,a3,80006e40 <emulate_system_opcode+0x14a>
    80006dcc:	c0288693          	addi	a3,a7,-1022
    80006dd0:	fad788e3          	beq	a5,a3,80006d80 <emulate_system_opcode+0x8a>
    80006dd4:	c0088893          	addi	a7,a7,-1024
    80006dd8:	ff1783e3          	beq	a5,a7,80006dbe <emulate_system_opcode+0xc8>
    80006ddc:	863a                	mv	a2,a4
    80006dde:	b559                	j	80006c64 <truly_illegal_insn.constprop.0>
    80006de0:	8876                	mv	a6,t4
    80006de2:	6685                	lui	a3,0x1
    80006de4:	b0468613          	addi	a2,a3,-1276 # b04 <_ftext-0x7ffff4fc>
    80006de8:	0ac78c63          	beq	a5,a2,80006ea0 <emulate_system_opcode+0x1aa>
    80006dec:	02f66a63          	bltu	a2,a5,80006e20 <emulate_system_opcode+0x12a>
    80006df0:	32400613          	li	a2,804
    80006df4:	0ac78363          	beq	a5,a2,80006e9a <emulate_system_opcode+0x1a4>
    80006df8:	b0368693          	addi	a3,a3,-1277
    80006dfc:	00d79b63          	bne	a5,a3,80006e12 <emulate_system_opcode+0x11c>
    80006e00:	b0381073          	csrw	mhpmcounter3,a6
    80006e04:	8311                	srli	a4,a4,0x4
    80006e06:	0f877713          	andi	a4,a4,248
    80006e0a:	933a                	add	t1,t1,a4
    80006e0c:	01133023          	sd	a7,0(t1)
    80006e10:	8082                	ret
    80006e12:	32300693          	li	a3,803
    80006e16:	fcd793e3          	bne	a5,a3,80006ddc <emulate_system_opcode+0xe6>
    80006e1a:	32381073          	csrw	mhpmevent3,a6
    80006e1e:	b7dd                	j	80006e04 <emulate_system_opcode+0x10e>
    80006e20:	c0068613          	addi	a2,a3,-1024
    80006e24:	06c78863          	beq	a5,a2,80006e94 <emulate_system_opcode+0x19e>
    80006e28:	c0268693          	addi	a3,a3,-1022
    80006e2c:	fad798e3          	bne	a5,a3,80006ddc <emulate_system_opcode+0xe6>
    80006e30:	b0281073          	csrw	minstret,a6
    80006e34:	bfc1                	j	80006e04 <emulate_system_opcode+0x10e>
    80006e36:	324028f3          	csrr	a7,mhpmevent4
    80006e3a:	bf19                	j	80006d50 <emulate_system_opcode+0x5a>
    80006e3c:	8a09                	andi	a2,a2,2
    80006e3e:	de59                	beqz	a2,80006ddc <emulate_system_opcode+0xe6>
    80006e40:	00012697          	auipc	a3,0x12
    80006e44:	4b06b683          	ld	a3,1200(a3) # 800192f0 <mtime>
    80006e48:	0006b883          	ld	a7,0(a3)
    80006e4c:	b711                	j	80006d50 <emulate_system_opcode+0x5a>
    80006e4e:	fff84813          	not	a6,a6
    80006e52:	01187833          	and	a6,a6,a7
    80006e56:	f80e96e3          	bnez	t4,80006de2 <emulate_system_opcode+0xec>
    80006e5a:	8311                	srli	a4,a4,0x4
    80006e5c:	0f877713          	andi	a4,a4,248
    80006e60:	933a                	add	t1,t1,a4
    80006e62:	01133023          	sd	a7,0(t1)
    80006e66:	8082                	ret
    80006e68:	fffec813          	not	a6,t4
    80006e6c:	01187833          	and	a6,a6,a7
    80006e70:	fe0e85e3          	beqz	t4,80006e5a <emulate_system_opcode+0x164>
    80006e74:	b7bd                	j	80006de2 <emulate_system_opcode+0xec>
    80006e76:	01186833          	or	a6,a6,a7
    80006e7a:	fe0e80e3          	beqz	t4,80006e5a <emulate_system_opcode+0x164>
    80006e7e:	b795                	j	80006de2 <emulate_system_opcode+0xec>
    80006e80:	011ee833          	or	a6,t4,a7
    80006e84:	fc0e8be3          	beqz	t4,80006e5a <emulate_system_opcode+0x164>
    80006e88:	bfa9                	j	80006de2 <emulate_system_opcode+0xec>
    80006e8a:	8a41                	andi	a2,a2,16
    80006e8c:	da21                	beqz	a2,80006ddc <emulate_system_opcode+0xe6>
    80006e8e:	b04028f3          	csrr	a7,mhpmcounter4
    80006e92:	bd7d                	j	80006d50 <emulate_system_opcode+0x5a>
    80006e94:	b0081073          	csrw	mcycle,a6
    80006e98:	b7b5                	j	80006e04 <emulate_system_opcode+0x10e>
    80006e9a:	32481073          	csrw	mhpmevent4,a6
    80006e9e:	b79d                	j	80006e04 <emulate_system_opcode+0x10e>
    80006ea0:	b0481073          	csrw	mhpmcounter4,a6
    80006ea4:	b785                	j	80006e04 <emulate_system_opcode+0x10e>

0000000080006ea6 <misaligned_load_trap>:
    80006ea6:	000a05b7          	lui	a1,0xa0
    80006eaa:	478d                	li	a5,3
    80006eac:	3005a6f3          	csrrs	a3,mstatus,a1
    80006eb0:	00267813          	andi	a6,a2,2
    80006eb4:	00081b63          	bnez	a6,80006eca <misaligned_load_trap+0x24>
    80006eb8:	00066703          	lwu	a4,0(a2)
    80006ebc:	00f77833          	and	a6,a4,a5
    80006ec0:	00f80f63          	beq	a6,a5,80006ede <misaligned_load_trap+0x38>
    80006ec4:	1742                	slli	a4,a4,0x30
    80006ec6:	9341                	srli	a4,a4,0x30
    80006ec8:	a819                	j	80006ede <misaligned_load_trap+0x38>
    80006eca:	00065703          	lhu	a4,0(a2)
    80006ece:	00f77833          	and	a6,a4,a5
    80006ed2:	00f81663          	bne	a6,a5,80006ede <misaligned_load_trap+0x38>
    80006ed6:	00265803          	lhu	a6,2(a2)
    80006eda:	0842                	slli	a6,a6,0x10
    80006edc:	9742                	add	a4,a4,a6
    80006ede:	30069073          	csrw	mstatus,a3
    80006ee2:	00377593          	andi	a1,a4,3
    80006ee6:	8e3a                	mv	t3,a4
    80006ee8:	8836                	mv	a6,a3
    80006eea:	4e91                	li	t4,4
    80006eec:	00f58363          	beq	a1,a5,80006ef2 <misaligned_load_trap+0x4c>
    80006ef0:	4e89                	li	t4,2
    80006ef2:	9eb2                	add	t4,t4,a2
    80006ef4:	343028f3          	csrr	a7,mtval
    80006ef8:	679d                	lui	a5,0x7
    80006efa:	07f78793          	addi	a5,a5,127 # 707f <_ftext-0x7fff8f81>
    80006efe:	6589                	lui	a1,0x2
    80006f00:	8ff9                	and	a5,a5,a4
    80006f02:	058d                	addi	a1,a1,3
    80006f04:	0ab78963          	beq	a5,a1,80006fb6 <misaligned_load_trap+0x110>
    80006f08:	658d                	lui	a1,0x3
    80006f0a:	058d                	addi	a1,a1,3
    80006f0c:	04b78e63          	beq	a5,a1,80006f68 <misaligned_load_trap+0xc2>
    80006f10:	6599                	lui	a1,0x6
    80006f12:	00358313          	addi	t1,a1,3 # 6003 <_ftext-0x7fff9ffd>
    80006f16:	0a678863          	beq	a5,t1,80006fc6 <misaligned_load_trap+0x120>
    80006f1a:	6305                	lui	t1,0x1
    80006f1c:	030d                	addi	t1,t1,3
    80006f1e:	0a678063          	beq	a5,t1,80006fbe <misaligned_load_trap+0x118>
    80006f22:	6315                	lui	t1,0x5
    80006f24:	030d                	addi	t1,t1,3
    80006f26:	0a678363          	beq	a5,t1,80006fcc <misaligned_load_trap+0x126>
    80006f2a:	67b9                	lui	a5,0xe
    80006f2c:	078d                	addi	a5,a5,3
    80006f2e:	8ff9                	and	a5,a5,a4
    80006f30:	0ab78b63          	beq	a5,a1,80006fe6 <misaligned_load_trap+0x140>
    80006f34:	0589                	addi	a1,a1,2
    80006f36:	02b78563          	beq	a5,a1,80006f60 <misaligned_load_trap+0xba>
    80006f3a:	6591                	lui	a1,0x4
    80006f3c:	08b78b63          	beq	a5,a1,80006fd2 <misaligned_load_trap+0x12c>
    80006f40:	0589                	addi	a1,a1,2
    80006f42:	00b79963          	bne	a5,a1,80006f54 <misaligned_load_trap+0xae>
    80006f46:	00775793          	srli	a5,a4,0x7
    80006f4a:	8bfd                	andi	a5,a5,31
    80006f4c:	4311                	li	t1,4
    80006f4e:	02000f13          	li	t5,32
    80006f52:	ef89                	bnez	a5,80006f6c <misaligned_load_trap+0xc6>
    80006f54:	3422d073          	csrwi	mcause,5
    80006f58:	4595                	li	a1,5
    80006f5a:	86c2                	mv	a3,a6
    80006f5c:	d91ff06f          	j	80006cec <truly_illegal_insn>
    80006f60:	00775793          	srli	a5,a4,0x7
    80006f64:	8bfd                	andi	a5,a5,31
    80006f66:	d7fd                	beqz	a5,80006f54 <misaligned_load_trap+0xae>
    80006f68:	4321                	li	t1,8
    80006f6a:	4f01                	li	t5,0
    80006f6c:	1141                	addi	sp,sp,-16
    80006f6e:	e402                	sd	zero,8(sp)
    80006f70:	9346                	add	t1,t1,a7
    80006f72:	87c6                	mv	a5,a7
    80006f74:	000205b7          	lui	a1,0x20
    80006f78:	41178733          	sub	a4,a5,a7
    80006f7c:	00810813          	addi	a6,sp,8
    80006f80:	9742                	add	a4,a4,a6
    80006f82:	0785                	addi	a5,a5,1
    80006f84:	3005a6f3          	csrrs	a3,mstatus,a1
    80006f88:	fff7c803          	lbu	a6,-1(a5) # dfff <_ftext-0x7fff2001>
    80006f8c:	30069073          	csrw	mstatus,a3
    80006f90:	01070023          	sb	a6,0(a4)
    80006f94:	fe6792e3          	bne	a5,t1,80006f78 <misaligned_load_trap+0xd2>
    80006f98:	67a2                	ld	a5,8(sp)
    80006f9a:	004e5e13          	srli	t3,t3,0x4
    80006f9e:	0f8e7e13          	andi	t3,t3,248
    80006fa2:	01e797b3          	sll	a5,a5,t5
    80006fa6:	9572                	add	a0,a0,t3
    80006fa8:	41e7d7b3          	sra	a5,a5,t5
    80006fac:	e11c                	sd	a5,0(a0)
    80006fae:	341e9073          	csrw	mepc,t4
    80006fb2:	0141                	addi	sp,sp,16
    80006fb4:	8082                	ret
    80006fb6:	4311                	li	t1,4
    80006fb8:	02000f13          	li	t5,32
    80006fbc:	bf45                	j	80006f6c <misaligned_load_trap+0xc6>
    80006fbe:	4309                	li	t1,2
    80006fc0:	03000f13          	li	t5,48
    80006fc4:	b765                	j	80006f6c <misaligned_load_trap+0xc6>
    80006fc6:	4311                	li	t1,4
    80006fc8:	4f01                	li	t5,0
    80006fca:	b74d                	j	80006f6c <misaligned_load_trap+0xc6>
    80006fcc:	4309                	li	t1,2
    80006fce:	4f01                	li	t5,0
    80006fd0:	bf71                	j	80006f6c <misaligned_load_trap+0xc6>
    80006fd2:	00275e13          	srli	t3,a4,0x2
    80006fd6:	007e7e13          	andi	t3,t3,7
    80006fda:	0e21                	addi	t3,t3,8
    80006fdc:	0e1e                	slli	t3,t3,0x7
    80006fde:	4311                	li	t1,4
    80006fe0:	02000f13          	li	t5,32
    80006fe4:	b761                	j	80006f6c <misaligned_load_trap+0xc6>
    80006fe6:	00275e13          	srli	t3,a4,0x2
    80006fea:	007e7e13          	andi	t3,t3,7
    80006fee:	0e21                	addi	t3,t3,8
    80006ff0:	0e1e                	slli	t3,t3,0x7
    80006ff2:	4321                	li	t1,8
    80006ff4:	4f01                	li	t5,0
    80006ff6:	bf9d                	j	80006f6c <misaligned_load_trap+0xc6>

0000000080006ff8 <misaligned_store_trap>:
    80006ff8:	000a05b7          	lui	a1,0xa0
    80006ffc:	478d                	li	a5,3
    80006ffe:	3005a6f3          	csrrs	a3,mstatus,a1
    80007002:	00267813          	andi	a6,a2,2
    80007006:	00081b63          	bnez	a6,8000701c <misaligned_store_trap+0x24>
    8000700a:	00066703          	lwu	a4,0(a2)
    8000700e:	00f77833          	and	a6,a4,a5
    80007012:	00f80f63          	beq	a6,a5,80007030 <misaligned_store_trap+0x38>
    80007016:	1742                	slli	a4,a4,0x30
    80007018:	9341                	srli	a4,a4,0x30
    8000701a:	a819                	j	80007030 <misaligned_store_trap+0x38>
    8000701c:	00065703          	lhu	a4,0(a2)
    80007020:	00f77833          	and	a6,a4,a5
    80007024:	00f81663          	bne	a6,a5,80007030 <misaligned_store_trap+0x38>
    80007028:	00265803          	lhu	a6,2(a2)
    8000702c:	0842                	slli	a6,a6,0x10
    8000702e:	9742                	add	a4,a4,a6
    80007030:	30069073          	csrw	mstatus,a3
    80007034:	00377593          	andi	a1,a4,3
    80007038:	1141                	addi	sp,sp,-16
    8000703a:	88b6                	mv	a7,a3
    8000703c:	4811                	li	a6,4
    8000703e:	00f58363          	beq	a1,a5,80007044 <misaligned_store_trap+0x4c>
    80007042:	4809                	li	a6,2
    80007044:	01175793          	srli	a5,a4,0x11
    80007048:	0f87f793          	andi	a5,a5,248
    8000704c:	97aa                	add	a5,a5,a0
    8000704e:	639c                	ld	a5,0(a5)
    80007050:	6589                	lui	a1,0x2
    80007052:	02358593          	addi	a1,a1,35 # 2023 <_ftext-0x7fffdfdd>
    80007056:	e43e                	sd	a5,8(sp)
    80007058:	679d                	lui	a5,0x7
    8000705a:	07f78793          	addi	a5,a5,127 # 707f <_ftext-0x7fff8f81>
    8000705e:	8ff9                	and	a5,a5,a4
    80007060:	01060333          	add	t1,a2,a6
    80007064:	08b78763          	beq	a5,a1,800070f2 <misaligned_store_trap+0xfa>
    80007068:	658d                	lui	a1,0x3
    8000706a:	02358593          	addi	a1,a1,35 # 3023 <_ftext-0x7fffcfdd>
    8000706e:	04b78363          	beq	a5,a1,800070b4 <misaligned_store_trap+0xbc>
    80007072:	6585                	lui	a1,0x1
    80007074:	02358593          	addi	a1,a1,35 # 1023 <_ftext-0x7fffefdd>
    80007078:	0ab78463          	beq	a5,a1,80007120 <misaligned_store_trap+0x128>
    8000707c:	65b9                	lui	a1,0xe
    8000707e:	00358793          	addi	a5,a1,3 # e003 <_ftext-0x7fff1ffd>
    80007082:	8ff9                	and	a5,a5,a4
    80007084:	06b78963          	beq	a5,a1,800070f6 <misaligned_store_trap+0xfe>
    80007088:	0589                	addi	a1,a1,2
    8000708a:	08b78063          	beq	a5,a1,8000710a <misaligned_store_trap+0x112>
    8000708e:	65b1                	lui	a1,0xc
    80007090:	08b78a63          	beq	a5,a1,80007124 <misaligned_store_trap+0x12c>
    80007094:	0589                	addi	a1,a1,2
    80007096:	06b79e63          	bne	a5,a1,80007112 <misaligned_store_trap+0x11a>
    8000709a:	00775793          	srli	a5,a4,0x7
    8000709e:	8bfd                	andi	a5,a5,31
    800070a0:	cbad                	beqz	a5,80007112 <misaligned_store_trap+0x11a>
    800070a2:	00171793          	slli	a5,a4,0x1
    800070a6:	0f87f793          	andi	a5,a5,248
    800070aa:	97aa                	add	a5,a5,a0
    800070ac:	639c                	ld	a5,0(a5)
    800070ae:	4811                	li	a6,4
    800070b0:	e43e                	sd	a5,8(sp)
    800070b2:	a011                	j	800070b6 <misaligned_store_trap+0xbe>
    800070b4:	4821                	li	a6,8
    800070b6:	34302573          	csrr	a0,mtval
    800070ba:	387d                	addiw	a6,a6,-1
    800070bc:	1802                	slli	a6,a6,0x20
    800070be:	02085813          	srli	a6,a6,0x20
    800070c2:	003c                	addi	a5,sp,8
    800070c4:	00910713          	addi	a4,sp,9
    800070c8:	983a                	add	a6,a6,a4
    800070ca:	8d1d                	sub	a0,a0,a5
    800070cc:	000208b7          	lui	a7,0x20
    800070d0:	0007c703          	lbu	a4,0(a5)
    800070d4:	00f505b3          	add	a1,a0,a5
    800070d8:	3008a6f3          	csrrs	a3,mstatus,a7
    800070dc:	00e58023          	sb	a4,0(a1) # c000 <_ftext-0x7fff4000>
    800070e0:	30069073          	csrw	mstatus,a3
    800070e4:	0785                	addi	a5,a5,1
    800070e6:	fef815e3          	bne	a6,a5,800070d0 <misaligned_store_trap+0xd8>
    800070ea:	34131073          	csrw	mepc,t1
    800070ee:	0141                	addi	sp,sp,16
    800070f0:	8082                	ret
    800070f2:	4811                	li	a6,4
    800070f4:	b7c9                	j	800070b6 <misaligned_store_trap+0xbe>
    800070f6:	00275793          	srli	a5,a4,0x2
    800070fa:	8b9d                	andi	a5,a5,7
    800070fc:	07a1                	addi	a5,a5,8
    800070fe:	078e                	slli	a5,a5,0x3
    80007100:	97aa                	add	a5,a5,a0
    80007102:	639c                	ld	a5,0(a5)
    80007104:	4821                	li	a6,8
    80007106:	e43e                	sd	a5,8(sp)
    80007108:	b77d                	j	800070b6 <misaligned_store_trap+0xbe>
    8000710a:	00775793          	srli	a5,a4,0x7
    8000710e:	8bfd                	andi	a5,a5,31
    80007110:	e785                	bnez	a5,80007138 <misaligned_store_trap+0x140>
    80007112:	3423d073          	csrwi	mcause,7
    80007116:	459d                	li	a1,7
    80007118:	86c6                	mv	a3,a7
    8000711a:	0141                	addi	sp,sp,16
    8000711c:	bd1ff06f          	j	80006cec <truly_illegal_insn>
    80007120:	4809                	li	a6,2
    80007122:	bf51                	j	800070b6 <misaligned_store_trap+0xbe>
    80007124:	00275793          	srli	a5,a4,0x2
    80007128:	8b9d                	andi	a5,a5,7
    8000712a:	07a1                	addi	a5,a5,8
    8000712c:	078e                	slli	a5,a5,0x3
    8000712e:	97aa                	add	a5,a5,a0
    80007130:	639c                	ld	a5,0(a5)
    80007132:	4811                	li	a6,4
    80007134:	e43e                	sd	a5,8(sp)
    80007136:	b741                	j	800070b6 <misaligned_store_trap+0xbe>
    80007138:	00171793          	slli	a5,a4,0x1
    8000713c:	0f87f793          	andi	a5,a5,248
    80007140:	97aa                	add	a5,a5,a0
    80007142:	639c                	ld	a5,0(a5)
    80007144:	4821                	li	a6,8
    80007146:	e43e                	sd	a5,8(sp)
    80007148:	b7bd                	j	800070b6 <misaligned_store_trap+0xbe>

000000008000714a <vsnprintf>:
    8000714a:	00064783          	lbu	a5,0(a2)
    8000714e:	8e2a                	mv	t3,a0
    80007150:	20078563          	beqz	a5,8000735a <vsnprintf+0x210>
    80007154:	7179                	addi	sp,sp,-48
    80007156:	f422                	sd	s0,40(sp)
    80007158:	f026                	sd	s1,32(sp)
    8000715a:	ec4a                	sd	s2,24(sp)
    8000715c:	e84e                	sd	s3,16(sp)
    8000715e:	e452                	sd	s4,8(sp)
    80007160:	e056                	sd	s5,0(sp)
    80007162:	4701                	li	a4,0
    80007164:	4881                	li	a7,0
    80007166:	4801                	li	a6,0
    80007168:	02500293          	li	t0,37
    8000716c:	4ed5                	li	t4,21
    8000716e:	00001317          	auipc	t1,0x1
    80007172:	e6e30313          	addi	t1,t1,-402 # 80007fdc <illegal_insn_trap_table+0xa0>
    80007176:	4529                	li	a0,10
    80007178:	02d00493          	li	s1,45
    8000717c:	4fa5                	li	t6,9
    8000717e:	5f7d                	li	t5,-1
    80007180:	07800413          	li	s0,120
    80007184:	03000393          	li	t2,48
    80007188:	04081163          	bnez	a6,800071ca <vsnprintf+0x80>
    8000718c:	16578863          	beq	a5,t0,800072fc <vsnprintf+0x1b2>
    80007190:	00170913          	addi	s2,a4,1
    80007194:	16b97663          	bgeu	s2,a1,80007300 <vsnprintf+0x1b6>
    80007198:	9772                	add	a4,a4,t3
    8000719a:	00f70023          	sb	a5,0(a4)
    8000719e:	874a                	mv	a4,s2
    800071a0:	00164783          	lbu	a5,1(a2)
    800071a4:	0605                	addi	a2,a2,1
    800071a6:	f3ed                	bnez	a5,80007188 <vsnprintf+0x3e>
    800071a8:	0007051b          	sext.w	a0,a4
    800071ac:	14b76c63          	bltu	a4,a1,80007304 <vsnprintf+0x1ba>
    800071b0:	c589                	beqz	a1,800071ba <vsnprintf+0x70>
    800071b2:	00be0733          	add	a4,t3,a1
    800071b6:	fe070fa3          	sb	zero,-1(a4)
    800071ba:	7422                	ld	s0,40(sp)
    800071bc:	7482                	ld	s1,32(sp)
    800071be:	6962                	ld	s2,24(sp)
    800071c0:	69c2                	ld	s3,16(sp)
    800071c2:	6a22                	ld	s4,8(sp)
    800071c4:	6a82                	ld	s5,0(sp)
    800071c6:	6145                	addi	sp,sp,48
    800071c8:	8082                	ret
    800071ca:	f9d7879b          	addiw	a5,a5,-99
    800071ce:	0ff7f793          	andi	a5,a5,255
    800071d2:	fcfee7e3          	bltu	t4,a5,800071a0 <vsnprintf+0x56>
    800071d6:	078a                	slli	a5,a5,0x2
    800071d8:	979a                	add	a5,a5,t1
    800071da:	439c                	lw	a5,0(a5)
    800071dc:	979a                	add	a5,a5,t1
    800071de:	8782                	jr	a5
    800071e0:	88c2                	mv	a7,a6
    800071e2:	bf7d                	j	800071a0 <vsnprintf+0x56>
    800071e4:	00868993          	addi	s3,a3,8
    800071e8:	12088e63          	beqz	a7,80007324 <vsnprintf+0x1da>
    800071ec:	0006b803          	ld	a6,0(a3)
    800071f0:	12084e63          	bltz	a6,8000732c <vsnprintf+0x1e2>
    800071f4:	02a847b3          	div	a5,a6,a0
    800071f8:	16078963          	beqz	a5,8000736a <vsnprintf+0x220>
    800071fc:	4685                	li	a3,1
    800071fe:	02a7c7b3          	div	a5,a5,a0
    80007202:	0685                	addi	a3,a3,1
    80007204:	ffed                	bnez	a5,800071fe <vsnprintf+0xb4>
    80007206:	fff6879b          	addiw	a5,a3,-1
    8000720a:	88b6                	mv	a7,a3
    8000720c:	0207c863          	bltz	a5,8000723c <vsnprintf+0xf2>
    80007210:	00170a13          	addi	s4,a4,1
    80007214:	00fa06b3          	add	a3,s4,a5
    80007218:	00b6fb63          	bgeu	a3,a1,8000722e <vsnprintf+0xe4>
    8000721c:	02a866b3          	rem	a3,a6,a0
    80007220:	00f70933          	add	s2,a4,a5
    80007224:	9972                	add	s2,s2,t3
    80007226:	0306869b          	addiw	a3,a3,48
    8000722a:	00d90023          	sb	a3,0(s2)
    8000722e:	17fd                	addi	a5,a5,-1
    80007230:	02079693          	slli	a3,a5,0x20
    80007234:	02a84833          	div	a6,a6,a0
    80007238:	fc06dee3          	bgez	a3,80007214 <vsnprintf+0xca>
    8000723c:	9746                	add	a4,a4,a7
    8000723e:	86ce                	mv	a3,s3
    80007240:	4881                	li	a7,0
    80007242:	4801                	li	a6,0
    80007244:	bfb1                	j	800071a0 <vsnprintf+0x56>
    80007246:	00170793          	addi	a5,a4,1
    8000724a:	0eb7ec63          	bltu	a5,a1,80007342 <vsnprintf+0x1f8>
    8000724e:	873e                	mv	a4,a5
    80007250:	4881                	li	a7,0
    80007252:	4801                	li	a6,0
    80007254:	b7b1                	j	800071a0 <vsnprintf+0x56>
    80007256:	00868793          	addi	a5,a3,8
    8000725a:	0c089063          	bnez	a7,8000731a <vsnprintf+0x1d0>
    8000725e:	0006aa03          	lw	s4,0(a3)
    80007262:	4a9d                	li	s5,7
    80007264:	86be                	mv	a3,a5
    80007266:	8856                	mv	a6,s5
    80007268:	87ba                	mv	a5,a4
    8000726a:	0785                	addi	a5,a5,1
    8000726c:	02b7f263          	bgeu	a5,a1,80007290 <vsnprintf+0x146>
    80007270:	0028189b          	slliw	a7,a6,0x2
    80007274:	411a58b3          	sra	a7,s4,a7
    80007278:	00f8f993          	andi	s3,a7,15
    8000727c:	05798913          	addi	s2,s3,87
    80007280:	013fc463          	blt	t6,s3,80007288 <vsnprintf+0x13e>
    80007284:	03098913          	addi	s2,s3,48
    80007288:	00fe08b3          	add	a7,t3,a5
    8000728c:	ff288fa3          	sb	s2,-1(a7) # 1ffff <_ftext-0x7ffe0001>
    80007290:	387d                	addiw	a6,a6,-1
    80007292:	fde81ce3          	bne	a6,t5,8000726a <vsnprintf+0x120>
    80007296:	0705                	addi	a4,a4,1
    80007298:	9756                	add	a4,a4,s5
    8000729a:	4881                	li	a7,0
    8000729c:	4801                	li	a6,0
    8000729e:	b709                	j	800071a0 <vsnprintf+0x56>
    800072a0:	0006b883          	ld	a7,0(a3)
    800072a4:	06a1                	addi	a3,a3,8
    800072a6:	0008c803          	lbu	a6,0(a7)
    800072aa:	fa0803e3          	beqz	a6,80007250 <vsnprintf+0x106>
    800072ae:	87ba                	mv	a5,a4
    800072b0:	0785                	addi	a5,a5,1
    800072b2:	00b7f663          	bgeu	a5,a1,800072be <vsnprintf+0x174>
    800072b6:	00fe0933          	add	s2,t3,a5
    800072ba:	ff090fa3          	sb	a6,-1(s2)
    800072be:	40e78833          	sub	a6,a5,a4
    800072c2:	9846                	add	a6,a6,a7
    800072c4:	00084803          	lbu	a6,0(a6)
    800072c8:	fe0814e3          	bnez	a6,800072b0 <vsnprintf+0x166>
    800072cc:	873e                	mv	a4,a5
    800072ce:	4881                	li	a7,0
    800072d0:	bdc1                	j	800071a0 <vsnprintf+0x56>
    800072d2:	00170793          	addi	a5,a4,1
    800072d6:	00b7f663          	bgeu	a5,a1,800072e2 <vsnprintf+0x198>
    800072da:	00ee0833          	add	a6,t3,a4
    800072de:	00780023          	sb	t2,0(a6)
    800072e2:	0709                	addi	a4,a4,2
    800072e4:	00868813          	addi	a6,a3,8
    800072e8:	00b77563          	bgeu	a4,a1,800072f2 <vsnprintf+0x1a8>
    800072ec:	97f2                	add	a5,a5,t3
    800072ee:	00878023          	sb	s0,0(a5)
    800072f2:	0006ba03          	ld	s4,0(a3)
    800072f6:	4abd                	li	s5,15
    800072f8:	86c2                	mv	a3,a6
    800072fa:	b7b5                	j	80007266 <vsnprintf+0x11c>
    800072fc:	4805                	li	a6,1
    800072fe:	b54d                	j	800071a0 <vsnprintf+0x56>
    80007300:	874a                	mv	a4,s2
    80007302:	bd79                	j	800071a0 <vsnprintf+0x56>
    80007304:	9772                	add	a4,a4,t3
    80007306:	00070023          	sb	zero,0(a4)
    8000730a:	7422                	ld	s0,40(sp)
    8000730c:	7482                	ld	s1,32(sp)
    8000730e:	6962                	ld	s2,24(sp)
    80007310:	69c2                	ld	s3,16(sp)
    80007312:	6a22                	ld	s4,8(sp)
    80007314:	6a82                	ld	s5,0(sp)
    80007316:	6145                	addi	sp,sp,48
    80007318:	8082                	ret
    8000731a:	0006ba03          	ld	s4,0(a3)
    8000731e:	4abd                	li	s5,15
    80007320:	86be                	mv	a3,a5
    80007322:	b791                	j	80007266 <vsnprintf+0x11c>
    80007324:	0006a803          	lw	a6,0(a3)
    80007328:	ec0856e3          	bgez	a6,800071f4 <vsnprintf+0xaa>
    8000732c:	00170793          	addi	a5,a4,1
    80007330:	41000833          	neg	a6,a6
    80007334:	02b7f163          	bgeu	a5,a1,80007356 <vsnprintf+0x20c>
    80007338:	9772                	add	a4,a4,t3
    8000733a:	00970023          	sb	s1,0(a4)
    8000733e:	873e                	mv	a4,a5
    80007340:	bd55                	j	800071f4 <vsnprintf+0xaa>
    80007342:	0006a803          	lw	a6,0(a3)
    80007346:	9772                	add	a4,a4,t3
    80007348:	06a1                	addi	a3,a3,8
    8000734a:	01070023          	sb	a6,0(a4)
    8000734e:	4881                	li	a7,0
    80007350:	873e                	mv	a4,a5
    80007352:	4801                	li	a6,0
    80007354:	b5b1                	j	800071a0 <vsnprintf+0x56>
    80007356:	873e                	mv	a4,a5
    80007358:	bd71                	j	800071f4 <vsnprintf+0xaa>
    8000735a:	4701                	li	a4,0
    8000735c:	4501                	li	a0,0
    8000735e:	00b77963          	bgeu	a4,a1,80007370 <vsnprintf+0x226>
    80007362:	9772                	add	a4,a4,t3
    80007364:	00070023          	sb	zero,0(a4)
    80007368:	8082                	ret
    8000736a:	4885                	li	a7,1
    8000736c:	4781                	li	a5,0
    8000736e:	b54d                	j	80007210 <vsnprintf+0xc6>
    80007370:	c591                	beqz	a1,8000737c <vsnprintf+0x232>
    80007372:	00be0733          	add	a4,t3,a1
    80007376:	fe070fa3          	sb	zero,-1(a4)
    8000737a:	8082                	ret
    8000737c:	8082                	ret

000000008000737e <snprintf>:
    8000737e:	715d                	addi	sp,sp,-80
    80007380:	02810313          	addi	t1,sp,40
    80007384:	f436                	sd	a3,40(sp)
    80007386:	869a                	mv	a3,t1
    80007388:	ec06                	sd	ra,24(sp)
    8000738a:	f83a                	sd	a4,48(sp)
    8000738c:	fc3e                	sd	a5,56(sp)
    8000738e:	e0c2                	sd	a6,64(sp)
    80007390:	e4c6                	sd	a7,72(sp)
    80007392:	e41a                	sd	t1,8(sp)
    80007394:	db7ff0ef          	jal	ra,8000714a <vsnprintf>
    80007398:	60e2                	ld	ra,24(sp)
    8000739a:	6161                	addi	sp,sp,80
    8000739c:	8082                	ret

000000008000739e <memcpy>:
    8000739e:	00b567b3          	or	a5,a0,a1
    800073a2:	0077f713          	andi	a4,a5,7
    800073a6:	87aa                	mv	a5,a0
    800073a8:	e705                	bnez	a4,800073d0 <memcpy+0x32>
    800073aa:	ff960813          	addi	a6,a2,-7
    800073ae:	982a                	add	a6,a6,a0
    800073b0:	03057063          	bgeu	a0,a6,800073d0 <memcpy+0x32>
    800073b4:	872e                	mv	a4,a1
    800073b6:	6314                	ld	a3,0(a4)
    800073b8:	07a1                	addi	a5,a5,8
    800073ba:	0721                	addi	a4,a4,8
    800073bc:	fed7bc23          	sd	a3,-8(a5)
    800073c0:	ff07ebe3          	bltu	a5,a6,800073b6 <memcpy+0x18>
    800073c4:	ff860793          	addi	a5,a2,-8
    800073c8:	9be1                	andi	a5,a5,-8
    800073ca:	07a1                	addi	a5,a5,8
    800073cc:	95be                	add	a1,a1,a5
    800073ce:	97aa                	add	a5,a5,a0
    800073d0:	962a                	add	a2,a2,a0
    800073d2:	00c7fd63          	bgeu	a5,a2,800073ec <memcpy+0x4e>
    800073d6:	8e1d                	sub	a2,a2,a5
    800073d8:	00c58733          	add	a4,a1,a2
    800073dc:	0005c683          	lbu	a3,0(a1)
    800073e0:	0585                	addi	a1,a1,1
    800073e2:	0785                	addi	a5,a5,1
    800073e4:	fed78fa3          	sb	a3,-1(a5)
    800073e8:	fee59ae3          	bne	a1,a4,800073dc <memcpy+0x3e>
    800073ec:	8082                	ret

00000000800073ee <memset>:
    800073ee:	00c567b3          	or	a5,a0,a2
    800073f2:	8b9d                	andi	a5,a5,7
    800073f4:	962a                	add	a2,a2,a0
    800073f6:	0ff5f593          	andi	a1,a1,255
    800073fa:	cb91                	beqz	a5,8000740e <memset+0x20>
    800073fc:	87aa                	mv	a5,a0
    800073fe:	02c57a63          	bgeu	a0,a2,80007432 <memset+0x44>
    80007402:	0785                	addi	a5,a5,1
    80007404:	feb78fa3          	sb	a1,-1(a5)
    80007408:	fef61de3          	bne	a2,a5,80007402 <memset+0x14>
    8000740c:	8082                	ret
    8000740e:	00859793          	slli	a5,a1,0x8
    80007412:	8ddd                	or	a1,a1,a5
    80007414:	01059793          	slli	a5,a1,0x10
    80007418:	8fcd                	or	a5,a5,a1
    8000741a:	02079593          	slli	a1,a5,0x20
    8000741e:	8ddd                	or	a1,a1,a5
    80007420:	fec576e3          	bgeu	a0,a2,8000740c <memset+0x1e>
    80007424:	87aa                	mv	a5,a0
    80007426:	07a1                	addi	a5,a5,8
    80007428:	feb7bc23          	sd	a1,-8(a5)
    8000742c:	fec7ede3          	bltu	a5,a2,80007426 <memset+0x38>
    80007430:	8082                	ret
    80007432:	8082                	ret

0000000080007434 <strlen>:
    80007434:	00054783          	lbu	a5,0(a0) # 10000 <_ftext-0x7fff0000>
    80007438:	cb89                	beqz	a5,8000744a <strlen+0x16>
    8000743a:	87aa                	mv	a5,a0
    8000743c:	0017c703          	lbu	a4,1(a5)
    80007440:	0785                	addi	a5,a5,1
    80007442:	ff6d                	bnez	a4,8000743c <strlen+0x8>
    80007444:	40a78533          	sub	a0,a5,a0
    80007448:	8082                	ret
    8000744a:	4501                	li	a0,0
    8000744c:	8082                	ret

000000008000744e <strcmp>:
    8000744e:	00054783          	lbu	a5,0(a0)
    80007452:	0585                	addi	a1,a1,1
    80007454:	0505                	addi	a0,a0,1
    80007456:	fff5c703          	lbu	a4,-1(a1)
    8000745a:	c799                	beqz	a5,80007468 <strcmp+0x1a>
    8000745c:	fee789e3          	beq	a5,a4,8000744e <strcmp>
    80007460:	0007851b          	sext.w	a0,a5
    80007464:	9d19                	subw	a0,a0,a4
    80007466:	8082                	ret
    80007468:	4501                	li	a0,0
    8000746a:	bfed                	j	80007464 <strcmp+0x16>

000000008000746c <strcpy>:
    8000746c:	87aa                	mv	a5,a0
    8000746e:	0005c703          	lbu	a4,0(a1)
    80007472:	0785                	addi	a5,a5,1
    80007474:	0585                	addi	a1,a1,1
    80007476:	fee78fa3          	sb	a4,-1(a5)
    8000747a:	fb75                	bnez	a4,8000746e <strcpy+0x2>
    8000747c:	8082                	ret

000000008000747e <atol>:
    8000747e:	00054703          	lbu	a4,0(a0)
    80007482:	02000693          	li	a3,32
    80007486:	87aa                	mv	a5,a0
    80007488:	00d71763          	bne	a4,a3,80007496 <atol+0x18>
    8000748c:	0017c703          	lbu	a4,1(a5)
    80007490:	0785                	addi	a5,a5,1
    80007492:	fed70de3          	beq	a4,a3,8000748c <atol+0xe>
    80007496:	02d00693          	li	a3,45
    8000749a:	04d70163          	beq	a4,a3,800074dc <atol+0x5e>
    8000749e:	02b00693          	li	a3,43
    800074a2:	02d70663          	beq	a4,a3,800074ce <atol+0x50>
    800074a6:	0007c683          	lbu	a3,0(a5)
    800074aa:	4581                	li	a1,0
    800074ac:	c695                	beqz	a3,800074d8 <atol+0x5a>
    800074ae:	4501                	li	a0,0
    800074b0:	0785                	addi	a5,a5,1
    800074b2:	fd06861b          	addiw	a2,a3,-48
    800074b6:	00251713          	slli	a4,a0,0x2
    800074ba:	0007c683          	lbu	a3,0(a5)
    800074be:	953a                	add	a0,a0,a4
    800074c0:	0506                	slli	a0,a0,0x1
    800074c2:	9532                	add	a0,a0,a2
    800074c4:	f6f5                	bnez	a3,800074b0 <atol+0x32>
    800074c6:	c991                	beqz	a1,800074da <atol+0x5c>
    800074c8:	40a00533          	neg	a0,a0
    800074cc:	8082                	ret
    800074ce:	0017c683          	lbu	a3,1(a5)
    800074d2:	4581                	li	a1,0
    800074d4:	0785                	addi	a5,a5,1
    800074d6:	fee1                	bnez	a3,800074ae <atol+0x30>
    800074d8:	4501                	li	a0,0
    800074da:	8082                	ret
    800074dc:	0017c683          	lbu	a3,1(a5)
    800074e0:	4585                	li	a1,1
    800074e2:	0785                	addi	a5,a5,1
    800074e4:	f6e9                	bnez	a3,800074ae <atol+0x30>
    800074e6:	4501                	li	a0,0
    800074e8:	bfcd                	j	800074da <atol+0x5c>

Disassembly of section .rodata:

00000000800074f0 <regnames.2620>:
    800074f0:	8140                	0x8140
    800074f2:	8000                	0x8000
    800074f4:	0000                	unimp
    800074f6:	0000                	unimp
    800074f8:	81a0                	0x81a0
    800074fa:	8000                	0x8000
    800074fc:	0000                	unimp
    800074fe:	0000                	unimp
    80007500:	81a8                	0x81a8
    80007502:	8000                	0x8000
    80007504:	0000                	unimp
    80007506:	0000                	unimp
    80007508:	81b0                	0x81b0
    8000750a:	8000                	0x8000
    8000750c:	0000                	unimp
    8000750e:	0000                	unimp
    80007510:	81b8                	0x81b8
    80007512:	8000                	0x8000
    80007514:	0000                	unimp
    80007516:	0000                	unimp
    80007518:	81c0                	0x81c0
    8000751a:	8000                	0x8000
    8000751c:	0000                	unimp
    8000751e:	0000                	unimp
    80007520:	81c8                	0x81c8
    80007522:	8000                	0x8000
    80007524:	0000                	unimp
    80007526:	0000                	unimp
    80007528:	81d0                	0x81d0
    8000752a:	8000                	0x8000
    8000752c:	0000                	unimp
    8000752e:	0000                	unimp
    80007530:	81d8                	0x81d8
    80007532:	8000                	0x8000
    80007534:	0000                	unimp
    80007536:	0000                	unimp
    80007538:	81e0                	0x81e0
    8000753a:	8000                	0x8000
    8000753c:	0000                	unimp
    8000753e:	0000                	unimp
    80007540:	81e8                	0x81e8
    80007542:	8000                	0x8000
    80007544:	0000                	unimp
    80007546:	0000                	unimp
    80007548:	81f0                	0x81f0
    8000754a:	8000                	0x8000
    8000754c:	0000                	unimp
    8000754e:	0000                	unimp
    80007550:	81f8                	0x81f8
    80007552:	8000                	0x8000
    80007554:	0000                	unimp
    80007556:	0000                	unimp
    80007558:	8200                	0x8200
    8000755a:	8000                	0x8000
    8000755c:	0000                	unimp
    8000755e:	0000                	unimp
    80007560:	8208                	0x8208
    80007562:	8000                	0x8000
    80007564:	0000                	unimp
    80007566:	0000                	unimp
    80007568:	8210                	0x8210
    8000756a:	8000                	0x8000
    8000756c:	0000                	unimp
    8000756e:	0000                	unimp
    80007570:	8218                	0x8218
    80007572:	8000                	0x8000
    80007574:	0000                	unimp
    80007576:	0000                	unimp
    80007578:	8220                	0x8220
    8000757a:	8000                	0x8000
    8000757c:	0000                	unimp
    8000757e:	0000                	unimp
    80007580:	8228                	0x8228
    80007582:	8000                	0x8000
    80007584:	0000                	unimp
    80007586:	0000                	unimp
    80007588:	8230                	0x8230
    8000758a:	8000                	0x8000
    8000758c:	0000                	unimp
    8000758e:	0000                	unimp
    80007590:	8238                	0x8238
    80007592:	8000                	0x8000
    80007594:	0000                	unimp
    80007596:	0000                	unimp
    80007598:	8240                	0x8240
    8000759a:	8000                	0x8000
    8000759c:	0000                	unimp
    8000759e:	0000                	unimp
    800075a0:	8248                	0x8248
    800075a2:	8000                	0x8000
    800075a4:	0000                	unimp
    800075a6:	0000                	unimp
    800075a8:	8250                	0x8250
    800075aa:	8000                	0x8000
    800075ac:	0000                	unimp
    800075ae:	0000                	unimp
    800075b0:	8258                	0x8258
    800075b2:	8000                	0x8000
    800075b4:	0000                	unimp
    800075b6:	0000                	unimp
    800075b8:	8260                	0x8260
    800075ba:	8000                	0x8000
    800075bc:	0000                	unimp
    800075be:	0000                	unimp
    800075c0:	8268                	0x8268
    800075c2:	8000                	0x8000
    800075c4:	0000                	unimp
    800075c6:	0000                	unimp
    800075c8:	8270                	0x8270
    800075ca:	8000                	0x8000
    800075cc:	0000                	unimp
    800075ce:	0000                	unimp
    800075d0:	8278                	0x8278
    800075d2:	8000                	0x8000
    800075d4:	0000                	unimp
    800075d6:	0000                	unimp
    800075d8:	8280                	0x8280
    800075da:	8000                	0x8000
    800075dc:	0000                	unimp
    800075de:	0000                	unimp
    800075e0:	8288                	0x8288
    800075e2:	8000                	0x8000
    800075e4:	0000                	unimp
    800075e6:	0000                	unimp
    800075e8:	8290                	0x8290
    800075ea:	8000                	0x8000
    800075ec:	0000                	unimp
	...

00000000800075f0 <default_pmm_manager>:
    800075f0:	85e0                	0x85e0
    800075f2:	8000                	0x8000
    800075f4:	0000                	unimp
    800075f6:	0000                	unimp
    800075f8:	2956                	fld	fs2,336(sp)
    800075fa:	8000                	0x8000
    800075fc:	0000                	unimp
    800075fe:	0000                	unimp
    80007600:	2d64                	fld	fs1,216(a0)
    80007602:	8000                	0x8000
    80007604:	0000                	unimp
    80007606:	0000                	unimp
    80007608:	2968                	fld	fa0,208(a0)
    8000760a:	8000                	0x8000
    8000760c:	0000                	unimp
    8000760e:	0000                	unimp
    80007610:	29d8                	fld	fa4,144(a1)
    80007612:	8000                	0x8000
    80007614:	0000                	unimp
    80007616:	0000                	unimp
    80007618:	2ac6                	fld	fs5,80(sp)
    8000761a:	8000                	0x8000
    8000761c:	0000                	unimp
    8000761e:	0000                	unimp
    80007620:	2ad0                	fld	fa2,144(a3)
    80007622:	8000                	0x8000
    80007624:	0000                	unimp
	...

0000000080007628 <trap_handlers.3427>:
    80007628:	4024                	lw	s1,64(s0)
    8000762a:	8000                	0x8000
    8000762c:	0000                	unimp
    8000762e:	0000                	unimp
    80007630:	40f2                	lw	ra,28(sp)
    80007632:	8000                	0x8000
    80007634:	0000                	unimp
    80007636:	0000                	unimp
    80007638:	3fee                	fld	ft11,248(sp)
    8000763a:	8000                	0x8000
    8000763c:	0000                	unimp
    8000763e:	0000                	unimp
    80007640:	3f36                	fld	ft10,360(sp)
    80007642:	8000                	0x8000
    80007644:	0000                	unimp
    80007646:	0000                	unimp
    80007648:	3fda                	fld	ft11,432(sp)
    8000764a:	8000                	0x8000
    8000764c:	0000                	unimp
    8000764e:	0000                	unimp
    80007650:	3fc6                	fld	ft11,112(sp)
    80007652:	8000                	0x8000
    80007654:	0000                	unimp
    80007656:	0000                	unimp
    80007658:	3fb2                	fld	ft11,296(sp)
    8000765a:	8000                	0x8000
    8000765c:	0000                	unimp
    8000765e:	0000                	unimp
    80007660:	3f9e                	fld	ft11,480(sp)
    80007662:	8000                	0x8000
    80007664:	0000                	unimp
    80007666:	0000                	unimp
    80007668:	4038                	lw	a4,64(s0)
    8000766a:	8000                	0x8000
	...
    80007688:	40c4                	lw	s1,4(s1)
    8000768a:	8000                	0x8000
    8000768c:	0000                	unimp
    8000768e:	0000                	unimp
    80007690:	4096                	lw	ra,68(sp)
    80007692:	8000                	0x8000
	...
    800076a0:	4068                	lw	a0,68(s0)
    800076a2:	8000                	0x8000
    800076a4:	0000                	unimp
	...

00000000800076a8 <syscall_table.3817>:
	...
    800076c0:	47c0                	lw	s0,12(a5)
    800076c2:	8000                	0x8000
	...
    80007730:	46a4                	lw	s1,72(a3)
    80007732:	8000                	0x8000
	...
    80007790:	4248                	lw	a0,4(a2)
    80007792:	8000                	0x8000
	...
    800077b8:	462a                	lw	a2,136(sp)
    800077ba:	8000                	0x8000
	...
    800077d8:	4548                	lw	a0,12(a0)
    800077da:	8000                	0x8000
	...
    80007868:	443a                	lw	s0,140(sp)
    8000786a:	8000                	0x8000
    8000786c:	0000                	unimp
    8000786e:	0000                	unimp
    80007870:	449c                	lw	a5,8(s1)
    80007872:	8000                	0x8000
	...
    80007898:	450e                	lw	a0,192(sp)
    8000789a:	8000                	0x8000
    8000789c:	0000                	unimp
    8000789e:	0000                	unimp
    800078a0:	4312                	lw	t1,4(sp)
    800078a2:	8000                	0x8000
    800078a4:	0000                	unimp
    800078a6:	0000                	unimp
    800078a8:	4398                	lw	a4,0(a5)
    800078aa:	8000                	0x8000
	...
    800078b8:	43dc                	lw	a5,4(a5)
    800078ba:	8000                	0x8000
    800078bc:	0000                	unimp
    800078be:	0000                	unimp
    800078c0:	4356                	lw	t1,84(sp)
    800078c2:	8000                	0x8000
	...
    80007918:	4248                	lw	a0,4(a2)
    8000791a:	8000                	0x8000
	...
    80007928:	44b2                	lw	s1,12(sp)
    8000792a:	8000                	0x8000
    8000792c:	0000                	unimp
    8000792e:	0000                	unimp
    80007930:	424e                	lw	tp,208(sp)
    80007932:	8000                	0x8000
    80007934:	0000                	unimp
    80007936:	0000                	unimp
    80007938:	4770                	lw	a2,76(a4)
    8000793a:	8000                	0x8000
    8000793c:	0000                	unimp
    8000793e:	0000                	unimp
    80007940:	4798                	lw	a4,8(a5)
    80007942:	8000                	0x8000
	...
    80007990:	427a                	lw	tp,156(sp)
    80007992:	8000                	0x8000
    80007994:	0000                	unimp
    80007996:	0000                	unimp
    80007998:	427a                	lw	tp,156(sp)
    8000799a:	8000                	0x8000
	...
    800079a8:	4248                	lw	a0,4(a2)
    800079aa:	8000                	0x8000
	...
    800079c0:	4248                	lw	a0,4(a2)
    800079c2:	8000                	0x8000
	...
    80007ad8:	47c6                	lw	a5,80(sp)
    80007ada:	8000                	0x8000
    80007adc:	0000                	unimp
    80007ade:	0000                	unimp
    80007ae0:	4262                	lw	tp,24(sp)
    80007ae2:	8000                	0x8000
	...
    80007b70:	4228                	lw	a0,64(a2)
    80007b72:	8000                	0x8000
	...
    80007ba8:	46ee                	lw	a3,216(sp)
    80007baa:	8000                	0x8000
	...
    80007bc0:	4248                	lw	a0,4(a2)
    80007bc2:	8000                	0x8000
    80007bc4:	0000                	unimp
    80007bc6:	0000                	unimp
    80007bc8:	4248                	lw	a0,4(a2)
    80007bca:	8000                	0x8000
    80007bcc:	0000                	unimp
    80007bce:	0000                	unimp
    80007bd0:	4248                	lw	a0,4(a2)
    80007bd2:	8000                	0x8000
	...
    80007bf8:	475e                	lw	a4,212(sp)
    80007bfa:	8000                	0x8000
	...
    80007c08:	421c                	lw	a5,0(a2)
    80007c0a:	8000                	0x8000
	...
    80007d58:	46ea                	lw	a3,152(sp)
    80007d5a:	8000                	0x8000
	...
    80007ed0:	4248                	lw	a0,4(a2)
    80007ed2:	8000                	0x8000
    80007ed4:	0000                	unimp
    80007ed6:	0000                	unimp
    80007ed8:	ce12                	sw	tp,28(sp)
    80007eda:	ffff                	0xffff
    80007edc:	cdf8                	sw	a4,92(a1)
    80007ede:	ffff                	0xffff
    80007ee0:	ce12                	sw	tp,28(sp)
    80007ee2:	ffff                	0xffff
    80007ee4:	ce12                	sw	tp,28(sp)
    80007ee6:	ffff                	0xffff
    80007ee8:	ce12                	sw	tp,28(sp)
    80007eea:	ffff                	0xffff
    80007eec:	cdf8                	sw	a4,92(a1)
    80007eee:	ffff                	0xffff
    80007ef0:	ce12                	sw	tp,28(sp)
    80007ef2:	ffff                	0xffff
    80007ef4:	cdf8                	sw	a4,92(a1)
    80007ef6:	ffff                	0xffff
    80007ef8:	ce12                	sw	tp,28(sp)
    80007efa:	ffff                	0xffff
    80007efc:	ce12                	sw	tp,28(sp)
    80007efe:	ffff                	0xffff
    80007f00:	ce12                	sw	tp,28(sp)
    80007f02:	ffff                	0xffff
    80007f04:	ce12                	sw	tp,28(sp)
    80007f06:	ffff                	0xffff
    80007f08:	ce12                	sw	tp,28(sp)
    80007f0a:	ffff                	0xffff
    80007f0c:	cdf8                	sw	a4,92(a1)
    80007f0e:	ffff                	0xffff
    80007f10:	ce12                	sw	tp,28(sp)
    80007f12:	ffff                	0xffff
    80007f14:	cdf8                	sw	a4,92(a1)
    80007f16:	ffff                	0xffff
    80007f18:	ce14                	sw	a3,24(a2)
    80007f1a:	ffff                	0xffff
    80007f1c:	ce3c                	sw	a5,88(a2)
    80007f1e:	ffff                	0xffff
    80007f20:	ce50                	sw	a2,28(a2)
    80007f22:	ffff                	0xffff
    80007f24:	ce76                	sw	t4,28(sp)
    80007f26:	ffff                	0xffff
    80007f28:	ce88                	sw	a0,24(a3)
    80007f2a:	ffff                	0xffff
    80007f2c:	ce8c                	sw	a1,24(a3)
    80007f2e:	ffff                	0xffff
    80007f30:	ce02                	sw	zero,28(sp)
    80007f32:	ffff                	0xffff
    80007f34:	ce02                	sw	zero,28(sp)
    80007f36:	ffff                	0xffff
    80007f38:	ce90                	sw	a2,24(a3)
    80007f3a:	ffff                	0xffff

0000000080007f3c <illegal_insn_trap_table>:
    80007f3c:	6cec                	ld	a1,216(s1)
    80007f3e:	8000                	0x8000
    80007f40:	6cec                	ld	a1,216(s1)
    80007f42:	8000                	0x8000
    80007f44:	6cec                	ld	a1,216(s1)
    80007f46:	8000                	0x8000
    80007f48:	6cec                	ld	a1,216(s1)
    80007f4a:	8000                	0x8000
    80007f4c:	6cec                	ld	a1,216(s1)
    80007f4e:	8000                	0x8000
    80007f50:	6cec                	ld	a1,216(s1)
    80007f52:	8000                	0x8000
    80007f54:	6cec                	ld	a1,216(s1)
    80007f56:	8000                	0x8000
    80007f58:	6cec                	ld	a1,216(s1)
    80007f5a:	8000                	0x8000
    80007f5c:	6cec                	ld	a1,216(s1)
    80007f5e:	8000                	0x8000
    80007f60:	6cec                	ld	a1,216(s1)
    80007f62:	8000                	0x8000
    80007f64:	6cec                	ld	a1,216(s1)
    80007f66:	8000                	0x8000
    80007f68:	6cec                	ld	a1,216(s1)
    80007f6a:	8000                	0x8000
    80007f6c:	6cec                	ld	a1,216(s1)
    80007f6e:	8000                	0x8000
    80007f70:	6cec                	ld	a1,216(s1)
    80007f72:	8000                	0x8000
    80007f74:	6cec                	ld	a1,216(s1)
    80007f76:	8000                	0x8000
    80007f78:	6cec                	ld	a1,216(s1)
    80007f7a:	8000                	0x8000
    80007f7c:	6cec                	ld	a1,216(s1)
    80007f7e:	8000                	0x8000
    80007f80:	6cec                	ld	a1,216(s1)
    80007f82:	8000                	0x8000
    80007f84:	6cec                	ld	a1,216(s1)
    80007f86:	8000                	0x8000
    80007f88:	6cec                	ld	a1,216(s1)
    80007f8a:	8000                	0x8000
    80007f8c:	6cec                	ld	a1,216(s1)
    80007f8e:	8000                	0x8000
    80007f90:	6cec                	ld	a1,216(s1)
    80007f92:	8000                	0x8000
    80007f94:	6cec                	ld	a1,216(s1)
    80007f96:	8000                	0x8000
    80007f98:	6cec                	ld	a1,216(s1)
    80007f9a:	8000                	0x8000
    80007f9c:	6cec                	ld	a1,216(s1)
    80007f9e:	8000                	0x8000
    80007fa0:	6cec                	ld	a1,216(s1)
    80007fa2:	8000                	0x8000
    80007fa4:	6cec                	ld	a1,216(s1)
    80007fa6:	8000                	0x8000
    80007fa8:	6cec                	ld	a1,216(s1)
    80007faa:	8000                	0x8000
    80007fac:	6cf6                	ld	s9,344(sp)
    80007fae:	8000                	0x8000
    80007fb0:	6cec                	ld	a1,216(s1)
    80007fb2:	8000                	0x8000
    80007fb4:	6cec                	ld	a1,216(s1)
    80007fb6:	8000                	0x8000
    80007fb8:	6cec                	ld	a1,216(s1)
    80007fba:	8000                	0x8000
    80007fbc:	ee20                	sd	s0,88(a2)
    80007fbe:	ffff                	0xffff
    80007fc0:	ee26                	sd	s1,280(sp)
    80007fc2:	ffff                	0xffff
    80007fc4:	eeba                	sd	a4,344(sp)
    80007fc6:	ffff                	0xffff
    80007fc8:	ee92                	sd	tp,344(sp)
    80007fca:	ffff                	0xffff
    80007fcc:	ee20                	sd	s0,88(a2)
    80007fce:	ffff                	0xffff
    80007fd0:	ee24                	sd	s1,88(a2)
    80007fd2:	ffff                	0xffff
    80007fd4:	eec4                	sd	s1,152(a3)
    80007fd6:	ffff                	0xffff
    80007fd8:	eeac                	sd	a1,88(a3)
    80007fda:	ffff                	0xffff
    80007fdc:	f26a                	sd	s10,288(sp)
    80007fde:	ffff                	0xffff
    80007fe0:	f208                	sd	a0,32(a2)
    80007fe2:	ffff                	0xffff
    80007fe4:	f1c4                	sd	s1,160(a1)
    80007fe6:	ffff                	0xffff
    80007fe8:	f1c4                	sd	s1,160(a1)
    80007fea:	ffff                	0xffff
    80007fec:	f1c4                	sd	s1,160(a1)
    80007fee:	ffff                	0xffff
    80007ff0:	f1c4                	sd	s1,160(a1)
    80007ff2:	ffff                	0xffff
    80007ff4:	f1c4                	sd	s1,160(a1)
    80007ff6:	ffff                	0xffff
    80007ff8:	f1c4                	sd	s1,160(a1)
    80007ffa:	ffff                	0xffff
    80007ffc:	f1c4                	sd	s1,160(a1)
    80007ffe:	ffff                	0xffff
    80008000:	f204                	sd	s1,32(a2)
    80008002:	ffff                	0xffff
    80008004:	f1c4                	sd	s1,160(a1)
    80008006:	ffff                	0xffff
    80008008:	f1c4                	sd	s1,160(a1)
    8000800a:	ffff                	0xffff
    8000800c:	f1c4                	sd	s1,160(a1)
    8000800e:	ffff                	0xffff
    80008010:	f2f6                	sd	t4,352(sp)
    80008012:	ffff                	0xffff
    80008014:	f1c4                	sd	s1,160(a1)
    80008016:	ffff                	0xffff
    80008018:	f1c4                	sd	s1,160(a1)
    8000801a:	ffff                	0xffff
    8000801c:	f2c4                	sd	s1,160(a3)
    8000801e:	ffff                	0xffff
    80008020:	f1c4                	sd	s1,160(a1)
    80008022:	ffff                	0xffff
    80008024:	f1c4                	sd	s1,160(a1)
    80008026:	ffff                	0xffff
    80008028:	f1c4                	sd	s1,160(a1)
    8000802a:	ffff                	0xffff
    8000802c:	f1c4                	sd	s1,160(a1)
    8000802e:	ffff                	0xffff
    80008030:	f27a                	sd	t5,288(sp)
    80008032:	ffff                	0xffff
    80008034:	0000                	unimp
    80008036:	0000                	unimp
    80008038:	2072                	fld	ft0,280(sp)
    8000803a:	3d3d                	addiw	s10,s10,-17
    8000803c:	3020                	fld	fs0,96(s0)
    8000803e:	0000                	unimp
    80008040:	6e75                	lui	t3,0x1d
    80008042:	6572                	ld	a0,280(sp)
    80008044:	6e676f63          	bltu	a4,t1,80008742 <illegal_insn_trap_table+0x806>
    80008048:	7a69                	lui	s4,0xffffa
    8000804a:	6465                	lui	s0,0x19
    8000804c:	6f20                	ld	s0,88(a4)
    8000804e:	7470                	ld	a2,232(s0)
    80008050:	6f69                	lui	t5,0x1a
    80008052:	3a6e                	fld	fs4,248(sp)
    80008054:	6020                	ld	s0,64(s0)
    80008056:	6325                	lui	t1,0x9
    80008058:	00000a27          	0xa27
    8000805c:	0000                	unimp
    8000805e:	0000                	unimp
    80008060:	6574                	ld	a3,200(a0)
    80008062:	6c6c                	ld	a1,216(s0)
    80008064:	6d20                	ld	s0,88(a0)
    80008066:	2065                	0x2065
    80008068:	74616877          	0x74616877
    8000806c:	4520                	lw	s0,72(a0)
    8000806e:	464c                	lw	a1,12(a2)
    80008070:	7420                	ld	s0,104(s0)
    80008072:	6f6c206f          	j	800ca768 <_end+0xb0768>
    80008076:	6461                	lui	s0,0x18
    80008078:	0a21                	addi	s4,s4,8
    8000807a:	0000                	unimp
    8000807c:	0000                	unimp
    8000807e:	0000                	unimp
    80008080:	6c65                	lui	s8,0x19
    80008082:	2066                	fld	ft0,88(sp)
    80008084:	616e                	ld	sp,216(sp)
    80008086:	656d                	lui	a0,0x1b
    80008088:	2520                	fld	fs0,72(a0)
    8000808a:	000a2073          	csrs	ustatus,s4
    8000808e:	0000                	unimp
    80008090:	7270                	ld	a2,224(a2)
    80008092:	7665                	lui	a2,0xffff9
    80008094:	3e20                	fld	fs0,120(a2)
    80008096:	3020                	fld	fs0,96(s0)
	...
    800080a0:	5349                	li	t1,-14
    800080a2:	455f 464c 3436      	0x3436464c455f
    800080a8:	6528                	ld	a0,72(a0)
    800080aa:	2968                	fld	fa0,208(a0)
    800080ac:	0000                	unimp
    800080ae:	0000                	unimp
    800080b0:	2f2e                	fld	ft10,200(sp)
    800080b2:	6b70                	ld	a2,208(a4)
    800080b4:	666c652f          	0x666c652f
    800080b8:	632e                	ld	t1,200(sp)
    800080ba:	0000                	unimp
    800080bc:	0000                	unimp
    800080be:	0000                	unimp
    800080c0:	7325                	lui	t1,0xfffe9
    800080c2:	253a                	fld	fa0,392(sp)
    800080c4:	3a64                	fld	fs1,240(a2)
    800080c6:	6120                	ld	s0,64(a0)
    800080c8:	72657373          	csrrci	t1,0x726,10
    800080cc:	6974                	ld	a3,208(a0)
    800080ce:	66206e6f          	jal	t3,8000e730 <hash_list+0x22e0>
    800080d2:	6961                	lui	s2,0x18
    800080d4:	656c                	ld	a1,200(a0)
    800080d6:	3a64                	fld	fs1,240(a2)
    800080d8:	2520                	fld	fs0,72(a0)
    800080da:	00000a73          	0xa73
    800080de:	0000                	unimp
    800080e0:	7270                	ld	a2,224(a2)
    800080e2:	7020636f          	jal	t1,8000e7e4 <hash_list+0x2394>
    800080e6:	6469                	lui	s0,0x1a
    800080e8:	6620                	ld	s0,72(a2)
    800080ea:	6c61                	lui	s8,0x18
    800080ec:	206c                	fld	fa1,192(s0)
    800080ee:	6f20                	ld	s0,88(a4)
    800080f0:	6570                	ld	a2,200(a0)
    800080f2:	206e                	fld	ft0,216(sp)
    800080f4:	4c45                	li	s8,17
    800080f6:	2046                	fld	ft0,80(sp)
    800080f8:	7270                	ld	a2,224(a2)
    800080fa:	6172676f          	jal	a4,8002ef10 <_end+0x14f10>
    800080fe:	3a6d                	addiw	s4,s4,-5
    80008100:	2520                	fld	fs0,72(a0)
    80008102:	000a2173          	csrrs	sp,ustatus,s4
    80008106:	0000                	unimp
    80008108:	7270                	ld	a2,224(a2)
    8000810a:	6c20636f          	jal	t1,8000e7cc <hash_list+0x237c>
    8000810e:	2064616f          	jal	sp,8004e314 <_end+0x34314>
    80008112:	6c65                	lui	s8,0x19
    80008114:	2066                	fld	ft0,88(sp)
    80008116:	3125                	addiw	sp,sp,-23
    80008118:	6c36                	ld	s8,328(sp)
    8000811a:	0a78                	addi	a4,sp,284
    8000811c:	0000                	unimp
    8000811e:	0000                	unimp
    80008120:	6c756f63          	bltu	a0,t2,800087fe <illegal_insn_trap_table+0x8c2>
    80008124:	6e64                	ld	s1,216(a2)
    80008126:	6f207427          	0x6f207427
    8000812a:	6570                	ld	a2,200(a0)
    8000812c:	206e                	fld	ft0,216(sp)
    8000812e:	4c45                	li	s8,17
    80008130:	2046                	fld	ft0,80(sp)
    80008132:	7270                	ld	a2,224(a2)
    80008134:	6172676f          	jal	a4,8002ef4a <_end+0x14f4a>
    80008138:	3a6d                	addiw	s4,s4,-5
    8000813a:	2520                	fld	fs0,72(a0)
    8000813c:	000a2173          	csrrs	sp,ustatus,s4
    80008140:	207a                	fld	ft0,408(sp)
    80008142:	0000                	unimp
    80008144:	0000                	unimp
    80008146:	0000                	unimp
    80008148:	7325                	lui	t1,0xfffe9
    8000814a:	2520                	fld	fs0,72(a0)
    8000814c:	786c                	ld	a1,240(s0)
    8000814e:	6325                	lui	t1,0x9
	...
    80008158:	6370                	ld	a2,192(a4)
    8000815a:	2520                	fld	fs0,72(a0)
    8000815c:	786c                	ld	a1,240(s0)
    8000815e:	7620                	ld	s0,104(a2)
    80008160:	2061                	0x2061
    80008162:	6c25                	lui	s8,0x9
    80008164:	2078                	fld	fa4,192(s0)
    80008166:	6e69                	lui	t3,0x1a
    80008168:	20206e73          	csrrsi	t3,hedeleg,0
    8000816c:	2020                	fld	fs0,64(s0)
    8000816e:	2020                	fld	fs0,64(s0)
    80008170:	2520                	fld	fs0,72(a0)
    80008172:	2078                	fld	fa4,192(s0)
    80008174:	25207273          	csrrci	tp,0x252,0
    80008178:	786c                	ld	a1,240(s0)
    8000817a:	000a                	c.slli	zero,0x2
    8000817c:	0000                	unimp
    8000817e:	0000                	unimp
    80008180:	7361                	lui	t1,0xffff8
    80008182:	74726573          	csrrsi	a0,0x747,4
    80008186:	6f69                	lui	t5,0x1a
    80008188:	206e                	fld	ft0,216(sp)
    8000818a:	6166                	ld	sp,88(sp)
    8000818c:	6c69                	lui	s8,0x1a
    8000818e:	6465                	lui	s0,0x19
    80008190:	4020                	lw	s0,64(s0)
    80008192:	2520                	fld	fs0,72(a0)
    80008194:	3a70                	fld	fa2,240(a2)
    80008196:	2520                	fld	fs0,72(a0)
    80008198:	00000a73          	0xa73
    8000819c:	0000                	unimp
    8000819e:	0000                	unimp
    800081a0:	6172                	ld	sp,280(sp)
    800081a2:	0000                	unimp
    800081a4:	0000                	unimp
    800081a6:	0000                	unimp
    800081a8:	00007073          	csrci	ustatus,0
    800081ac:	0000                	unimp
    800081ae:	0000                	unimp
    800081b0:	00007067          	0x7067
    800081b4:	0000                	unimp
    800081b6:	0000                	unimp
    800081b8:	7074                	ld	a3,224(s0)
    800081ba:	0000                	unimp
    800081bc:	0000                	unimp
    800081be:	0000                	unimp
    800081c0:	3074                	fld	fa3,224(s0)
    800081c2:	0000                	unimp
    800081c4:	0000                	unimp
    800081c6:	0000                	unimp
    800081c8:	3174                	fld	fa3,224(a0)
    800081ca:	0000                	unimp
    800081cc:	0000                	unimp
    800081ce:	0000                	unimp
    800081d0:	3274                	fld	fa3,224(a2)
    800081d2:	0000                	unimp
    800081d4:	0000                	unimp
    800081d6:	0000                	unimp
    800081d8:	00003073          	csrc	ustatus,zero
    800081dc:	0000                	unimp
    800081de:	0000                	unimp
    800081e0:	00003173          	csrrc	sp,ustatus,zero
    800081e4:	0000                	unimp
    800081e6:	0000                	unimp
    800081e8:	3061                	0x3061
    800081ea:	0000                	unimp
    800081ec:	0000                	unimp
    800081ee:	0000                	unimp
    800081f0:	3161                	addiw	sp,sp,-8
    800081f2:	0000                	unimp
    800081f4:	0000                	unimp
    800081f6:	0000                	unimp
    800081f8:	3261                	addiw	tp,tp,-8
    800081fa:	0000                	unimp
    800081fc:	0000                	unimp
    800081fe:	0000                	unimp
    80008200:	3361                	addiw	t1,t1,-8
    80008202:	0000                	unimp
    80008204:	0000                	unimp
    80008206:	0000                	unimp
    80008208:	3461                	addiw	s0,s0,-8
    8000820a:	0000                	unimp
    8000820c:	0000                	unimp
    8000820e:	0000                	unimp
    80008210:	3561                	addiw	a0,a0,-8
    80008212:	0000                	unimp
    80008214:	0000                	unimp
    80008216:	0000                	unimp
    80008218:	3661                	addiw	a2,a2,-8
    8000821a:	0000                	unimp
    8000821c:	0000                	unimp
    8000821e:	0000                	unimp
    80008220:	3761                	addiw	a4,a4,-8
    80008222:	0000                	unimp
    80008224:	0000                	unimp
    80008226:	0000                	unimp
    80008228:	00003273          	csrrc	tp,ustatus,zero
    8000822c:	0000                	unimp
    8000822e:	0000                	unimp
    80008230:	00003373          	csrrc	t1,ustatus,zero
    80008234:	0000                	unimp
    80008236:	0000                	unimp
    80008238:	00003473          	csrrc	s0,ustatus,zero
    8000823c:	0000                	unimp
    8000823e:	0000                	unimp
    80008240:	00003573          	csrrc	a0,ustatus,zero
    80008244:	0000                	unimp
    80008246:	0000                	unimp
    80008248:	00003673          	csrrc	a2,ustatus,zero
    8000824c:	0000                	unimp
    8000824e:	0000                	unimp
    80008250:	00003773          	csrrc	a4,ustatus,zero
    80008254:	0000                	unimp
    80008256:	0000                	unimp
    80008258:	00003873          	csrrc	a6,ustatus,zero
    8000825c:	0000                	unimp
    8000825e:	0000                	unimp
    80008260:	00003973          	csrrc	s2,ustatus,zero
    80008264:	0000                	unimp
    80008266:	0000                	unimp
    80008268:	00004173          	0x4173
    8000826c:	0000                	unimp
    8000826e:	0000                	unimp
    80008270:	00004273          	0x4273
    80008274:	0000                	unimp
    80008276:	0000                	unimp
    80008278:	3374                	fld	fa3,224(a4)
    8000827a:	0000                	unimp
    8000827c:	0000                	unimp
    8000827e:	0000                	unimp
    80008280:	3474                	fld	fa3,232(s0)
    80008282:	0000                	unimp
    80008284:	0000                	unimp
    80008286:	0000                	unimp
    80008288:	3574                	fld	fa3,232(a0)
    8000828a:	0000                	unimp
    8000828c:	0000                	unimp
    8000828e:	0000                	unimp
    80008290:	3674                	fld	fa3,232(a2)
    80008292:	0000                	unimp
    80008294:	0000                	unimp
    80008296:	0000                	unimp
    80008298:	656e                	ld	a0,216(sp)
    8000829a:	7478                	ld	a4,232(s0)
    8000829c:	665f 6572 5f65      	0x5f656572665f
    800082a2:	6170                	ld	a2,192(a0)
    800082a4:	21206567          	0x21206567
    800082a8:	203d                	0x203d
    800082aa:	7266                	ld	tp,120(sp)
    800082ac:	6565                	lui	a0,0x19
    800082ae:	705f 6761 7365      	0x73656761705f
    800082b4:	0000                	unimp
    800082b6:	0000                	unimp
    800082b8:	7470                	ld	a2,232(s0)
    800082ba:	0065                	c.nop	25
    800082bc:	0000                	unimp
    800082be:	0000                	unimp
    800082c0:	6572                	ld	a0,280(sp)
    800082c2:	2074                	fld	fa3,192(s0)
    800082c4:	203e                	fld	ft0,456(sp)
    800082c6:	0030                	addi	a2,sp,8
    800082c8:	6170                	ld	a2,192(a0)
    800082ca:	66206567          	0x66206567
    800082ce:	7561                	lui	a0,0xffff8
    800082d0:	746c                	ld	a1,232(s0)
    800082d2:	7620                	ld	s0,104(a2)
    800082d4:	6461                	lui	s0,0x18
    800082d6:	7264                	ld	s1,224(a2)
    800082d8:	303a                	fld	ft0,424(sp)
    800082da:	2578                	fld	fa4,200(a0)
    800082dc:	366c                	fld	fa1,232(a2)
    800082de:	2078                	fld	fa4,192(s0)
    800082e0:	702a                	0x702a
    800082e2:	6574                	ld	a3,200(a0)
    800082e4:	2520                	fld	fs0,72(a0)
    800082e6:	3631                	addiw	a2,a2,-20
    800082e8:	786c                	ld	a1,240(s0)
    800082ea:	000a                	c.slli	zero,0x2
    800082ec:	0000                	unimp
    800082ee:	0000                	unimp
    800082f0:	5f5f 6168 646e      	0x646e61685f5f
    800082f6:	656c                	ld	a1,200(a0)
    800082f8:	705f 6761 5f65      	0x5f656761705f
    800082fe:	6166                	ld	sp,88(sp)
    80008300:	6c75                	lui	s8,0x1d
    80008302:	2874                	fld	fa3,208(s0)
    80008304:	2c61                	addiw	s8,s8,24
    80008306:	7020                	ld	s0,96(s0)
    80008308:	6f72                	ld	t5,280(sp)
    8000830a:	2974                	fld	fa3,208(a0)
    8000830c:	3d20                	fld	fs0,120(a0)
    8000830e:	203d                	0x203d
    80008310:	0030                	addi	a2,sp,8
    80008312:	0000                	unimp
    80008314:	0000                	unimp
    80008316:	0000                	unimp
    80008318:	5f5f 6f64 6d5f      	0x6d5f6f645f5f
    8000831e:	616d                	addi	sp,sp,240
    80008320:	2870                	fld	fa2,208(s0)
    80008322:	72727563          	bgeu	tp,t2,80008a4c <illegal_insn_trap_table+0xb10>
    80008326:	6e65                	lui	t3,0x19
    80008328:	2e74                	fld	fa3,216(a2)
    8000832a:	7262                	ld	tp,56(sp)
    8000832c:	6e202c6b          	0x6e202c6b
    80008330:	7765                	lui	a4,0xffff9
    80008332:	7262                	ld	tp,56(sp)
    80008334:	61705f6b          	0x61705f6b
    80008338:	2d206567          	0x2d206567
    8000833c:	6320                	ld	s0,64(a4)
    8000833e:	7275                	lui	tp,0xffffd
    80008340:	6572                	ld	a0,280(sp)
    80008342:	746e                	ld	s0,248(sp)
    80008344:	622e                	ld	tp,200(sp)
    80008346:	6b72                	ld	s6,280(sp)
    80008348:	202c                	fld	fa1,64(s0)
    8000834a:	312d                	addiw	sp,sp,-21
    8000834c:	202c                	fld	fa1,64(s0)
    8000834e:	414d                	li	sp,19
    80008350:	5f50                	lw	a2,60(a4)
    80008352:	4946                	lw	s2,80(sp)
    80008354:	4558                	lw	a4,12(a0)
    80008356:	7c44                	ld	s1,184(s0)
    80008358:	414d                	li	sp,19
    8000835a:	5f50                	lw	a2,60(a4)
    8000835c:	5250                	lw	a2,36(a2)
    8000835e:	5649                	li	a2,-14
    80008360:	5441                	li	s0,-16
    80008362:	7c45                	lui	s8,0xffff1
    80008364:	414d                	li	sp,19
    80008366:	5f50                	lw	a2,60(a4)
    80008368:	4e41                	li	t3,16
    8000836a:	4d594e4f          	0x4d594e4f
    8000836e:	2c53554f          	0x2c53554f
    80008372:	3020                	fld	fs0,96(s0)
    80008374:	202c                	fld	fa1,64(s0)
    80008376:	2930                	fld	fa2,80(a0)
    80008378:	3d20                	fld	fs0,120(a0)
    8000837a:	203d                	0x203d
    8000837c:	72727563          	bgeu	tp,t2,80008aa6 <illegal_insn_trap_table+0xb6a>
    80008380:	6e65                	lui	t3,0x19
    80008382:	2e74                	fld	fa3,216(a2)
    80008384:	7262                	ld	tp,56(sp)
    80008386:	7473006b          	0x7473006b
    8000838a:	6361                	lui	t1,0x18
    8000838c:	6f625f6b          	0x6f625f6b
    80008390:	7474                	ld	a3,232(s0)
    80008392:	21206d6f          	jal	s10,8000e5a4 <hash_list+0x2154>
    80008396:	203d                	0x203d
    80008398:	7528                	ld	a0,104(a0)
    8000839a:	6e69                	lui	t3,0x1a
    8000839c:	7074                	ld	a3,224(s0)
    8000839e:	7274                	ld	a3,224(a2)
    800083a0:	745f 2d29 0031      	0x312d29745f
    800083a6:	0000                	unimp
    800083a8:	5f5f 6f64 6d5f      	0x6d5f6f645f5f
    800083ae:	616d                	addi	sp,sp,240
    800083b0:	5f70                	lw	a2,124(a4)
    800083b2:	7375                	lui	t1,0xffffd
    800083b4:	7265                	lui	tp,0xffff9
    800083b6:	000a                	c.slli	zero,0x2
    800083b8:	5f5f 6168 646e      	0x646e61685f5f
    800083be:	656c                	ld	a1,200(a0)
    800083c0:	705f 6761 5f65      	0x5f656761705f
    800083c6:	6166                	ld	sp,88(sp)
    800083c8:	6c75                	lui	s8,0x1d
    800083ca:	5f74                	lw	a3,124(a4)
    800083cc:	7375                	lui	t1,0xffffd
    800083ce:	7265                	lui	tp,0xffff9
    800083d0:	6128                	ld	a0,64(a0)
    800083d2:	202c                	fld	fa1,64(s0)
    800083d4:	7270                	ld	a2,224(a2)
    800083d6:	702c746f          	jal	s0,800cfad8 <_end+0xb5ad8>
    800083da:	6761                	lui	a4,0x18
    800083dc:	7465                	lui	s0,0xffff9
    800083de:	6261                	lui	tp,0x18
    800083e0:	656c                	ld	a1,200(a0)
    800083e2:	2029                	0x2029
    800083e4:	3d3d                	addiw	s10,s10,-17
    800083e6:	3020                	fld	fs0,96(s0)
	...
    800083f0:	2020                	fld	fs0,64(s0)
    800083f2:	6d76                	ld	s10,344(sp)
    800083f4:	0020                	addi	s0,sp,8
    800083f6:	0000                	unimp
    800083f8:	2e2e                	fld	ft8,200(sp)
    800083fa:	0020                	addi	s0,sp,8
    800083fc:	0000                	unimp
    800083fe:	0000                	unimp
    80008400:	2e2e                	fld	ft8,200(sp)
    80008402:	0000                	unimp
    80008404:	0000                	unimp
    80008406:	0000                	unimp
    80008408:	2520                	fld	fs0,72(a0)
    8000840a:	3a64                	fld	fs1,240(a2)
    8000840c:	7020                	ld	s0,96(s0)
    8000840e:	6574                	ld	a3,200(a0)
    80008410:	2520                	fld	fs0,72(a0)
    80008412:	2070                	fld	fa2,192(s0)
    80008414:	6170                	ld	a2,192(a0)
    80008416:	2520                	fld	fs0,72(a0)
    80008418:	0a70                	addi	a2,sp,284
    8000841a:	0000                	unimp
    8000841c:	0000                	unimp
    8000841e:	0000                	unimp
    80008420:	6176                	ld	sp,344(sp)
    80008422:	2520                	fld	fs0,72(a0)
    80008424:	2070                	fld	fa2,192(s0)
    80008426:	0000                	unimp
    80008428:	6425                	lui	s0,0x9
    8000842a:	203a                	fld	ft0,392(sp)
    8000842c:	7470                	ld	a2,232(s0)
    8000842e:	2065                	0x2065
    80008430:	7025                	c.lui	zero,0xfffe9
    80008432:	7020                	ld	s0,96(s0)
    80008434:	2061                	0x2061
    80008436:	7025                	c.lui	zero,0xfffe9
    80008438:	000a                	c.slli	zero,0x2
    8000843a:	0000                	unimp
    8000843c:	0000                	unimp
    8000843e:	0000                	unimp
    80008440:	2020                	fld	fs0,64(s0)
    80008442:	6d76                	ld	s10,344(sp)
    80008444:	7020                	ld	s0,96(s0)
    80008446:	6761                	lui	a4,0x18
    80008448:	2065                	0x2065
    8000844a:	6174                	ld	a3,192(a0)
    8000844c:	6c62                	ld	s8,24(sp)
    8000844e:	2065                	0x2065
    80008450:	7025                	c.lui	zero,0xfffe9
    80008452:	000a                	c.slli	zero,0x2
    80008454:	0000                	unimp
    80008456:	0000                	unimp
    80008458:	6170                	ld	a2,192(a0)
    8000845a:	25206567          	0x25206567
    8000845e:	2070                	fld	fa2,192(s0)
    80008460:	7461                	lui	s0,0xffff8
    80008462:	6f20                	ld	s0,88(a4)
    80008464:	6666                	ld	a2,88(sp)
    80008466:	20746573          	csrrsi	a0,0x207,8
    8000846a:	7825                	lui	a6,0xfffe9
    8000846c:	7620                	ld	s0,104(a2)
    8000846e:	6c61                	lui	s8,0x18
    80008470:	6575                	lui	a0,0x1d
    80008472:	2520                	fld	fs0,72(a0)
    80008474:	0a70                	addi	a2,sp,284
    80008476:	0000                	unimp
    80008478:	5250                	lw	a2,36(a2)
    8000847a:	525f544f          	fnmadd.d	fs0,ft10,ft5,fa0,unknown
    8000847e:	4145                	li	sp,17
    80008480:	2044                	fld	fs1,128(s0)
    80008482:	0000                	unimp
    80008484:	0000                	unimp
    80008486:	0000                	unimp
    80008488:	5250                	lw	a2,36(a2)
    8000848a:	575f544f          	fnmadd.q	fs0,ft10,fs5,fa0,unknown
    8000848e:	4952                	lw	s2,20(sp)
    80008490:	4554                	lw	a3,12(a0)
    80008492:	0020                	addi	s0,sp,8
    80008494:	0000                	unimp
    80008496:	0000                	unimp
    80008498:	5250                	lw	a2,36(a2)
    8000849a:	455f544f          	0x455f544f
    8000849e:	4558                	lw	a4,12(a0)
    800084a0:	00002043          	fmadd.s	ft0,ft0,ft0,ft0,rdn
    800084a4:	0000                	unimp
    800084a6:	0000                	unimp
    800084a8:	7028                	ld	a0,96(s0)
    800084aa:	2030                	fld	fa2,64(s0)
    800084ac:	203d                	0x203d
    800084ae:	6c61                	lui	s8,0x18
    800084b0:	6f6c                	ld	a1,216(a4)
    800084b2:	61705f63          	blez	s7,80008ad0 <illegal_insn_trap_table+0xb94>
    800084b6:	29286567          	0x29286567
    800084ba:	2029                	0x2029
    800084bc:	3d21                	addiw	s10,s10,-24
    800084be:	4e20                	lw	s0,88(a2)
    800084c0:	4c55                	li	s8,21
    800084c2:	004c                	addi	a1,sp,4
    800084c4:	0000                	unimp
    800084c6:	0000                	unimp
    800084c8:	2f2e                	fld	ft10,200(sp)
    800084ca:	6b70                	ld	a2,208(a4)
    800084cc:	6d6d702f          	0x6d6d702f
    800084d0:	632e                	ld	t1,200(sp)
    800084d2:	0000                	unimp
    800084d4:	0000                	unimp
    800084d6:	0000                	unimp
    800084d8:	7028                	ld	a0,96(s0)
    800084da:	2031                	0x2031
    800084dc:	203d                	0x203d
    800084de:	6c61                	lui	s8,0x18
    800084e0:	6f6c                	ld	a1,216(a4)
    800084e2:	61705f63          	blez	s7,80008b00 <illegal_insn_trap_table+0xbc4>
    800084e6:	29286567          	0x29286567
    800084ea:	2029                	0x2029
    800084ec:	3d21                	addiw	s10,s10,-24
    800084ee:	4e20                	lw	s0,88(a2)
    800084f0:	4c55                	li	s8,21
    800084f2:	004c                	addi	a1,sp,4
    800084f4:	0000                	unimp
    800084f6:	0000                	unimp
    800084f8:	7028                	ld	a0,96(s0)
    800084fa:	2032                	fld	ft0,264(sp)
    800084fc:	203d                	0x203d
    800084fe:	6c61                	lui	s8,0x18
    80008500:	6f6c                	ld	a1,216(a4)
    80008502:	61705f63          	blez	s7,80008b20 <illegal_insn_trap_table+0xbe4>
    80008506:	29286567          	0x29286567
    8000850a:	2029                	0x2029
    8000850c:	3d21                	addiw	s10,s10,-24
    8000850e:	4e20                	lw	s0,88(a2)
    80008510:	4c55                	li	s8,21
    80008512:	004c                	addi	a1,sp,4
    80008514:	0000                	unimp
    80008516:	0000                	unimp
    80008518:	3070                	fld	fa2,224(s0)
    8000851a:	2120                	fld	fs0,64(a0)
    8000851c:	203d                	0x203d
    8000851e:	3170                	fld	fa2,224(a0)
    80008520:	2620                	fld	fs0,72(a2)
    80008522:	2026                	fld	ft0,72(sp)
    80008524:	3070                	fld	fa2,224(s0)
    80008526:	2120                	fld	fs0,64(a0)
    80008528:	203d                	0x203d
    8000852a:	3270                	fld	fa2,224(a2)
    8000852c:	2620                	fld	fs0,72(a2)
    8000852e:	2026                	fld	ft0,72(sp)
    80008530:	3170                	fld	fa2,224(a0)
    80008532:	2120                	fld	fs0,64(a0)
    80008534:	203d                	0x203d
    80008536:	3270                	fld	fa2,224(a2)
	...
    80008540:	3070                	fld	fa2,224(s0)
    80008542:	3e2d                	addiw	t3,t3,-21
    80008544:	6572                	ld	a0,280(sp)
    80008546:	2066                	fld	ft0,88(sp)
    80008548:	3d3d                	addiw	s10,s10,-17
    8000854a:	3020                	fld	fs0,96(s0)
    8000854c:	2620                	fld	fs0,72(a2)
    8000854e:	2026                	fld	ft0,72(sp)
    80008550:	3170                	fld	fa2,224(a0)
    80008552:	3e2d                	addiw	t3,t3,-21
    80008554:	6572                	ld	a0,280(sp)
    80008556:	2066                	fld	ft0,88(sp)
    80008558:	3d3d                	addiw	s10,s10,-17
    8000855a:	3020                	fld	fs0,96(s0)
    8000855c:	2620                	fld	fs0,72(a2)
    8000855e:	2026                	fld	ft0,72(sp)
    80008560:	3270                	fld	fa2,224(a2)
    80008562:	3e2d                	addiw	t3,t3,-21
    80008564:	6572                	ld	a0,280(sp)
    80008566:	2066                	fld	ft0,88(sp)
    80008568:	3d3d                	addiw	s10,s10,-17
    8000856a:	3020                	fld	fs0,96(s0)
    8000856c:	0000                	unimp
    8000856e:	0000                	unimp
    80008570:	726e                	ld	tp,248(sp)
    80008572:	665f 6572 2065      	0x20656572665f
    80008578:	3d3d                	addiw	s10,s10,-17
    8000857a:	3320                	fld	fs0,96(a4)
    8000857c:	0000                	unimp
    8000857e:	0000                	unimp
    80008580:	6c61                	lui	s8,0x18
    80008582:	6f6c                	ld	a1,216(a4)
    80008584:	61705f63          	blez	s7,80008ba2 <illegal_insn_trap_table+0xc66>
    80008588:	29286567          	0x29286567
    8000858c:	3d20                	fld	fs0,120(a0)
    8000858e:	203d                	0x203d
    80008590:	554e                	lw	a0,240(sp)
    80008592:	4c4c                	lw	a1,28(s0)
    80008594:	0000                	unimp
    80008596:	0000                	unimp
    80008598:	6c21                	lui	s8,0x8
    8000859a:	7369                	lui	t1,0xffffa
    8000859c:	5f74                	lw	a3,124(a4)
    8000859e:	6d65                	lui	s10,0x19
    800085a0:	7470                	ld	a2,232(s0)
    800085a2:	2879                	addiw	a6,a6,30
    800085a4:	6626                	ld	a2,72(sp)
    800085a6:	6572                	ld	a0,280(sp)
    800085a8:	5f65                	li	t5,-7
    800085aa:	696c                	ld	a1,208(a0)
    800085ac:	00297473          	csrrci	s0,frm,18
    800085b0:	7028                	ld	a0,96(s0)
    800085b2:	3d20                	fld	fs0,120(a0)
    800085b4:	6120                	ld	s0,64(a0)
    800085b6:	6c6c                	ld	a1,216(s0)
    800085b8:	705f636f          	jal	t1,800ff4bc <_end+0xe54bc>
    800085bc:	6761                	lui	a4,0x18
    800085be:	2865                	addiw	a6,a6,25
    800085c0:	2929                	addiw	s2,s2,10
    800085c2:	3d20                	fld	fs0,120(a0)
    800085c4:	203d                	0x203d
    800085c6:	3070                	fld	fa2,224(s0)
	...
    800085d0:	726e                	ld	tp,248(sp)
    800085d2:	665f 6572 2065      	0x20656572665f
    800085d8:	3d3d                	addiw	s10,s10,-17
    800085da:	3020                	fld	fs0,96(s0)
    800085dc:	0000                	unimp
    800085de:	0000                	unimp
    800085e0:	6564                	ld	s1,200(a0)
    800085e2:	6166                	ld	sp,88(sp)
    800085e4:	6c75                	lui	s8,0x1d
    800085e6:	5f74                	lw	a3,124(a4)
    800085e8:	6d70                	ld	a2,216(a0)
    800085ea:	5f6d                	li	t5,-5
    800085ec:	616d                	addi	sp,sp,240
    800085ee:	616e                	ld	sp,216(sp)
    800085f0:	00726567          	0x726567
    800085f4:	0000                	unimp
    800085f6:	0000                	unimp
    800085f8:	72727563          	bgeu	tp,t2,80008d22 <illegal_insn_trap_table+0xde6>
    800085fc:	6e65                	lui	t3,0x19
    800085fe:	7074                	ld	a3,224(s0)
    80008600:	6f72                	ld	t5,280(sp)
    80008602:	773e2d63          	0x773e2d63
    80008606:	6961                	lui	s2,0x18
    80008608:	5f74                	lw	a3,124(a4)
    8000860a:	74617473          	csrrci	s0,0x746,2
    8000860e:	2065                	0x2065
    80008610:	3d3d                	addiw	s10,s10,-17
    80008612:	3020                	fld	fs0,96(s0)
    80008614:	0000                	unimp
    80008616:	0000                	unimp
    80008618:	2f2e                	fld	ft10,200(sp)
    8000861a:	6b70                	ld	a2,208(a4)
    8000861c:	6f72702f          	0x6f72702f
    80008620:	00632e63          	0x632e63
    80008624:	0000                	unimp
    80008626:	0000                	unimp
    80008628:	75746573          	csrrsi	a0,0x757,8
    8000862c:	5f70                	lw	a2,124(a4)
    8000862e:	6174736b          	0x6174736b
    80008632:	66206b63          	bltu	zero,sp,80008ca8 <illegal_insn_trap_table+0xd6c>
    80008636:	6c61                	lui	s8,0x18
    80008638:	0a69                	addi	s4,s4,26
    8000863a:	0000                	unimp
    8000863c:	0000                	unimp
    8000863e:	0000                	unimp
    80008640:	6e6e6163          	bltu	t3,t1,80008d22 <illegal_insn_trap_table+0xde6>
    80008644:	6120746f          	jal	s0,8000fc56 <hash_list+0x3806>
    80008648:	6c6c                	ld	a1,216(s0)
    8000864a:	6920636f          	jal	t1,8000ecdc <hash_list+0x288c>
    8000864e:	6c64                	ld	s1,216(s0)
    80008650:	7065                	c.lui	zero,0xffff9
    80008652:	6f72                	ld	t5,280(sp)
    80008654:	0a0a2e63          	0xa0a2e63
	...
    80008660:	6469                	lui	s0,0x1a
    80008662:	656c                	ld	a1,200(a0)
    80008664:	0000                	unimp
    80008666:	0000                	unimp
    80008668:	6f6c                	ld	a1,216(a4)
    8000866a:	70203a67          	0x70203a67
    8000866e:	6f72                	ld	t5,280(sp)
    80008670:	6e692063          	0x6e692063
    80008674:	7469                	lui	s0,0xffffa
    80008676:	0a20                	addi	s0,sp,280
	...
    80008680:	6469                	lui	s0,0x1a
    80008682:	656c                	ld	a1,200(a0)
    80008684:	7270                	ld	a2,224(a2)
    80008686:	6520636f          	jal	t1,8000ecd8 <hash_list+0x2888>
    8000868a:	6978                	ld	a4,208(a0)
    8000868c:	2e74                	fld	fa3,216(a2)
    8000868e:	0a0a                	slli	s4,s4,0x2
	...
    80008698:	6e69                	lui	t3,0x1a
    8000869a:	7469                	lui	s0,0xffffa
    8000869c:	7270                	ld	a2,224(a2)
    8000869e:	6520636f          	jal	t1,8000ecf0 <hash_list+0x28a0>
    800086a2:	6978                	ld	a4,208(a0)
    800086a4:	2e74                	fld	fa3,216(a2)
    800086a6:	0a0a                	slli	s4,s4,0x2
	...
    800086b0:	6f64                	ld	s1,216(a4)
    800086b2:	655f 6978 2074      	0x20746978655f
    800086b8:	6c6c6977          	0x6c6c6977
    800086bc:	6e20                	ld	s0,88(a2)
    800086be:	7220746f          	jal	s0,8000fde0 <hash_list+0x3990>
    800086c2:	7465                	lui	s0,0xffff9
    800086c4:	7275                	lui	tp,0xffffd
    800086c6:	216e                	fld	ft2,216(sp)
    800086c8:	2021                	0x2021
    800086ca:	6425                	lui	s0,0x9
    800086cc:	0a2e                	slli	s4,s4,0xb
    800086ce:	000a                	c.slli	zero,0x2
    800086d0:	696c                	ld	a1,208(a0)
    800086d2:	655f7473          	csrrci	s0,0x655,30
    800086d6:	706d                	c.lui	zero,0xffffb
    800086d8:	7974                	ld	a3,240(a0)
    800086da:	2628                	fld	fa0,72(a2)
    800086dc:	7028                	ld	a0,96(s0)
    800086de:	6f72                	ld	t5,280(sp)
    800086e0:	723e2d63          	0x723e2d63
    800086e4:	6e75                	lui	t3,0x1d
    800086e6:	6c5f 6e69 296b      	0x296b6e696c5f
    800086ec:	0029                	c.nop	10
    800086ee:	0000                	unimp
    800086f0:	2f2e                	fld	ft10,200(sp)
    800086f2:	6b70                	ld	a2,208(a4)
    800086f4:	6863732f          	0x6863732f
    800086f8:	6465                	lui	s0,0x19
    800086fa:	632e                	ld	t1,200(sp)
    800086fc:	0000                	unimp
    800086fe:	0000                	unimp
    80008700:	20746573          	csrrsi	a0,0x207,8
    80008704:	7075                	c.lui	zero,0xffffd
    80008706:	7420                	ld	s0,104(s0)
    80008708:	6d69                	lui	s10,0x1a
    8000870a:	656d                	lui	a0,0x1b
    8000870c:	0a72                	slli	s4,s4,0x1c
    8000870e:	0000                	unimp
    80008710:	73202b2b          	0x73202b2b
    80008714:	7465                	lui	s0,0xffff9
    80008716:	7075                	c.lui	zero,0xffffd
    80008718:	7420                	ld	s0,104(s0)
    8000871a:	6d69                	lui	s10,0x1a
    8000871c:	7265                	lui	tp,0xffff9
    8000871e:	6920                	ld	s0,80(a0)
    80008720:	746e                	ld	s0,248(sp)
    80008722:	7265                	lui	tp,0xffff9
    80008724:	7572                	ld	a0,312(sp)
    80008726:	7470                	ld	a2,232(s0)
    80008728:	00000a73          	0xa73
    8000872c:	0000                	unimp
    8000872e:	0000                	unimp
    80008730:	65686373          	csrrsi	t1,0x656,16
    80008734:	2064                	fld	fs1,192(s0)
    80008736:	73616c63          	bltu	sp,s6,80008e6e <illegal_insn_trap_table+0xf32>
    8000873a:	25203a73          	csrrc	s4,0x252,zero
    8000873e:	00000a73          	0xa73
    80008742:	0000                	unimp
    80008744:	0000                	unimp
    80008746:	0000                	unimp
    80008748:	7270                	ld	a2,224(a2)
    8000874a:	3e2d636f          	jal	t1,800deb2c <_end+0xc4b2c>
    8000874e:	74617473          	csrrci	s0,0x746,2
    80008752:	2065                	0x2065
    80008754:	3d21                	addiw	s10,s10,-24
    80008756:	5020                	lw	s0,96(s0)
    80008758:	4f52                	lw	t5,20(sp)
    8000875a:	4f5a5f43          	fmadd.q	ft10,fs4,fs5,fs1,unknown
    8000875e:	424d                	li	tp,19
    80008760:	4549                	li	a0,18
    80008762:	0000                	unimp
    80008764:	0000                	unimp
    80008766:	0000                	unimp
    80008768:	656b6177          	0x656b6177
    8000876c:	7075                	c.lui	zero,0xffffd
    8000876e:	7220                	ld	s0,96(a2)
    80008770:	6e75                	lui	t3,0x1d
    80008772:	616e                	ld	sp,216(sp)
    80008774:	6c62                	ld	s8,24(sp)
    80008776:	2065                	0x2065
    80008778:	7270                	ld	a2,224(a2)
    8000877a:	7365636f          	jal	t1,8005eeb0 <_end+0x44eb0>
    8000877e:	000a2e73          	csrrs	t3,ustatus,s4
    80008782:	0000                	unimp
    80008784:	0000                	unimp
    80008786:	0000                	unimp
    80008788:	5f35                	li	t5,-19
    8000878a:	2032                	fld	ft0,264(sp)
    8000878c:	7572                	ld	a0,312(sp)
    8000878e:	5f6e                	lw	t5,248(sp)
    80008790:	6974                	ld	a3,208(a0)
    80008792:	656d                	lui	a0,0x1b
    80008794:	5f72                	lw	t5,60(sp)
    80008796:	696c                	ld	a1,208(a0)
    80008798:	31207473          	csrrci	s0,0x312,0
    8000879c:	000a                	c.slli	zero,0x2
    8000879e:	0000                	unimp
    800087a0:	6e69                	lui	t3,0x1a
    800087a2:	7420                	ld	s0,104(s0)
    800087a4:	6d69                	lui	s10,0x1a
    800087a6:	7265                	lui	tp,0xffff9
    800087a8:	7320                	ld	s0,96(a4)
    800087aa:	64656863          	bltu	a0,t1,80008dfa <illegal_insn_trap_table+0xebe>
    800087ae:	6c75                	lui	s8,0x1d
    800087b0:	7265                	lui	tp,0xffff9
    800087b2:	0000                	unimp
    800087b4:	0000                	unimp
    800087b6:	0000                	unimp
    800087b8:	6974                	ld	a3,208(a0)
    800087ba:	656d                	lui	a0,0x1b
    800087bc:	2d72                	fld	fs10,280(sp)
    800087be:	653e                	ld	a0,456(sp)
    800087c0:	7078                	ld	a4,224(s0)
    800087c2:	7269                	lui	tp,0xffffa
    800087c4:	7365                	lui	t1,0xffff9
    800087c6:	2120                	fld	fs0,64(a0)
    800087c8:	203d                	0x203d
    800087ca:	0030                	addi	a2,sp,8
    800087cc:	0000                	unimp
    800087ce:	0000                	unimp
    800087d0:	7270                	ld	a2,224(a2)
    800087d2:	3e2d636f          	jal	t1,800debb4 <_end+0xc4bb4>
    800087d6:	74696177          	0x74696177
    800087da:	735f 6174 6574      	0x65746174735f
    800087e0:	2620                	fld	fs0,72(a2)
    800087e2:	5720                	lw	s0,104(a4)
    800087e4:	5f54                	lw	a3,60(a4)
    800087e6:	4e49                	li	t3,18
    800087e8:	4554                	lw	a3,12(a0)
    800087ea:	5252                	lw	tp,52(sp)
    800087ec:	5055                	c.li	zero,-11
    800087ee:	4554                	lw	a3,12(a0)
    800087f0:	0044                	addi	s1,sp,4
    800087f2:	0000                	unimp
    800087f4:	0000                	unimp
    800087f6:	0000                	unimp
    800087f8:	7270                	ld	a2,224(a2)
    800087fa:	7365636f          	jal	t1,8005ef30 <_end+0x44f30>
    800087fe:	64252073          	csrs	0x642,a0
    80008802:	77207327          	0x77207327
    80008806:	6961                	lui	s2,0x18
    80008808:	5f74                	lw	a3,124(a4)
    8000880a:	74617473          	csrrci	s0,0x746,2
    8000880e:	2065                	0x2065
    80008810:	3d3d                	addiw	s10,s10,-17
    80008812:	3020                	fld	fs0,96(s0)
    80008814:	0a2e                	slli	s4,s4,0xb
    80008816:	0000                	unimp
    80008818:	5252                	lw	tp,52(sp)
    8000881a:	735f 6863 6465      	0x64656863735f
    80008820:	6c75                	lui	s8,0x1d
    80008822:	7265                	lui	tp,0xffff9
    80008824:	0000                	unimp
    80008826:	0000                	unimp
    80008828:	74696177          	0x74696177
    8000882c:	3e2d                	addiw	t3,t3,-21
    8000882e:	7270                	ld	a2,224(a2)
    80008830:	3e2d636f          	jal	t1,800dec12 <_end+0xc4c12>
    80008834:	74696177          	0x74696177
    80008838:	735f 6174 6574      	0x65746174735f
    8000883e:	3d20                	fld	fs0,120(a0)
    80008840:	203d                	0x203d
    80008842:	74696177          	0x74696177
    80008846:	735f 6174 6574      	0x65746174735f
    8000884c:	0000                	unimp
    8000884e:	0000                	unimp
    80008850:	6c66                	ld	s8,88(sp)
    80008852:	6761                	lui	a4,0x18
    80008854:	3d3d2073          	csrs	0x3d3,s10
    80008858:	3020                	fld	fs0,96(s0)
    8000885a:	0000                	unimp
    8000885c:	0000                	unimp
    8000885e:	0000                	unimp
    80008860:	5f35                	li	t5,-19
    80008862:	2032                	fld	ft0,264(sp)
    80008864:	6c61                	lui	s8,0x18
    80008866:	6f6c                	ld	a1,216(a4)
    80008868:	65732063          	0x65732063
    8000886c:	616d                	addi	sp,sp,240
    8000886e:	7620                	ld	s0,104(a2)
    80008870:	2061                	0x2061
    80008872:	7025                	c.lui	zero,0xfffe9
    80008874:	7020                	ld	s0,96(s0)
    80008876:	2061                	0x2061
    80008878:	7025                	c.lui	zero,0xfffe9
    8000887a:	2020                	fld	fs0,64(s0)
    8000887c:	6176                	ld	sp,344(sp)
    8000887e:	756c                	ld	a1,232(a0)
    80008880:	2065                	0x2065
    80008882:	6425                	lui	s0,0x9
    80008884:	0a20                	addi	s0,sp,280
    80008886:	0000                	unimp
    80008888:	6f6e                	ld	t5,216(sp)
    8000888a:	7320                	ld	s0,96(a4)
    8000888c:	6d65                	lui	s10,0x19
    8000888e:	2061                	0x2061
    80008890:	6c61                	lui	s8,0x18
    80008892:	6f6c                	ld	a1,216(a4)
    80008894:	000a0a63          	beqz	s4,800088a8 <illegal_insn_trap_table+0x96c>
    80008898:	696c                	ld	a1,208(a0)
    8000889a:	655f7473          	csrrci	s0,0x655,30
    8000889e:	706d                	c.lui	zero,0xffffb
    800088a0:	7974                	ld	a3,240(a0)
    800088a2:	2628                	fld	fa0,72(a2)
    800088a4:	7728                	ld	a0,104(a4)
    800088a6:	6961                	lui	s2,0x18
    800088a8:	2d74                	fld	fa3,216(a0)
    800088aa:	773e                	ld	a4,488(sp)
    800088ac:	6961                	lui	s2,0x18
    800088ae:	5f74                	lw	a3,124(a4)
    800088b0:	696c                	ld	a1,208(a0)
    800088b2:	6b6e                	ld	s6,216(sp)
    800088b4:	2929                	addiw	s2,s2,10
    800088b6:	2620                	fld	fs0,72(a2)
    800088b8:	2026                	fld	ft0,72(sp)
    800088ba:	74696177          	0x74696177
    800088be:	3e2d                	addiw	t3,t3,-21
    800088c0:	7270                	ld	a2,224(a2)
    800088c2:	2120636f          	jal	t1,8000ead4 <hash_list+0x2684>
    800088c6:	203d                	0x203d
    800088c8:	554e                	lw	a0,240(sp)
    800088ca:	4c4c                	lw	a1,28(s0)
    800088cc:	0000                	unimp
    800088ce:	0000                	unimp
    800088d0:	6c21                	lui	s8,0x8
    800088d2:	7369                	lui	t1,0xffffa
    800088d4:	5f74                	lw	a3,124(a4)
    800088d6:	6d65                	lui	s10,0x19
    800088d8:	7470                	ld	a2,232(s0)
    800088da:	2879                	addiw	a6,a6,30
    800088dc:	2826                	fld	fa6,72(sp)
    800088de:	74696177          	0x74696177
    800088e2:	3e2d                	addiw	t3,t3,-21
    800088e4:	74696177          	0x74696177
    800088e8:	6c5f 6e69 296b      	0x296b6e696c5f
    800088ee:	2029                	0x2029
    800088f0:	2626                	fld	fa2,72(sp)
    800088f2:	7720                	ld	s0,104(a4)
    800088f4:	6961                	lui	s2,0x18
    800088f6:	2d74                	fld	fa3,216(a0)
    800088f8:	773e                	ld	a4,488(sp)
    800088fa:	6961                	lui	s2,0x18
    800088fc:	5f74                	lw	a3,124(a4)
    800088fe:	7571                	lui	a0,0xffffc
    80008900:	7565                	lui	a0,0xffff9
    80008902:	2065                	0x2065
    80008904:	3d3d                	addiw	s10,s10,-17
    80008906:	7120                	ld	s0,96(a0)
    80008908:	6575                	lui	a0,0x1d
    8000890a:	6575                	lui	a0,0x1d
    8000890c:	0000                	unimp
    8000890e:	0000                	unimp
    80008910:	72727563          	bgeu	tp,t2,8000903a <illegal_insn_trap_table+0x10fe>
    80008914:	6e65                	lui	t3,0x19
    80008916:	7074                	ld	a3,224(s0)
    80008918:	6f72                	ld	t5,280(sp)
    8000891a:	3d212063          	0x3d212063
    8000891e:	4e20                	lw	s0,88(a2)
    80008920:	4c55                	li	s8,21
    80008922:	004c                	addi	a1,sp,4
    80008924:	0000                	unimp
    80008926:	0000                	unimp
    80008928:	7242                	ld	tp,48(sp)
    8000892a:	6165                	addi	sp,sp,112
    8000892c:	696f706b          	0x696f706b
    80008930:	746e                	ld	s0,248(sp)
    80008932:	0a21                	addi	s4,s4,8
    80008934:	0000                	unimp
    80008936:	0000                	unimp
    80008938:	6e72654b          	fnmsub.q	fa0,ft4,ft7,fa3,unknown
    8000893c:	6c65                	lui	s8,0x19
    8000893e:	0000                	unimp
    80008940:	7355                	lui	t1,0xffff5
    80008942:	7265                	lui	tp,0xffff9
    80008944:	0000                	unimp
    80008946:	0000                	unimp
    80008948:	7325                	lui	t1,0xfffe9
    8000894a:	2520                	fld	fs0,72(a0)
    8000894c:	65732073          	csrs	0x657,t1
    80008950:	75616667          	0x75616667
    80008954:	746c                	ld	a1,232(s0)
    80008956:	4020                	lw	s0,64(s0)
    80008958:	2520                	fld	fs0,72(a0)
    8000895a:	0a70                	addi	a2,sp,284
    8000895c:	0000                	unimp
    8000895e:	0000                	unimp
    80008960:	726f7453          	0x726f7453
    80008964:	2f65                	addiw	t5,t5,25
    80008966:	4d41                	li	s10,16
    80008968:	6361204f          	fnmadd.d	ft0,ft2,fs6,fa2,rdn
    8000896c:	73736563          	bltu	t1,s7,80009096 <illegal_insn_trap_table+0x115a>
    80008970:	6620                	ld	s0,72(a2)
    80008972:	7561                	lui	a0,0xffff8
    80008974:	746c                	ld	a1,232(s0)
    80008976:	0a21                	addi	s4,s4,8
	...
    80008980:	694d                	lui	s2,0x13
    80008982:	696c6173          	csrrsi	sp,0x696,24
    80008986:	64656e67          	0x64656e67
    8000898a:	4120                	lw	s0,64(a0)
    8000898c:	4f4d                	li	t5,19
    8000898e:	0a21                	addi	s4,s4,8
	...
    80008998:	6f4c                	ld	a1,152(a4)
    8000899a:	6461                	lui	s0,0x18
    8000899c:	6120                	ld	s0,64(a0)
    8000899e:	73656363          	bltu	a0,s6,800090c4 <illegal_insn_trap_table+0x1188>
    800089a2:	61662073          	csrs	0x616,a2
    800089a6:	6c75                	lui	s8,0x1d
    800089a8:	2174                	fld	fa3,192(a0)
    800089aa:	000a                	c.slli	zero,0x2
    800089ac:	0000                	unimp
    800089ae:	0000                	unimp
    800089b0:	694d                	lui	s2,0x13
    800089b2:	696c6173          	csrrsi	sp,0x696,24
    800089b6:	64656e67          	0x64656e67
    800089ba:	4c20                	lw	s0,88(s0)
    800089bc:	2164616f          	jal	sp,8004ebd2 <_end+0x34bd2>
    800089c0:	000a                	c.slli	zero,0x2
    800089c2:	0000                	unimp
    800089c4:	0000                	unimp
    800089c6:	0000                	unimp
    800089c8:	6e41                	lui	t3,0x10
    800089ca:	6920                	ld	s0,80(a0)
    800089cc:	6c6c                	ld	a1,216(s0)
    800089ce:	6765                	lui	a4,0x19
    800089d0:	6c61                	lui	s8,0x18
    800089d2:	6920                	ld	s0,80(a0)
    800089d4:	736e                	ld	t1,248(sp)
    800089d6:	7274                	ld	a3,224(a2)
    800089d8:	6375                	lui	t1,0x1d
    800089da:	6974                	ld	a3,208(a0)
    800089dc:	77206e6f          	jal	t3,8000f14e <hash_list+0x2cfe>
    800089e0:	7361                	lui	t1,0xffff8
    800089e2:	6520                	ld	s0,72(a0)
    800089e4:	6578                	ld	a4,200(a0)
    800089e6:	65747563          	bgeu	s0,s7,80009030 <illegal_insn_trap_table+0x10f4>
    800089ea:	2164                	fld	fs1,192(a0)
    800089ec:	000a                	c.slli	zero,0x2
    800089ee:	0000                	unimp
    800089f0:	694d                	lui	s2,0x13
    800089f2:	696c6173          	csrrsi	sp,0x696,24
    800089f6:	64656e67          	0x64656e67
    800089fa:	6920                	ld	s0,80(a0)
    800089fc:	736e                	ld	t1,248(sp)
    800089fe:	7274                	ld	a3,224(a2)
    80008a00:	6375                	lui	t1,0x1d
    80008a02:	6974                	ld	a3,208(a0)
    80008a04:	61206e6f          	jal	t3,8000f016 <hash_list+0x2bc6>
    80008a08:	73656363          	bltu	a0,s6,8000912e <illegal_insn_trap_table+0x11f2>
    80008a0c:	000a2173          	csrrs	sp,ustatus,s4
    80008a10:	726f7473          	csrrci	s0,0x726,30
    80008a14:	0065                	c.nop	25
    80008a16:	0000                	unimp
    80008a18:	6f6c                	ld	a1,216(a4)
    80008a1a:	6461                	lui	s0,0x18
    80008a1c:	0000                	unimp
    80008a1e:	0000                	unimp
    80008a20:	6566                	ld	a0,88(sp)
    80008a22:	6374                	ld	a3,192(a4)
    80008a24:	0068                	addi	a0,sp,12
    80008a26:	0000                	unimp
    80008a28:	6e49                	lui	t3,0x12
    80008a2a:	75727473          	csrrci	s0,0x757,4
    80008a2e:	6f697463          	bgeu	s2,s6,80009116 <illegal_insn_trap_table+0x11da>
    80008a32:	206e                	fld	ft0,216(sp)
    80008a34:	6361                	lui	t1,0x18
    80008a36:	73736563          	bltu	t1,s7,80009160 <illegal_insn_trap_table+0x1224>
    80008a3a:	6620                	ld	s0,72(a2)
    80008a3c:	7561                	lui	a0,0xffff8
    80008a3e:	746c                	ld	a1,232(s0)
    80008a40:	0a21                	addi	s4,s4,8
    80008a42:	0000                	unimp
    80008a44:	0000                	unimp
    80008a46:	0000                	unimp
    80008a48:	2020                	fld	fs0,64(s0)
    80008a4a:	74617473          	csrrci	s0,0x746,2
    80008a4e:	7375                	lui	t1,0xffffd
    80008a50:	2020                	fld	fs0,64(s0)
    80008a52:	3020                	fld	fs0,96(s0)
    80008a54:	2578                	fld	fa4,200(a0)
    80008a56:	3830                	fld	fa2,112(s0)
    80008a58:	0a78                	addi	a4,sp,284
    80008a5a:	0000                	unimp
    80008a5c:	0000                	unimp
    80008a5e:	0000                	unimp
    80008a60:	2020                	fld	fs0,64(s0)
    80008a62:	7065                	c.lui	zero,0xffff9
    80008a64:	20202063          	0x20202063
    80008a68:	2020                	fld	fs0,64(s0)
    80008a6a:	3020                	fld	fs0,96(s0)
    80008a6c:	2578                	fld	fa4,200(a0)
    80008a6e:	3830                	fld	fa2,112(s0)
    80008a70:	0a78                	addi	a4,sp,284
    80008a72:	0000                	unimp
    80008a74:	0000                	unimp
    80008a76:	0000                	unimp
    80008a78:	2020                	fld	fs0,64(s0)
    80008a7a:	6162                	ld	sp,24(sp)
    80008a7c:	7664                	ld	s1,232(a2)
    80008a7e:	6461                	lui	s0,0x18
    80008a80:	7264                	ld	s1,224(a2)
    80008a82:	3020                	fld	fs0,96(s0)
    80008a84:	2578                	fld	fa4,200(a0)
    80008a86:	3830                	fld	fa2,112(s0)
    80008a88:	0a78                	addi	a4,sp,284
    80008a8a:	0000                	unimp
    80008a8c:	0000                	unimp
    80008a8e:	0000                	unimp
    80008a90:	2020                	fld	fs0,64(s0)
    80008a92:	73756163          	bltu	a0,s7,800091b4 <illegal_insn_trap_table+0x1278>
    80008a96:	2065                	0x2065
    80008a98:	2020                	fld	fs0,64(s0)
    80008a9a:	3020                	fld	fs0,96(s0)
    80008a9c:	2578                	fld	fa4,200(a0)
    80008a9e:	3830                	fld	fa2,112(s0)
    80008aa0:	0a78                	addi	a4,sp,284
    80008aa2:	0000                	unimp
    80008aa4:	0000                	unimp
    80008aa6:	0000                	unimp
    80008aa8:	6674                	ld	a3,200(a2)
    80008aaa:	3e2d                	addiw	t3,t3,-21
    80008aac:	73756163          	bltu	a0,s7,800091ce <illegal_insn_trap_table+0x1292>
    80008ab0:	2065                	0x2065
    80008ab2:	203c                	fld	fa5,64(s0)
    80008ab4:	5241                	li	tp,-16
    80008ab6:	4152                	lw	sp,20(sp)
    80008ab8:	5f59                	li	t5,-10
    80008aba:	455a4953          	0x455a4953
    80008abe:	7428                	ld	a0,104(s0)
    80008ac0:	6172                	ld	sp,280(sp)
    80008ac2:	5f70                	lw	a2,124(a4)
    80008ac4:	6168                	ld	a0,192(a0)
    80008ac6:	646e                	ld	s0,216(sp)
    80008ac8:	656c                	ld	a1,200(a0)
    80008aca:	7372                	ld	t1,312(sp)
    80008acc:	2029                	0x2029
    80008ace:	2626                	fld	fa2,72(sp)
    80008ad0:	7420                	ld	s0,104(s0)
    80008ad2:	6172                	ld	sp,280(sp)
    80008ad4:	5f70                	lw	a2,124(a4)
    80008ad6:	6168                	ld	a0,192(a0)
    80008ad8:	646e                	ld	s0,216(sp)
    80008ada:	656c                	ld	a1,200(a0)
    80008adc:	7372                	ld	t1,312(sp)
    80008ade:	2d66745b          	0x2d66745b
    80008ae2:	633e                	ld	t1,456(sp)
    80008ae4:	7561                	lui	a0,0xffff8
    80008ae6:	005d6573          	csrrsi	a0,utvec,26
    80008aea:	0000                	unimp
    80008aec:	0000                	unimp
    80008aee:	0000                	unimp
    80008af0:	6870                	ld	a2,208(s0)
    80008af2:	7379                	lui	t1,0xffffe
    80008af4:	6369                	lui	t1,0x1a
    80008af6:	6c61                	lui	s8,0x18
    80008af8:	6d20                	ld	s0,88(a0)
    80008afa:	6d65                	lui	s10,0x19
    80008afc:	735f 7a69 2065      	0x20657a69735f
    80008b02:	203d                	0x203d
    80008b04:	7830                	ld	a2,112(s0)
    80008b06:	7825                	lui	a6,0xfffe9
    80008b08:	000a                	c.slli	zero,0x2
    80008b0a:	0000                	unimp
    80008b0c:	0000                	unimp
    80008b0e:	0000                	unimp
    80008b10:	6e69                	lui	t3,0x1a
    80008b12:	7320                	ld	s0,96(a4)
    80008b14:	7379                	lui	t1,0xffffe
    80008b16:	7320                	ld	s0,96(a4)
    80008b18:	7574                	ld	a3,232(a0)
    80008b1a:	2062                	fld	ft0,24(sp)
    80008b1c:	63637573          	csrrci	a0,0x636,6
    80008b20:	7365                	lui	t1,0xffff9
    80008b22:	00000073          	ecall
    80008b26:	0000                	unimp
    80008b28:	6c25                	lui	s8,0x9
    80008b2a:	2064                	fld	fs1,192(s0)
    80008b2c:	6974                	ld	a3,208(a0)
    80008b2e:	0a736b63          	bltu	t1,t2,80008be4 <illegal_insn_trap_table+0xca8>
    80008b32:	0000                	unimp
    80008b34:	0000                	unimp
    80008b36:	0000                	unimp
    80008b38:	6c25                	lui	s8,0x9
    80008b3a:	2064                	fld	fs1,192(s0)
    80008b3c:	6c637963          	bgeu	t1,t1,8000920e <illegal_insn_trap_table+0x12d2>
    80008b40:	7365                	lui	t1,0xffff9
    80008b42:	000a                	c.slli	zero,0x2
    80008b44:	0000                	unimp
    80008b46:	0000                	unimp
    80008b48:	6c25                	lui	s8,0x9
    80008b4a:	2064                	fld	fs1,192(s0)
    80008b4c:	6e69                	lui	t3,0x1a
    80008b4e:	75727473          	csrrci	s0,0x757,4
    80008b52:	6f697463          	bgeu	s2,s6,8000923a <illegal_insn_trap_table+0x12fe>
    80008b56:	736e                	ld	t1,248(sp)
    80008b58:	000a                	c.slli	zero,0x2
    80008b5a:	0000                	unimp
    80008b5c:	0000                	unimp
    80008b5e:	0000                	unimp
    80008b60:	6425                	lui	s0,0x9
    80008b62:	252e                	fld	fa0,200(sp)
    80008b64:	2564                	fld	fs1,200(a0)
    80008b66:	2064                	fld	fs1,192(s0)
    80008b68:	0a495043          	fmadd.d	ft0,fs2,ft4,ft1,unknown
    80008b6c:	0000                	unimp
    80008b6e:	0000                	unimp
    80008b70:	7250                	ld	a2,160(a2)
    80008b72:	2079786f          	jal	a6,800a0578 <_end+0x86578>
    80008b76:	6e72654b          	fnmsub.q	fa0,ft4,ft7,fa3,unknown
    80008b7a:	6c65                	lui	s8,0x19
    80008b7c:	0000                	unimp
    80008b7e:	0000                	unimp
    80008b80:	2e34                	fld	fa3,88(a2)
    80008b82:	3531                	addiw	a0,a0,-20
    80008b84:	302e                	fld	ft0,232(sp)
    80008b86:	0000                	unimp
    80008b88:	6162                	ld	sp,24(sp)
    80008b8a:	2064                	fld	fs1,192(s0)
    80008b8c:	63737973          	csrrci	s2,0x637,6
    80008b90:	6c61                	lui	s8,0x18
    80008b92:	206c                	fld	fa1,192(s0)
    80008b94:	646c2523          	sw	t1,1610(s8) # 1864a <_ftext-0x7ffe79b6>
    80008b98:	0a21                	addi	s4,s4,8
    80008b9a:	0000                	unimp
    80008b9c:	0000                	unimp
    80008b9e:	0000                	unimp
    80008ba0:	6f50                	ld	a2,152(a4)
    80008ba2:	20726577          	0x20726577
    80008ba6:	0d66666f          	jal	a2,8006ec7c <_end+0x54c7c>
    80008baa:	000a                	c.slli	zero,0x2
    80008bac:	0000                	unimp
    80008bae:	0000                	unimp
    80008bb0:	2f2e                	fld	ft10,200(sp)
    80008bb2:	616d                	addi	sp,sp,240
    80008bb4:	6e696863          	bltu	s2,t1,800092a4 <illegal_insn_trap_table+0x1368>
    80008bb8:	2f65                	addiw	t5,t5,25
    80008bba:	746d                	lui	s0,0xffffb
    80008bbc:	6172                	ld	sp,280(sp)
    80008bbe:	2e70                	fld	fa2,216(a2)
    80008bc0:	00000063          	beqz	zero,80008bc0 <illegal_insn_trap_table+0xc84>
    80008bc4:	0000                	unimp
    80008bc6:	0000                	unimp
    80008bc8:	7325                	lui	t1,0xfffe9
    80008bca:	253a                	fld	fa0,392(sp)
    80008bcc:	3a64                	fld	fs1,240(a2)
    80008bce:	6d20                	ld	s0,88(a0)
    80008bd0:	6361                	lui	t1,0x18
    80008bd2:	6968                	ld	a0,208(a0)
    80008bd4:	656e                	ld	a0,216(sp)
    80008bd6:	6d20                	ld	s0,88(a0)
    80008bd8:	3a65646f          	jal	s0,8005ef7e <_end+0x44f7e>
    80008bdc:	7520                	ld	s0,104(a0)
    80008bde:	686e                	ld	a6,216(sp)
    80008be0:	6e61                	lui	t3,0x18
    80008be2:	6c64                	ld	s1,216(s0)
    80008be4:	6261                	lui	tp,0x18
    80008be6:	656c                	ld	a1,200(a0)
    80008be8:	7420                	ld	s0,104(s0)
    80008bea:	6172                	ld	sp,280(sp)
    80008bec:	2070                	fld	fa2,192(s0)
    80008bee:	6425                	lui	s0,0x9
    80008bf0:	4020                	lw	s0,64(s0)
    80008bf2:	2520                	fld	fs0,72(a0)
    80008bf4:	0a70                	addi	a2,sp,284
    80008bf6:	0000                	unimp
    80008bf8:	6572                	ld	a0,280(sp)
    80008bfa:	6461                	lui	s0,0x18
    80008bfc:	635f 7273 6d28      	0x6d287273635f
    80008c02:	6469                	lui	s0,0x1a
    80008c04:	6c65                	lui	s8,0x19
    80008c06:	6765                	lui	a4,0x19
    80008c08:	2029                	0x2029
    80008c0a:	3d3d                	addiw	s10,s10,-17
    80008c0c:	6920                	ld	s0,80(a0)
    80008c0e:	746e                	ld	s0,248(sp)
    80008c10:	7265                	lui	tp,0xffff9
    80008c12:	7572                	ld	a0,312(sp)
    80008c14:	7470                	ld	a2,232(s0)
    80008c16:	2f2e0073          	0x2f2e0073
    80008c1a:	616d                	addi	sp,sp,240
    80008c1c:	6e696863          	bltu	s2,t1,8000930c <illegal_insn_trap_table+0x13d0>
    80008c20:	2f65                	addiw	t5,t5,25
    80008c22:	696d                	lui	s2,0x1b
    80008c24:	696e                	ld	s2,216(sp)
    80008c26:	2e74                	fld	fa3,216(a2)
    80008c28:	00000063          	beqz	zero,80008c28 <illegal_insn_trap_table+0xcec>
    80008c2c:	0000                	unimp
    80008c2e:	0000                	unimp
    80008c30:	6572                	ld	a0,280(sp)
    80008c32:	6461                	lui	s0,0x18
    80008c34:	635f 7273 6d28      	0x6d287273635f
    80008c3a:	6465                	lui	s0,0x19
    80008c3c:	6c65                	lui	s8,0x19
    80008c3e:	6765                	lui	a4,0x19
    80008c40:	2029                	0x2029
    80008c42:	3d3d                	addiw	s10,s10,-17
    80008c44:	6520                	ld	s0,72(a0)
    80008c46:	6378                	ld	a4,192(a4)
    80008c48:	7065                	c.lui	zero,0xffff9
    80008c4a:	6974                	ld	a3,208(a0)
    80008c4c:	00736e6f          	jal	t3,8003f452 <_end+0x25452>
    80008c50:	4b50                	lw	a2,20(a4)
    80008c52:	2045                	0x2045
    80008c54:	5349                	li	t1,-14
    80008c56:	5220                	lw	s0,96(a2)
    80008c58:	4e55                	li	t3,21
    80008c5a:	494e                	lw	s2,208(sp)
    80008c5c:	474e                	lw	a4,208(sp)
    80008c5e:	0a0d                	addi	s4,s4,3
	...
    80008c68:	6f74                	ld	a3,216(a4)
    80008c6a:	6820                	ld	s0,80(s0)
    80008c6c:	2074736f          	jal	t1,80050672 <_end+0x36672>
    80008c70:	6425                	lui	s0,0x9
    80008c72:	000a                	c.slli	zero,0x2
    80008c74:	0000                	unimp
    80008c76:	0000                	unimp
    80008c78:	7266                	ld	tp,120(sp)
    80008c7a:	68206d6f          	jal	s10,8000f2fc <hash_list+0x2eac>
    80008c7e:	2074736f          	jal	t1,80050684 <_end+0x36684>
    80008c82:	6425                	lui	s0,0x9
    80008c84:	000a                	c.slli	zero,0x2
    80008c86:	0000                	unimp
    80008c88:	5246                	lw	tp,112(sp)
    80008c8a:	4f484d4f          	fnmadd.q	fs10,fa6,fs4,fs1,rmm
    80008c8e:	445f5453          	0x445f5453
    80008c92:	5645                	li	a2,-15
    80008c94:	6628                	ld	a0,72(a2)
    80008c96:	2968                	fld	fa0,208(a0)
    80008c98:	3d20                	fld	fs0,120(a0)
    80008c9a:	203d                	0x203d
    80008c9c:	0031                	c.nop	12
    80008c9e:	0000                	unimp
    80008ca0:	2f2e                	fld	ft10,200(sp)
    80008ca2:	616d                	addi	sp,sp,240
    80008ca4:	6e696863          	bltu	s2,t1,80009394 <illegal_insn_trap_table+0x1458>
    80008ca8:	2f65                	addiw	t5,t5,25
    80008caa:	7468                	ld	a0,232(s0)
    80008cac:	6669                	lui	a2,0x1a
    80008cae:	632e                	ld	t1,200(sp)
	...
    80008cb8:	706d6f63          	bltu	s10,t1,800093d6 <illegal_insn_trap_table+0x149a>
    80008cbc:	7461                	lui	s0,0xffff8
    80008cbe:	6269                	lui	tp,0x1a
    80008cc0:	656c                	ld	a1,200(a0)
    80008cc2:	0000                	unimp
    80008cc4:	0000                	unimp
    80008cc6:	0000                	unimp
    80008cc8:	6375                	lui	t1,0x1d
    80008cca:	2c62                	fld	fs8,24(sp)
    80008ccc:	7468                	ld	a0,232(s0)
    80008cce:	6669                	lui	a2,0x1a
    80008cd0:	0030                	addi	a2,sp,8
    80008cd2:	0000                	unimp
    80008cd4:	0000                	unimp
    80008cd6:	0000                	unimp
    80008cd8:	69666973          	csrrsi	s2,0x696,12
    80008cdc:	6576                	ld	a0,344(sp)
    80008cde:	752c                	ld	a1,104(a0)
    80008ce0:	7261                	lui	tp,0xffff8
    80008ce2:	3074                	fld	fa3,224(s0)
    80008ce4:	0000                	unimp
    80008ce6:	0000                	unimp
    80008ce8:	6572                	ld	a0,280(sp)
    80008cea:	00000067          	jr	zero # 0 <_ftext-0x80000000>
    80008cee:	0000                	unimp
    80008cf0:	736e                	ld	t1,248(sp)
    80008cf2:	3631                	addiw	a2,a2,-20
    80008cf4:	3535                	addiw	a0,a0,-19
    80008cf6:	6130                	ld	a2,64(a0)
	...
    80008d00:	69666973          	csrrsi	s2,0x696,12
    80008d04:	6576                	ld	a0,344(sp)
    80008d06:	742c                	ld	a1,104(s0)
    80008d08:	7365                	lui	t1,0xffff9
    80008d0a:	3074                	fld	fa3,224(s0)
    80008d0c:	0000                	unimp
    80008d0e:	0000                	unimp
    80008d10:	6e616373          	csrrsi	t1,0x6e6,2
    80008d14:	3e2d                	addiw	t3,t3,-21
    80008d16:	6572                	ld	a0,280(sp)
    80008d18:	3d212067          	0x3d212067
    80008d1c:	3020                	fld	fs0,96(s0)
    80008d1e:	0000                	unimp
    80008d20:	2f2e                	fld	ft10,200(sp)
    80008d22:	616d                	addi	sp,sp,240
    80008d24:	6e696863          	bltu	s2,t1,80009414 <illegal_insn_trap_table+0x14d8>
    80008d28:	2f65                	addiw	t5,t5,25
    80008d2a:	6466                	ld	s0,88(sp)
    80008d2c:	2e74                	fld	fa3,216(a2)
    80008d2e:	63730063          	beq	t1,s7,8000934e <illegal_insn_trap_table+0x1412>
    80008d32:	6e61                	lui	t3,0x18
    80008d34:	3e2d                	addiw	t3,t3,-21
    80008d36:	6e69                	lui	t3,0x1a
    80008d38:	5f74                	lw	a3,124(a4)
    80008d3a:	6176                	ld	sp,344(sp)
    80008d3c:	756c                	ld	a1,232(a0)
    80008d3e:	2065                	0x2065
    80008d40:	2626                	fld	fa2,72(sp)
    80008d42:	7320                	ld	s0,96(a4)
    80008d44:	2d6e6163          	bltu	t3,s6,80009006 <illegal_insn_trap_table+0x10ca>
    80008d48:	693e                	ld	s2,456(sp)
    80008d4a:	746e                	ld	s0,248(sp)
    80008d4c:	6c5f 6e65 2520      	0x25206e656c5f
    80008d52:	3120                	fld	fs0,96(a0)
    80008d54:	2036                	fld	ft0,328(sp)
    80008d56:	3d3d                	addiw	s10,s10,-17
    80008d58:	3020                	fld	fs0,96(s0)
    80008d5a:	0000                	unimp
    80008d5c:	0000                	unimp
    80008d5e:	0000                	unimp
    80008d60:	7321                	lui	t1,0xfffe8
    80008d62:	2d6e6163          	bltu	t3,s6,80009024 <illegal_insn_trap_table+0x10e8>
    80008d66:	643e                	ld	s0,456(sp)
    80008d68:	00656e6f          	jal	t3,8005ed6e <_end+0x44d6e>
    80008d6c:	0000                	unimp
    80008d6e:	0000                	unimp
    80008d70:	6e616373          	csrrsi	t1,0x6e6,2
    80008d74:	3e2d                	addiw	t3,t3,-21
    80008d76:	6e69                	lui	t3,0x1a
    80008d78:	5f74                	lw	a3,124(a4)
    80008d7a:	6176                	ld	sp,344(sp)
    80008d7c:	756c                	ld	a1,232(a0)
    80008d7e:	2065                	0x2065
    80008d80:	2626                	fld	fa2,72(sp)
    80008d82:	7320                	ld	s0,96(a4)
    80008d84:	2d6e6163          	bltu	t3,s6,80009046 <illegal_insn_trap_table+0x110a>
    80008d88:	693e                	ld	s2,456(sp)
    80008d8a:	746e                	ld	s0,248(sp)
    80008d8c:	6c5f 6e65 2520      	0x25206e656c5f
    80008d92:	3820                	fld	fs0,112(s0)
    80008d94:	3d20                	fld	fs0,120(a0)
    80008d96:	203d                	0x203d
    80008d98:	0030                	addi	a2,sp,8
    80008d9a:	0000                	unimp
    80008d9c:	0000                	unimp
    80008d9e:	0000                	unimp
    80008da0:	6e616373          	csrrsi	t1,0x6e6,2
    80008da4:	3e2d                	addiw	t3,t3,-21
    80008da6:	646e                	ld	s0,216(sp)
    80008da8:	7665                	lui	a2,0xffff9
    80008daa:	3e20                	fld	fs0,120(a2)
    80008dac:	203d                	0x203d
    80008dae:	2030                	fld	fa2,64(s0)
    80008db0:	2626                	fld	fa2,72(sp)
    80008db2:	7320                	ld	s0,96(a4)
    80008db4:	2d6e6163          	bltu	t3,s6,80009076 <illegal_insn_trap_table+0x113a>
    80008db8:	6e3e                	ld	t3,456(sp)
    80008dba:	6564                	ld	s1,200(a0)
    80008dbc:	2076                	fld	ft0,344(sp)
    80008dbe:	203c                	fld	fa5,64(s0)
    80008dc0:	3031                	0x3031
    80008dc2:	3432                	fld	fs0,296(sp)
    80008dc4:	0000                	unimp
    80008dc6:	0000                	unimp
    80008dc8:	4c50                	lw	a2,28(s0)
    80008dca:	4349                	li	t1,18
    80008dcc:	7720                	ld	s0,104(a4)
    80008dce:	7269                	lui	tp,0xffffa
    80008dd0:	6465                	lui	s0,0x19
    80008dd2:	6820                	ld	s0,80(s0)
    80008dd4:	7261                	lui	tp,0xffff8
    80008dd6:	2074                	fld	fa3,192(s0)
    80008dd8:	6425                	lui	s0,0x9
    80008dda:	7420                	ld	s0,104(s0)
    80008ddc:	7277206f          	j	8007bd02 <_end+0x61d02>
    80008de0:	20676e6f          	jal	t3,8007efe6 <_end+0x64fe6>
    80008de4:	6e69                	lui	t3,0x1a
    80008de6:	6574                	ld	a3,200(a0)
    80008de8:	7272                	ld	tp,312(sp)
    80008dea:	7075                	c.lui	zero,0xffffd
    80008dec:	2074                	fld	fa3,192(s0)
    80008dee:	6425                	lui	s0,0x9
	...
    80008df8:	6e616373          	csrrsi	t1,0x6e6,2
    80008dfc:	3e2d                	addiw	t3,t3,-21
    80008dfe:	6572                	ld	a0,280(sp)
    80008e00:	61765f67          	0x61765f67
    80008e04:	756c                	ld	a1,232(a0)
    80008e06:	2065                	0x2065
    80008e08:	2626                	fld	fa2,72(sp)
    80008e0a:	7320                	ld	s0,96(a4)
    80008e0c:	2d6e6163          	bltu	t3,s6,800090ce <illegal_insn_trap_table+0x1192>
    80008e10:	723e                	ld	tp,488(sp)
    80008e12:	6765                	lui	a4,0x19
    80008e14:	6c5f 6e65 2520      	0x25206e656c5f
    80008e1a:	3420                	fld	fs0,104(s0)
    80008e1c:	3d20                	fld	fs0,120(a0)
    80008e1e:	203d                	0x203d
    80008e20:	0030                	addi	a2,sp,8
    80008e22:	0000                	unimp
    80008e24:	0000                	unimp
    80008e26:	0000                	unimp
    80008e28:	6e65                	lui	t3,0x19
    80008e2a:	2064                	fld	fs1,192(s0)
    80008e2c:	3d3d                	addiw	s10,s10,-17
    80008e2e:	7620                	ld	s0,104(a2)
    80008e30:	6c61                	lui	s8,0x18
    80008e32:	6575                	lui	a0,0x1d
    80008e34:	0000                	unimp
    80008e36:	0000                	unimp
    80008e38:	6564                	ld	s1,200(a0)
    80008e3a:	6976                	ld	s2,344(sp)
    80008e3c:	745f6563          	bltu	t5,t0,80009586 <illegal_insn_trap_table+0x164a>
    80008e40:	7079                	c.lui	zero,0xffffe
    80008e42:	0065                	c.nop	25
    80008e44:	0000                	unimp
    80008e46:	0000                	unimp
    80008e48:	656d                	lui	a0,0x1b
    80008e4a:	6f6d                	lui	t5,0x1b
    80008e4c:	7972                	ld	s2,312(sp)
    80008e4e:	0000                	unimp
    80008e50:	736f6863          	bltu	t5,s6,80009580 <illegal_insn_trap_table+0x1644>
    80008e54:	6e65                	lui	t3,0x19
    80008e56:	0000                	unimp
    80008e58:	00757063          	bgeu	a0,t2,80008e58 <illegal_insn_trap_table+0xf1c>
    80008e5c:	0000                	unimp
    80008e5e:	0000                	unimp
    80008e60:	7321                	lui	t1,0xfffe8
    80008e62:	2d6e6163          	bltu	t3,s6,80009124 <illegal_insn_trap_table+0x11e8>
    80008e66:	633e                	ld	t1,456(sp)
    80008e68:	7570                	ld	a2,232(a0)
    80008e6a:	0000                	unimp
    80008e6c:	0000                	unimp
    80008e6e:	0000                	unimp
    80008e70:	6e69                	lui	t3,0x1a
    80008e72:	6574                	ld	a3,200(a0)
    80008e74:	7272                	ld	tp,312(sp)
    80008e76:	7075                	c.lui	zero,0xffffd
    80008e78:	2d74                	fld	fa3,216(a0)
    80008e7a:	746e6f63          	bltu	t3,t1,800095d8 <illegal_insn_trap_table+0x169c>
    80008e7e:	6f72                	ld	t5,280(sp)
    80008e80:	6c6c                	ld	a1,216(s0)
    80008e82:	7265                	lui	tp,0xffff9
    80008e84:	0000                	unimp
    80008e86:	0000                	unimp
    80008e88:	7321                	lui	t1,0xfffe8
    80008e8a:	2d6e6163          	bltu	t3,s6,8000914c <illegal_insn_trap_table+0x1210>
    80008e8e:	633e                	ld	t1,456(sp)
    80008e90:	72746e6f          	jal	t3,8004fdb6 <_end+0x35db6>
    80008e94:	656c6c6f          	jal	s8,800cf4ea <_end+0xb54ea>
    80008e98:	0072                	c.slli	zero,0x1c
    80008e9a:	0000                	unimp
    80008e9c:	0000                	unimp
    80008e9e:	0000                	unimp
    80008ea0:	746e6923          	0x746e6923
    80008ea4:	7265                	lui	tp,0xffff9
    80008ea6:	7572                	ld	a0,312(sp)
    80008ea8:	7470                	ld	a2,232(s0)
    80008eaa:	632d                	lui	t1,0xb
    80008eac:	6c65                	lui	s8,0x19
    80008eae:	736c                	ld	a1,224(a4)
	...
    80008eb8:	6870                	ld	a2,208(s0)
    80008eba:	6e61                	lui	t3,0x18
    80008ebc:	6c64                	ld	s1,216(s0)
    80008ebe:	0065                	c.nop	25
    80008ec0:	6d6d                	lui	s10,0x1b
    80008ec2:	2d75                	addiw	s10,s10,29
    80008ec4:	7974                	ld	a3,240(a0)
    80008ec6:	6570                	ld	a2,200(a0)
	...
    80008ed0:	6c21                	lui	s8,0x8
    80008ed2:	7361                	lui	t1,0xffff8
    80008ed4:	0074                	addi	a3,sp,12
    80008ed6:	0000                	unimp
    80008ed8:	64646123          	0x64646123
    80008edc:	6572                	ld	a0,280(sp)
    80008ede:	632d7373          	csrrci	t1,0x632,26
    80008ee2:	6c65                	lui	s8,0x19
    80008ee4:	736c                	ld	a1,224(a4)
    80008ee6:	0000                	unimp
    80008ee8:	7a697323          	0x7a697323
    80008eec:	2d65                	addiw	s10,s10,25
    80008eee:	6c6c6563          	bltu	s8,t1,800095b8 <illegal_insn_trap_table+0x167c>
    80008ef2:	00000073          	ecall
    80008ef6:	0000                	unimp
    80008ef8:	6e616373          	csrrsi	t1,0x6e6,2
    80008efc:	3e2d                	addiw	t3,t3,-21
    80008efe:	6168                	ld	a0,192(a0)
    80008f00:	7472                	ld	s0,312(sp)
    80008f02:	3e20                	fld	fs0,120(a2)
    80008f04:	203d                	0x203d
    80008f06:	0030                	addi	a2,sp,8
    80008f08:	6e616373          	csrrsi	t1,0x6e6,2
    80008f0c:	3e2d                	addiw	t3,t3,-21
    80008f0e:	6870                	ld	a2,208(s0)
    80008f10:	6e61                	lui	t3,0x18
    80008f12:	6c64                	ld	s1,216(s0)
    80008f14:	2065                	0x2065
    80008f16:	203e                	fld	ft0,456(sp)
    80008f18:	0030                	addi	a2,sp,8
    80008f1a:	0000                	unimp
    80008f1c:	0000                	unimp
    80008f1e:	0000                	unimp
    80008f20:	6e616373          	csrrsi	t1,0x6e6,2
    80008f24:	3e2d                	addiw	t3,t3,-21
    80008f26:	6c6c6563          	bltu	s8,t1,800095f0 <illegal_insn_trap_table+0x16b4>
    80008f2a:	3d3d2073          	csrs	0x3d3,s10
    80008f2e:	3120                	fld	fs0,96(a0)
	...
    80008f38:	6966                	ld	s2,88(sp)
    80008f3a:	746c                	ld	a1,232(s0)
    80008f3c:	7265                	lui	tp,0xffff9
    80008f3e:	3e2d                	addiw	t3,t3,-21
    80008f40:	74617473          	csrrci	s0,0x746,2
    80008f44:	7375                	lui	t1,0xffffd
    80008f46:	0000                	unimp
    80008f48:	6966                	ld	s2,88(sp)
    80008f4a:	746c                	ld	a1,232(s0)
    80008f4c:	7265                	lui	tp,0xffff9
    80008f4e:	3e2d                	addiw	t3,t3,-21
    80008f50:	6168                	ld	a0,192(a0)
    80008f52:	7472                	ld	s0,312(sp)
    80008f54:	3e20                	fld	fs0,120(a2)
    80008f56:	203d                	0x203d
    80008f58:	0030                	addi	a2,sp,8
    80008f5a:	0000                	unimp
    80008f5c:	0000                	unimp
    80008f5e:	0000                	unimp
    80008f60:	79616b6f          	jal	s6,8001f6f6 <_end+0x56f6>
    80008f64:	0000                	unimp
    80008f66:	0000                	unimp
    80008f68:	6972                	ld	s2,280(sp)
    80008f6a:	2c766373          	csrrsi	t1,0x2c7,12
    80008f6e:	39337673          	csrrci	a2,0x393,6
    80008f72:	0000                	unimp
    80008f74:	0000                	unimp
    80008f76:	0000                	unimp
    80008f78:	6972                	ld	s2,280(sp)
    80008f7a:	2c766373          	csrrsi	t1,0x2c7,12
    80008f7e:	38347673          	csrrci	a2,mibound,8
    80008f82:	0000                	unimp
    80008f84:	0000                	unimp
    80008f86:	0000                	unimp
    80008f88:	6168                	ld	a0,192(a0)
    80008f8a:	7472                	ld	s0,312(sp)
    80008f8c:	665f 6c69 6574      	0x65746c69665f
    80008f92:	5f72                	lw	t5,60(sp)
    80008f94:	616d                	addi	sp,sp,240
    80008f96:	73206b73          	csrrsi	s6,0x732,0
    80008f9a:	7761                	lui	a4,0xffff8
    80008f9c:	7520                	ld	s0,104(a0)
    80008f9e:	6b6e                	ld	s6,216(sp)
    80008fa0:	6f6e                	ld	t5,216(sp)
    80008fa2:	68206e77          	0x68206e77
    80008fa6:	7261                	lui	tp,0xffff8
    80008fa8:	2074                	fld	fa3,192(s0)
    80008faa:	7974                	ld	a3,240(a0)
    80008fac:	6570                	ld	a2,200(a0)
    80008fae:	203a                	fld	ft0,392(sp)
    80008fb0:	74617473          	csrrci	s0,0x746,2
    80008fb4:	7375                	lui	t1,0xffffd
    80008fb6:	223d                	addiw	tp,tp,15
    80008fb8:	7325                	lui	t1,0xfffe9
    80008fba:	2c22                	fld	fs8,8(sp)
    80008fbc:	6d20                	ld	s0,88(a0)
    80008fbe:	756d                	lui	a0,0xffffb
    80008fc0:	745f 7079 3d65      	0x3d657079745f
    80008fc6:	2522                	fld	fa0,8(sp)
    80008fc8:	000a2273          	csrrs	tp,ustatus,s4
    80008fcc:	0000                	unimp
    80008fce:	0000                	unimp
    80008fd0:	616d                	addi	sp,sp,240
    80008fd2:	64656b73          	csrrsi	s6,0x646,10
    80008fd6:	0000                	unimp
    80008fd8:	6972                	ld	s2,280(sp)
    80008fda:	2c766373          	csrrsi	t1,0x2c7,12
    80008fde:	6e72656b          	0x6e72656b
    80008fe2:	6c65                	lui	s8,0x19
    80008fe4:	732d                	lui	t1,0xfffeb
    80008fe6:	6174                	ld	a3,192(a0)
    80008fe8:	7472                	ld	s0,312(sp)
    80008fea:	0000                	unimp
    80008fec:	0000                	unimp
    80008fee:	0000                	unimp
    80008ff0:	6972                	ld	s2,280(sp)
    80008ff2:	2c766373          	csrrsi	t1,0x2c7,12
    80008ff6:	6e72656b          	0x6e72656b
    80008ffa:	6c65                	lui	s8,0x19
    80008ffc:	652d                	lui	a0,0xb
    80008ffe:	646e                	ld	s0,216(sp)
	...
    80009008:	6972                	ld	s2,280(sp)
    8000900a:	2c766373          	csrrsi	t1,0x2c7,12
    8000900e:	6e696c63          	bltu	s2,t1,80009706 <illegal_insn_trap_table+0x17ca>
    80009012:	3074                	fld	fa3,224(s0)
    80009014:	0000                	unimp
    80009016:	0000                	unimp
    80009018:	6e69                	lui	t3,0x1a
    8000901a:	6574                	ld	a3,200(a0)
    8000901c:	7272                	ld	tp,312(sp)
    8000901e:	7075                	c.lui	zero,0xffffd
    80009020:	7374                	ld	a3,224(a4)
    80009022:	652d                	lui	a0,0xb
    80009024:	7478                	ld	a4,232(s0)
    80009026:	6e65                	lui	t3,0x19
    80009028:	6564                	ld	s1,200(a0)
    8000902a:	0064                	addi	s1,sp,12
    8000902c:	0000                	unimp
    8000902e:	0000                	unimp
    80009030:	6972                	ld	s2,280(sp)
    80009032:	2c766373          	csrrsi	t1,0x2c7,12
    80009036:	6c70                	ld	a2,216(s0)
    80009038:	6369                	lui	t1,0x1a
    8000903a:	0030                	addi	a2,sp,8
    8000903c:	0000                	unimp
    8000903e:	0000                	unimp
    80009040:	6972                	ld	s2,280(sp)
    80009042:	2c766373          	csrrsi	t1,0x2c7,12
    80009046:	646e                	ld	s0,216(sp)
    80009048:	7665                	lui	a2,0xffff9
    8000904a:	0000                	unimp
    8000904c:	0000                	unimp
    8000904e:	0000                	unimp
    80009050:	656d                	lui	a0,0x1b
    80009052:	5f6d                	li	t5,-5
    80009054:	657a6973          	csrrsi	s2,0x657,20
    80009058:	3e20                	fld	fs0,120(a2)
    8000905a:	3020                	fld	fs0,96(s0)
    8000905c:	0000                	unimp
    8000905e:	0000                	unimp
    80009060:	6828                	ld	a0,80(s0)
    80009062:	7261                	lui	tp,0xffff8
    80009064:	5f74                	lw	a3,124(a4)
    80009066:	616d                	addi	sp,sp,240
    80009068:	3e206b73          	csrrsi	s6,0x3e2,0
    8000906c:	203e                	fld	ft0,456(sp)
    8000906e:	6572                	ld	a0,280(sp)
    80009070:	6461                	lui	s0,0x18
    80009072:	635f 7273 6d28      	0x6d287273635f
    80009078:	6168                	ld	a0,192(a0)
    8000907a:	7472                	ld	s0,312(sp)
    8000907c:	6469                	lui	s0,0x1a
    8000907e:	2929                	addiw	s2,s2,10
    80009080:	2120                	fld	fs0,64(a0)
    80009082:	203d                	0x203d
    80009084:	0030                	addi	a2,sp,8
    80009086:	0000                	unimp
    80009088:	6e616373          	csrrsi	t1,0x6e6,2
    8000908c:	642e                	ld	s0,200(sp)
    8000908e:	00656e6f          	jal	t3,8005f094 <_end+0x45094>

Disassembly of section .htif:

000000008000a000 <fromhost>:
	...

000000008000a008 <tohost>:
	...

Disassembly of section .data:

000000008000b000 <files>:
    8000b000:	ffff                	0xffff
    8000b002:	ffff                	0xffff
    8000b004:	0000                	unimp
    8000b006:	0000                	unimp
    8000b008:	ffff                	0xffff
    8000b00a:	ffff                	0xffff
    8000b00c:	0000                	unimp
    8000b00e:	0000                	unimp
    8000b010:	ffff                	0xffff
    8000b012:	ffff                	0xffff
    8000b014:	0000                	unimp
    8000b016:	0000                	unimp
    8000b018:	ffff                	0xffff
    8000b01a:	ffff                	0xffff
    8000b01c:	0000                	unimp
    8000b01e:	0000                	unimp
    8000b020:	ffff                	0xffff
    8000b022:	ffff                	0xffff
    8000b024:	0000                	unimp
    8000b026:	0000                	unimp
    8000b028:	ffff                	0xffff
    8000b02a:	ffff                	0xffff
    8000b02c:	0000                	unimp
    8000b02e:	0000                	unimp
    8000b030:	ffff                	0xffff
    8000b032:	ffff                	0xffff
    8000b034:	0000                	unimp
    8000b036:	0000                	unimp
    8000b038:	ffff                	0xffff
    8000b03a:	ffff                	0xffff
    8000b03c:	0000                	unimp
    8000b03e:	0000                	unimp
    8000b040:	ffff                	0xffff
    8000b042:	ffff                	0xffff
    8000b044:	0000                	unimp
    8000b046:	0000                	unimp
    8000b048:	ffff                	0xffff
    8000b04a:	ffff                	0xffff
    8000b04c:	0000                	unimp
    8000b04e:	0000                	unimp
    8000b050:	ffff                	0xffff
    8000b052:	ffff                	0xffff
    8000b054:	0000                	unimp
    8000b056:	0000                	unimp
    8000b058:	ffff                	0xffff
    8000b05a:	ffff                	0xffff
    8000b05c:	0000                	unimp
    8000b05e:	0000                	unimp
    8000b060:	ffff                	0xffff
    8000b062:	ffff                	0xffff
    8000b064:	0000                	unimp
    8000b066:	0000                	unimp
    8000b068:	ffff                	0xffff
    8000b06a:	ffff                	0xffff
    8000b06c:	0000                	unimp
    8000b06e:	0000                	unimp
    8000b070:	ffff                	0xffff
    8000b072:	ffff                	0xffff
    8000b074:	0000                	unimp
    8000b076:	0000                	unimp
    8000b078:	ffff                	0xffff
    8000b07a:	ffff                	0xffff
    8000b07c:	0000                	unimp
    8000b07e:	0000                	unimp
    8000b080:	ffff                	0xffff
    8000b082:	ffff                	0xffff
    8000b084:	0000                	unimp
    8000b086:	0000                	unimp
    8000b088:	ffff                	0xffff
    8000b08a:	ffff                	0xffff
    8000b08c:	0000                	unimp
    8000b08e:	0000                	unimp
    8000b090:	ffff                	0xffff
    8000b092:	ffff                	0xffff
    8000b094:	0000                	unimp
    8000b096:	0000                	unimp
    8000b098:	ffff                	0xffff
    8000b09a:	ffff                	0xffff
    8000b09c:	0000                	unimp
    8000b09e:	0000                	unimp
    8000b0a0:	ffff                	0xffff
    8000b0a2:	ffff                	0xffff
    8000b0a4:	0000                	unimp
    8000b0a6:	0000                	unimp
    8000b0a8:	ffff                	0xffff
    8000b0aa:	ffff                	0xffff
    8000b0ac:	0000                	unimp
    8000b0ae:	0000                	unimp
    8000b0b0:	ffff                	0xffff
    8000b0b2:	ffff                	0xffff
    8000b0b4:	0000                	unimp
    8000b0b6:	0000                	unimp
    8000b0b8:	ffff                	0xffff
    8000b0ba:	ffff                	0xffff
    8000b0bc:	0000                	unimp
    8000b0be:	0000                	unimp
    8000b0c0:	ffff                	0xffff
    8000b0c2:	ffff                	0xffff
    8000b0c4:	0000                	unimp
    8000b0c6:	0000                	unimp
    8000b0c8:	ffff                	0xffff
    8000b0ca:	ffff                	0xffff
    8000b0cc:	0000                	unimp
    8000b0ce:	0000                	unimp
    8000b0d0:	ffff                	0xffff
    8000b0d2:	ffff                	0xffff
    8000b0d4:	0000                	unimp
    8000b0d6:	0000                	unimp
    8000b0d8:	ffff                	0xffff
    8000b0da:	ffff                	0xffff
    8000b0dc:	0000                	unimp
    8000b0de:	0000                	unimp
    8000b0e0:	ffff                	0xffff
    8000b0e2:	ffff                	0xffff
    8000b0e4:	0000                	unimp
    8000b0e6:	0000                	unimp
    8000b0e8:	ffff                	0xffff
    8000b0ea:	ffff                	0xffff
    8000b0ec:	0000                	unimp
    8000b0ee:	0000                	unimp
    8000b0f0:	ffff                	0xffff
    8000b0f2:	ffff                	0xffff
    8000b0f4:	0000                	unimp
    8000b0f6:	0000                	unimp
    8000b0f8:	ffff                	0xffff
    8000b0fa:	ffff                	0xffff
    8000b0fc:	0000                	unimp
    8000b0fe:	0000                	unimp
    8000b100:	ffff                	0xffff
    8000b102:	ffff                	0xffff
    8000b104:	0000                	unimp
    8000b106:	0000                	unimp
    8000b108:	ffff                	0xffff
    8000b10a:	ffff                	0xffff
    8000b10c:	0000                	unimp
    8000b10e:	0000                	unimp
    8000b110:	ffff                	0xffff
    8000b112:	ffff                	0xffff
    8000b114:	0000                	unimp
    8000b116:	0000                	unimp
    8000b118:	ffff                	0xffff
    8000b11a:	ffff                	0xffff
    8000b11c:	0000                	unimp
    8000b11e:	0000                	unimp
    8000b120:	ffff                	0xffff
    8000b122:	ffff                	0xffff
    8000b124:	0000                	unimp
    8000b126:	0000                	unimp
    8000b128:	ffff                	0xffff
    8000b12a:	ffff                	0xffff
    8000b12c:	0000                	unimp
    8000b12e:	0000                	unimp
    8000b130:	ffff                	0xffff
    8000b132:	ffff                	0xffff
    8000b134:	0000                	unimp
    8000b136:	0000                	unimp
    8000b138:	ffff                	0xffff
    8000b13a:	ffff                	0xffff
    8000b13c:	0000                	unimp
    8000b13e:	0000                	unimp
    8000b140:	ffff                	0xffff
    8000b142:	ffff                	0xffff
    8000b144:	0000                	unimp
    8000b146:	0000                	unimp
    8000b148:	ffff                	0xffff
    8000b14a:	ffff                	0xffff
    8000b14c:	0000                	unimp
    8000b14e:	0000                	unimp
    8000b150:	ffff                	0xffff
    8000b152:	ffff                	0xffff
    8000b154:	0000                	unimp
    8000b156:	0000                	unimp
    8000b158:	ffff                	0xffff
    8000b15a:	ffff                	0xffff
    8000b15c:	0000                	unimp
    8000b15e:	0000                	unimp
    8000b160:	ffff                	0xffff
    8000b162:	ffff                	0xffff
    8000b164:	0000                	unimp
    8000b166:	0000                	unimp
    8000b168:	ffff                	0xffff
    8000b16a:	ffff                	0xffff
    8000b16c:	0000                	unimp
    8000b16e:	0000                	unimp
    8000b170:	ffff                	0xffff
    8000b172:	ffff                	0xffff
    8000b174:	0000                	unimp
    8000b176:	0000                	unimp
    8000b178:	ffff                	0xffff
    8000b17a:	ffff                	0xffff
    8000b17c:	0000                	unimp
    8000b17e:	0000                	unimp
    8000b180:	ffff                	0xffff
    8000b182:	ffff                	0xffff
    8000b184:	0000                	unimp
    8000b186:	0000                	unimp
    8000b188:	ffff                	0xffff
    8000b18a:	ffff                	0xffff
    8000b18c:	0000                	unimp
    8000b18e:	0000                	unimp
    8000b190:	ffff                	0xffff
    8000b192:	ffff                	0xffff
    8000b194:	0000                	unimp
    8000b196:	0000                	unimp
    8000b198:	ffff                	0xffff
    8000b19a:	ffff                	0xffff
    8000b19c:	0000                	unimp
    8000b19e:	0000                	unimp
    8000b1a0:	ffff                	0xffff
    8000b1a2:	ffff                	0xffff
    8000b1a4:	0000                	unimp
    8000b1a6:	0000                	unimp
    8000b1a8:	ffff                	0xffff
    8000b1aa:	ffff                	0xffff
    8000b1ac:	0000                	unimp
    8000b1ae:	0000                	unimp
    8000b1b0:	ffff                	0xffff
    8000b1b2:	ffff                	0xffff
    8000b1b4:	0000                	unimp
    8000b1b6:	0000                	unimp
    8000b1b8:	ffff                	0xffff
    8000b1ba:	ffff                	0xffff
    8000b1bc:	0000                	unimp
    8000b1be:	0000                	unimp
    8000b1c0:	ffff                	0xffff
    8000b1c2:	ffff                	0xffff
    8000b1c4:	0000                	unimp
    8000b1c6:	0000                	unimp
    8000b1c8:	ffff                	0xffff
    8000b1ca:	ffff                	0xffff
    8000b1cc:	0000                	unimp
    8000b1ce:	0000                	unimp
    8000b1d0:	ffff                	0xffff
    8000b1d2:	ffff                	0xffff
    8000b1d4:	0000                	unimp
    8000b1d6:	0000                	unimp
    8000b1d8:	ffff                	0xffff
    8000b1da:	ffff                	0xffff
    8000b1dc:	0000                	unimp
    8000b1de:	0000                	unimp
    8000b1e0:	ffff                	0xffff
    8000b1e2:	ffff                	0xffff
    8000b1e4:	0000                	unimp
    8000b1e6:	0000                	unimp
    8000b1e8:	ffff                	0xffff
    8000b1ea:	ffff                	0xffff
    8000b1ec:	0000                	unimp
    8000b1ee:	0000                	unimp
    8000b1f0:	ffff                	0xffff
    8000b1f2:	ffff                	0xffff
    8000b1f4:	0000                	unimp
    8000b1f6:	0000                	unimp
    8000b1f8:	ffff                	0xffff
    8000b1fa:	ffff                	0xffff
    8000b1fc:	0000                	unimp
    8000b1fe:	0000                	unimp
    8000b200:	ffff                	0xffff
    8000b202:	ffff                	0xffff
    8000b204:	0000                	unimp
    8000b206:	0000                	unimp
    8000b208:	ffff                	0xffff
    8000b20a:	ffff                	0xffff
    8000b20c:	0000                	unimp
    8000b20e:	0000                	unimp
    8000b210:	ffff                	0xffff
    8000b212:	ffff                	0xffff
    8000b214:	0000                	unimp
    8000b216:	0000                	unimp
    8000b218:	ffff                	0xffff
    8000b21a:	ffff                	0xffff
    8000b21c:	0000                	unimp
    8000b21e:	0000                	unimp
    8000b220:	ffff                	0xffff
    8000b222:	ffff                	0xffff
    8000b224:	0000                	unimp
    8000b226:	0000                	unimp
    8000b228:	ffff                	0xffff
    8000b22a:	ffff                	0xffff
    8000b22c:	0000                	unimp
    8000b22e:	0000                	unimp
    8000b230:	ffff                	0xffff
    8000b232:	ffff                	0xffff
    8000b234:	0000                	unimp
    8000b236:	0000                	unimp
    8000b238:	ffff                	0xffff
    8000b23a:	ffff                	0xffff
    8000b23c:	0000                	unimp
    8000b23e:	0000                	unimp
    8000b240:	ffff                	0xffff
    8000b242:	ffff                	0xffff
    8000b244:	0000                	unimp
    8000b246:	0000                	unimp
    8000b248:	ffff                	0xffff
    8000b24a:	ffff                	0xffff
    8000b24c:	0000                	unimp
    8000b24e:	0000                	unimp
    8000b250:	ffff                	0xffff
    8000b252:	ffff                	0xffff
    8000b254:	0000                	unimp
    8000b256:	0000                	unimp
    8000b258:	ffff                	0xffff
    8000b25a:	ffff                	0xffff
    8000b25c:	0000                	unimp
    8000b25e:	0000                	unimp
    8000b260:	ffff                	0xffff
    8000b262:	ffff                	0xffff
    8000b264:	0000                	unimp
    8000b266:	0000                	unimp
    8000b268:	ffff                	0xffff
    8000b26a:	ffff                	0xffff
    8000b26c:	0000                	unimp
    8000b26e:	0000                	unimp
    8000b270:	ffff                	0xffff
    8000b272:	ffff                	0xffff
    8000b274:	0000                	unimp
    8000b276:	0000                	unimp
    8000b278:	ffff                	0xffff
    8000b27a:	ffff                	0xffff
    8000b27c:	0000                	unimp
    8000b27e:	0000                	unimp
    8000b280:	ffff                	0xffff
    8000b282:	ffff                	0xffff
    8000b284:	0000                	unimp
    8000b286:	0000                	unimp
    8000b288:	ffff                	0xffff
    8000b28a:	ffff                	0xffff
    8000b28c:	0000                	unimp
    8000b28e:	0000                	unimp
    8000b290:	ffff                	0xffff
    8000b292:	ffff                	0xffff
    8000b294:	0000                	unimp
    8000b296:	0000                	unimp
    8000b298:	ffff                	0xffff
    8000b29a:	ffff                	0xffff
    8000b29c:	0000                	unimp
    8000b29e:	0000                	unimp
    8000b2a0:	ffff                	0xffff
    8000b2a2:	ffff                	0xffff
    8000b2a4:	0000                	unimp
    8000b2a6:	0000                	unimp
    8000b2a8:	ffff                	0xffff
    8000b2aa:	ffff                	0xffff
    8000b2ac:	0000                	unimp
    8000b2ae:	0000                	unimp
    8000b2b0:	ffff                	0xffff
    8000b2b2:	ffff                	0xffff
    8000b2b4:	0000                	unimp
    8000b2b6:	0000                	unimp
    8000b2b8:	ffff                	0xffff
    8000b2ba:	ffff                	0xffff
    8000b2bc:	0000                	unimp
    8000b2be:	0000                	unimp
    8000b2c0:	ffff                	0xffff
    8000b2c2:	ffff                	0xffff
    8000b2c4:	0000                	unimp
    8000b2c6:	0000                	unimp
    8000b2c8:	ffff                	0xffff
    8000b2ca:	ffff                	0xffff
    8000b2cc:	0000                	unimp
    8000b2ce:	0000                	unimp
    8000b2d0:	ffff                	0xffff
    8000b2d2:	ffff                	0xffff
    8000b2d4:	0000                	unimp
    8000b2d6:	0000                	unimp
    8000b2d8:	ffff                	0xffff
    8000b2da:	ffff                	0xffff
    8000b2dc:	0000                	unimp
    8000b2de:	0000                	unimp
    8000b2e0:	ffff                	0xffff
    8000b2e2:	ffff                	0xffff
    8000b2e4:	0000                	unimp
    8000b2e6:	0000                	unimp
    8000b2e8:	ffff                	0xffff
    8000b2ea:	ffff                	0xffff
    8000b2ec:	0000                	unimp
    8000b2ee:	0000                	unimp
    8000b2f0:	ffff                	0xffff
    8000b2f2:	ffff                	0xffff
    8000b2f4:	0000                	unimp
    8000b2f6:	0000                	unimp
    8000b2f8:	ffff                	0xffff
    8000b2fa:	ffff                	0xffff
    8000b2fc:	0000                	unimp
    8000b2fe:	0000                	unimp
    8000b300:	ffff                	0xffff
    8000b302:	ffff                	0xffff
    8000b304:	0000                	unimp
    8000b306:	0000                	unimp
    8000b308:	ffff                	0xffff
    8000b30a:	ffff                	0xffff
    8000b30c:	0000                	unimp
    8000b30e:	0000                	unimp
    8000b310:	ffff                	0xffff
    8000b312:	ffff                	0xffff
    8000b314:	0000                	unimp
    8000b316:	0000                	unimp
    8000b318:	ffff                	0xffff
    8000b31a:	ffff                	0xffff
    8000b31c:	0000                	unimp
    8000b31e:	0000                	unimp
    8000b320:	ffff                	0xffff
    8000b322:	ffff                	0xffff
    8000b324:	0000                	unimp
    8000b326:	0000                	unimp
    8000b328:	ffff                	0xffff
    8000b32a:	ffff                	0xffff
    8000b32c:	0000                	unimp
    8000b32e:	0000                	unimp
    8000b330:	ffff                	0xffff
    8000b332:	ffff                	0xffff
    8000b334:	0000                	unimp
    8000b336:	0000                	unimp
    8000b338:	ffff                	0xffff
    8000b33a:	ffff                	0xffff
    8000b33c:	0000                	unimp
    8000b33e:	0000                	unimp
    8000b340:	ffff                	0xffff
    8000b342:	ffff                	0xffff
    8000b344:	0000                	unimp
    8000b346:	0000                	unimp
    8000b348:	ffff                	0xffff
    8000b34a:	ffff                	0xffff
    8000b34c:	0000                	unimp
    8000b34e:	0000                	unimp
    8000b350:	ffff                	0xffff
    8000b352:	ffff                	0xffff
    8000b354:	0000                	unimp
    8000b356:	0000                	unimp
    8000b358:	ffff                	0xffff
    8000b35a:	ffff                	0xffff
    8000b35c:	0000                	unimp
    8000b35e:	0000                	unimp
    8000b360:	ffff                	0xffff
    8000b362:	ffff                	0xffff
    8000b364:	0000                	unimp
    8000b366:	0000                	unimp
    8000b368:	ffff                	0xffff
    8000b36a:	ffff                	0xffff
    8000b36c:	0000                	unimp
    8000b36e:	0000                	unimp
    8000b370:	ffff                	0xffff
    8000b372:	ffff                	0xffff
    8000b374:	0000                	unimp
    8000b376:	0000                	unimp
    8000b378:	ffff                	0xffff
    8000b37a:	ffff                	0xffff
    8000b37c:	0000                	unimp
    8000b37e:	0000                	unimp
    8000b380:	ffff                	0xffff
    8000b382:	ffff                	0xffff
    8000b384:	0000                	unimp
    8000b386:	0000                	unimp
    8000b388:	ffff                	0xffff
    8000b38a:	ffff                	0xffff
    8000b38c:	0000                	unimp
    8000b38e:	0000                	unimp
    8000b390:	ffff                	0xffff
    8000b392:	ffff                	0xffff
    8000b394:	0000                	unimp
    8000b396:	0000                	unimp
    8000b398:	ffff                	0xffff
    8000b39a:	ffff                	0xffff
    8000b39c:	0000                	unimp
    8000b39e:	0000                	unimp
    8000b3a0:	ffff                	0xffff
    8000b3a2:	ffff                	0xffff
    8000b3a4:	0000                	unimp
    8000b3a6:	0000                	unimp
    8000b3a8:	ffff                	0xffff
    8000b3aa:	ffff                	0xffff
    8000b3ac:	0000                	unimp
    8000b3ae:	0000                	unimp
    8000b3b0:	ffff                	0xffff
    8000b3b2:	ffff                	0xffff
    8000b3b4:	0000                	unimp
    8000b3b6:	0000                	unimp
    8000b3b8:	ffff                	0xffff
    8000b3ba:	ffff                	0xffff
    8000b3bc:	0000                	unimp
    8000b3be:	0000                	unimp
    8000b3c0:	ffff                	0xffff
    8000b3c2:	ffff                	0xffff
    8000b3c4:	0000                	unimp
    8000b3c6:	0000                	unimp
    8000b3c8:	ffff                	0xffff
    8000b3ca:	ffff                	0xffff
    8000b3cc:	0000                	unimp
    8000b3ce:	0000                	unimp
    8000b3d0:	ffff                	0xffff
    8000b3d2:	ffff                	0xffff
    8000b3d4:	0000                	unimp
    8000b3d6:	0000                	unimp
    8000b3d8:	ffff                	0xffff
    8000b3da:	ffff                	0xffff
    8000b3dc:	0000                	unimp
    8000b3de:	0000                	unimp
    8000b3e0:	ffff                	0xffff
    8000b3e2:	ffff                	0xffff
    8000b3e4:	0000                	unimp
    8000b3e6:	0000                	unimp
    8000b3e8:	ffff                	0xffff
    8000b3ea:	ffff                	0xffff
    8000b3ec:	0000                	unimp
    8000b3ee:	0000                	unimp
    8000b3f0:	ffff                	0xffff
    8000b3f2:	ffff                	0xffff
    8000b3f4:	0000                	unimp
    8000b3f6:	0000                	unimp
    8000b3f8:	ffff                	0xffff
    8000b3fa:	ffff                	0xffff
    8000b3fc:	0000                	unimp
	...

000000008000b400 <default_sched_class>:
    8000b400:	8818                	0x8818
    8000b402:	8000                	0x8000
    8000b404:	0000                	unimp
    8000b406:	0000                	unimp
    8000b408:	35de                	fld	fa1,496(sp)
    8000b40a:	8000                	0x8000
    8000b40c:	0000                	unimp
    8000b40e:	0000                	unimp
    8000b410:	361c                	fld	fa5,40(a2)
    8000b412:	8000                	0x8000
    8000b414:	0000                	unimp
    8000b416:	0000                	unimp
    8000b418:	35e8                	fld	fa0,232(a1)
    8000b41a:	8000                	0x8000
    8000b41c:	0000                	unimp
    8000b41e:	0000                	unimp
    8000b420:	35fc                	fld	fa5,232(a1)
    8000b422:	8000                	0x8000
    8000b424:	0000                	unimp
    8000b426:	0000                	unimp
    8000b428:	360a                	fld	fa2,160(sp)
    8000b42a:	8000                	0x8000
	...

000000008000b440 <trap_table>:
    8000b440:	4c88                	lw	a0,24(s1)
    8000b442:	8000                	0x8000
    8000b444:	4c46                	lw	s8,80(sp)
    8000b446:	8000                	0x8000
    8000b448:	6c68                	ld	a0,216(s0)
    8000b44a:	8000                	0x8000
    8000b44c:	4c88                	lw	a0,24(s1)
    8000b44e:	8000                	0x8000
    8000b450:	6ea6                	ld	t4,72(sp)
    8000b452:	8000                	0x8000
    8000b454:	4c46                	lw	s8,80(sp)
    8000b456:	8000                	0x8000
    8000b458:	6ff8                	ld	a4,216(a5)
    8000b45a:	8000                	0x8000
    8000b45c:	4c46                	lw	s8,80(sp)
    8000b45e:	8000                	0x8000
    8000b460:	4c88                	lw	a0,24(s1)
    8000b462:	8000                	0x8000
    8000b464:	4cee                	lw	s9,216(sp)
    8000b466:	8000                	0x8000
    8000b468:	4c88                	lw	a0,24(s1)
    8000b46a:	8000                	0x8000
    8000b46c:	4c88                	lw	a0,24(s1)
    8000b46e:	8000                	0x8000
    8000b470:	4c88                	lw	a0,24(s1)
    8000b472:	8000                	0x8000
    8000b474:	01f0                	addi	a2,sp,204
    8000b476:	8000                	0x8000
    8000b478:	4c88                	lw	a0,24(s1)
    8000b47a:	8000                	0x8000
    8000b47c:	4c88                	lw	a0,24(s1)
    8000b47e:	8000                	0x8000
    8000b480:	457f                	0x457f
    8000b482:	464c                	lw	a1,12(a2)
    8000b484:	0002                	c.slli64	zero
    8000b486:	0000                	unimp
    8000b488:	cccd                	beqz	s1,8000b542 <_bss_start+0x72>
    8000b48a:	cccc                	sw	a1,28(s1)
    8000b48c:	cccc                	sw	a1,28(s1)
    8000b48e:	cccc                	sw	a1,28(s1)
    8000b490:	3a434347          	fmsub.d	ft6,ft6,ft4,ft7,rmm
    8000b494:	2820                	fld	fs0,80(s0)
    8000b496:	29554e47          	fmsub.s	ft8,fa0,fs5,ft5,rmm
    8000b49a:	3920                	fld	fs0,112(a0)
    8000b49c:	322e                	fld	ft4,232(sp)
    8000b49e:	302e                	fld	ft0,232(sp)
	...

Disassembly of section .sdata:

000000008000b4a8 <demand_paging>:
    8000b4a8:	0001                	nop
    8000b4aa:	0000                	unimp
    8000b4ac:	0000                	unimp
	...

000000008000b4b0 <k_satp_p>:
    8000b4b0:	b4b8                	fsd	fa4,104(s1)
    8000b4b2:	8000                	0x8000
    8000b4b4:	0000                	unimp
	...

000000008000b4b8 <k_satp>:
    8000b4b8:	ffff                	0xffff
    8000b4ba:	ffff                	0xffff
    8000b4bc:	0000                	unimp
	...

000000008000b4c0 <next_safe.3579>:
    8000b4c0:	2000                	fld	fs0,0(s0)
	...

000000008000b4c4 <last_pid.3580>:
    8000b4c4:	2000                	fld	fs0,0(s0)
	...

Disassembly of section .bss:

000000008000c000 <fds>:
	...

000000008000c400 <magic_mem.2291>:
	...

000000008000c440 <name.3572>:
	...

000000008000c450 <hash_list>:
	...

0000000080010450 <timer_list>:
	...

0000000080010460 <__rq>:
	...

0000000080011000 <stacks>:
	...

0000000080019000 <hart_phandles>:
	...

0000000080019020 <lock.2292>:
	...

0000000080019028 <free_pages>:
	...

0000000080019030 <next_free_page>:
	...

0000000080019038 <first_free_page>:
	...

0000000080019040 <vm_lock>:
	...

0000000080019048 <nr_process>:
	...

0000000080019050 <currentproc>:
	...

0000000080019058 <initproc>:
	...

0000000080019060 <idleproc>:
	...

0000000080019068 <rq>:
	...

0000000080019070 <sched_class>:
	...

0000000080019078 <htif_lock>:
	...

0000000080019080 <sema_q>:
	...

00000000800191c0 <pmm_manager>:
	...

00000000800191c8 <disabled_hart_mask>:
	...

00000000800191d0 <current>:
	...

0000000080019278 <nbase>:
	...

0000000080019280 <vmrs>:
	...

0000000080019288 <kernel_stack_top>:
	...

0000000080019290 <first_free_paddr>:
	...

0000000080019298 <free_area>:
	...

00000000800192b0 <pages>:
	...

00000000800192b8 <proc_list>:
	...

00000000800192c8 <ticks>:
	...

00000000800192d0 <plic_ndevs>:
	...

00000000800192d8 <plic_priorities>:
	...

00000000800192e0 <mem_size>:
	...

00000000800192e8 <kernel_end>:
	...

00000000800192f0 <mtime>:
	...

00000000800192f8 <root_page_table>:
	...

0000000080019300 <kernel_start>:
	...

0000000080019308 <htif>:
	...

0000000080019310 <htif_console_buf>:
	...

0000000080019318 <uart>:
	...

0000000080019320 <uart16550>:
	...

0000000080019328 <finisher>:
	...

0000000080019330 <hart_mask>:
	...

Disassembly of section .riscv.attributes:

0000000000000000 <.riscv.attributes>:
   0:	3441                	addiw	s0,s0,-16
   2:	0000                	unimp
   4:	7200                	ld	s0,32(a2)
   6:	7369                	lui	t1,0xffffa
   8:	01007663          	bgeu	zero,a6,14 <_ftext-0x7fffffec>
   c:	002a                	c.slli	zero,0xa
   e:	0000                	unimp
  10:	1004                	addi	s1,sp,32
  12:	7205                	lui	tp,0xfffe1
  14:	3676                	fld	fa2,376(sp)
  16:	6934                	ld	a3,80(a0)
  18:	7032                	0x7032
  1a:	5f30                	lw	a2,120(a4)
  1c:	326d                	addiw	tp,tp,-5
  1e:	3070                	fld	fa2,224(s0)
  20:	615f 7032 5f30      	0x5f307032615f
  26:	3266                	fld	ft4,120(sp)
  28:	3070                	fld	fa2,224(s0)
  2a:	645f 7032 5f30      	0x5f307032645f
  30:	30703263          	0x30703263
	...
