
obj/pke：     文件格式 elf64-littleriscv


Disassembly of section .text:

0000000080000000 <_ftext>:
    80000000:	1f80006f          	j	800001f8 <do_reset>

0000000080000004 <trap_vector>:
    80000004:	34011173          	csrrw	sp,mscratch,sp
    80000008:	1a010863          	beqz	sp,800001b8 <restore_regs+0x80>
    8000000c:	04a13823          	sd	a0,80(sp)
    80000010:	04b13c23          	sd	a1,88(sp)
    80000014:	342025f3          	csrr	a1,mcause
    80000018:	0805d263          	bgez	a1,8000009c <trap_vector+0x98>
    8000001c:	00159593          	slli	a1,a1,0x1
    80000020:	00e00513          	li	a0,14
    80000024:	02b51263          	bne	a0,a1,80000048 <trap_vector+0x44>
    80000028:	08000513          	li	a0,128
    8000002c:	30453073          	csrc	mie,a0
    80000030:	02000513          	li	a0,32
    80000034:	34452073          	csrs	mip,a0
    80000038:	05013503          	ld	a0,80(sp)
    8000003c:	05813583          	ld	a1,88(sp)
    80000040:	34011173          	csrrw	sp,mscratch,sp
    80000044:	30200073          	mret
    80000048:	00600513          	li	a0,6
    8000004c:	18b51263          	bne	a0,a1,800001d0 <restore_regs+0x98>
    80000050:	10013503          	ld	a0,256(sp)
    80000054:	00052023          	sw	zero,0(a0)
    80000058:	0ff0000f          	fence
    8000005c:	10810513          	addi	a0,sp,264
    80000060:	0805252f          	amoswap.w	a0,zero,(a0)
    80000064:	00157593          	andi	a1,a0,1
    80000068:	00058463          	beqz	a1,80000070 <trap_vector+0x6c>
    8000006c:	34416073          	csrsi	mip,2
    80000070:	00257593          	andi	a1,a0,2
    80000074:	00058463          	beqz	a1,8000007c <trap_vector+0x78>
    80000078:	0000100f          	fence.i
    8000007c:	00457593          	andi	a1,a0,4
    80000080:	00058463          	beqz	a1,80000088 <trap_vector+0x84>
    80000084:	12000073          	sfence.vma
    80000088:	00857593          	andi	a1,a0,8
    8000008c:	00058663          	beqz	a1,80000098 <trap_vector+0x94>
    80000090:	10500073          	wfi
    80000094:	ff5ff06f          	j	80000088 <trap_vector+0x84>
    80000098:	fa1ff06f          	j	80000038 <trap_vector+0x34>
    8000009c:	00113423          	sd	ra,8(sp)
    800000a0:	00313c23          	sd	gp,24(sp)
    800000a4:	02413023          	sd	tp,32(sp)
    800000a8:	02513423          	sd	t0,40(sp)
    800000ac:	0000b297          	auipc	t0,0xb
    800000b0:	02613823          	sd	t1,48(sp)
    800000b4:	00259313          	slli	t1,a1,0x2
    800000b8:	02713c23          	sd	t2,56(sp)
    800000bc:	00628333          	add	t1,t0,t1
    800000c0:	04813023          	sd	s0,64(sp)
    800000c4:	39436303          	lwu	t1,916(t1)
    800000c8:	04913423          	sd	s1,72(sp)
    800000cc:	00010513          	mv	a0,sp
    800000d0:	06c13023          	sd	a2,96(sp)
    800000d4:	34102673          	csrr	a2,mepc
    800000d8:	06d13423          	sd	a3,104(sp)
    800000dc:	340012f3          	csrrw	t0,mscratch,zero
    800000e0:	06e13823          	sd	a4,112(sp)
    800000e4:	06f13c23          	sd	a5,120(sp)
    800000e8:	09013023          	sd	a6,128(sp)
    800000ec:	09113423          	sd	a7,136(sp)
    800000f0:	09213823          	sd	s2,144(sp)
    800000f4:	09313c23          	sd	s3,152(sp)
    800000f8:	0b413023          	sd	s4,160(sp)
    800000fc:	0b513423          	sd	s5,168(sp)
    80000100:	0b613823          	sd	s6,176(sp)
    80000104:	0b713c23          	sd	s7,184(sp)
    80000108:	0d813023          	sd	s8,192(sp)
    8000010c:	0d913423          	sd	s9,200(sp)
    80000110:	0da13823          	sd	s10,208(sp)
    80000114:	0db13c23          	sd	s11,216(sp)
    80000118:	0fc13023          	sd	t3,224(sp)
    8000011c:	0fd13423          	sd	t4,232(sp)
    80000120:	0fe13823          	sd	t5,240(sp)
    80000124:	0ff13c23          	sd	t6,248(sp)
    80000128:	00513823          	sd	t0,16(sp)
    8000012c:	00013023          	sd	zero,0(sp)
    80000130:	000300e7          	jalr	t1

0000000080000134 <restore_mscratch>:
    80000134:	34011073          	csrw	mscratch,sp

0000000080000138 <restore_regs>:
    80000138:	00813083          	ld	ra,8(sp)
    8000013c:	01813183          	ld	gp,24(sp)
    80000140:	02013203          	ld	tp,32(sp)
    80000144:	02813283          	ld	t0,40(sp)
    80000148:	03013303          	ld	t1,48(sp)
    8000014c:	03813383          	ld	t2,56(sp)
    80000150:	04013403          	ld	s0,64(sp)
    80000154:	04813483          	ld	s1,72(sp)
    80000158:	05013503          	ld	a0,80(sp)
    8000015c:	05813583          	ld	a1,88(sp)
    80000160:	06013603          	ld	a2,96(sp)
    80000164:	06813683          	ld	a3,104(sp)
    80000168:	07013703          	ld	a4,112(sp)
    8000016c:	07813783          	ld	a5,120(sp)
    80000170:	08013803          	ld	a6,128(sp)
    80000174:	08813883          	ld	a7,136(sp)
    80000178:	09013903          	ld	s2,144(sp)
    8000017c:	09813983          	ld	s3,152(sp)
    80000180:	0a013a03          	ld	s4,160(sp)
    80000184:	0a813a83          	ld	s5,168(sp)
    80000188:	0b013b03          	ld	s6,176(sp)
    8000018c:	0b813b83          	ld	s7,184(sp)
    80000190:	0c013c03          	ld	s8,192(sp)
    80000194:	0c813c83          	ld	s9,200(sp)
    80000198:	0d013d03          	ld	s10,208(sp)
    8000019c:	0d813d83          	ld	s11,216(sp)
    800001a0:	0e013e03          	ld	t3,224(sp)
    800001a4:	0e813e83          	ld	t4,232(sp)
    800001a8:	0f013f03          	ld	t5,240(sp)
    800001ac:	0f813f83          	ld	t6,248(sp)
    800001b0:	01013103          	ld	sp,16(sp)
    800001b4:	30200073          	mret
    800001b8:	34002173          	csrr	sp,mscratch
    800001bc:	f0010113          	addi	sp,sp,-256
    800001c0:	04a13823          	sd	a0,80(sp)
    800001c4:	04b13c23          	sd	a1,88(sp)
    800001c8:	00d00593          	li	a1,13
    800001cc:	ed1ff06f          	j	8000009c <trap_vector+0x98>
    800001d0:	00000593          	li	a1,0
    800001d4:	ec9ff06f          	j	8000009c <trap_vector+0x98>

00000000800001d8 <__redirect_trap>:
    800001d8:	000012b7          	lui	t0,0x1
    800001dc:	00510133          	add	sp,sp,t0
    800001e0:	405002b3          	neg	t0,t0
    800001e4:	00517133          	and	sp,sp,t0
    800001e8:	ec010113          	addi	sp,sp,-320
    800001ec:	f49ff06f          	j	80000134 <restore_mscratch>

00000000800001f0 <__trap_from_machine_mode>:
    800001f0:	2c1040ef          	jal	ra,80004cb0 <trap_from_machine_mode>
    800001f4:	f45ff06f          	j	80000138 <restore_regs>

00000000800001f8 <do_reset>:
    800001f8:	00000093          	li	ra,0
    800001fc:	00000113          	li	sp,0
    80000200:	00000193          	li	gp,0
    80000204:	00000213          	li	tp,0
    80000208:	00000293          	li	t0,0
    8000020c:	00000313          	li	t1,0
    80000210:	00000393          	li	t2,0
    80000214:	00000413          	li	s0,0
    80000218:	00000493          	li	s1,0
    8000021c:	00000613          	li	a2,0
    80000220:	00000693          	li	a3,0
    80000224:	00000713          	li	a4,0
    80000228:	00000793          	li	a5,0
    8000022c:	00000813          	li	a6,0
    80000230:	00000893          	li	a7,0
    80000234:	00000913          	li	s2,0
    80000238:	00000993          	li	s3,0
    8000023c:	00000a13          	li	s4,0
    80000240:	00000a93          	li	s5,0
    80000244:	00000b13          	li	s6,0
    80000248:	00000b93          	li	s7,0
    8000024c:	00000c13          	li	s8,0
    80000250:	00000c93          	li	s9,0
    80000254:	00000d13          	li	s10,0
    80000258:	00000d93          	li	s11,0
    8000025c:	00000e13          	li	t3,0
    80000260:	00000e93          	li	t4,0
    80000264:	00000f13          	li	t5,0
    80000268:	00000f93          	li	t6,0
    8000026c:	34001073          	csrw	mscratch,zero
    80000270:	00000297          	auipc	t0,0x0
    80000274:	d9428293          	addi	t0,t0,-620 # 80000004 <trap_vector>
    80000278:	30529073          	csrw	mtvec,t0
    8000027c:	30502373          	csrr	t1,mtvec
    80000280:	00629063          	bne	t0,t1,80000280 <do_reset+0x88>
    80000284:	00012117          	auipc	sp,0x12
    80000288:	c3c10113          	addi	sp,sp,-964 # 80011ec0 <stacks+0xec0>
    8000028c:	f14026f3          	csrr	a3,mhartid
    80000290:	00c69613          	slli	a2,a3,0xc
    80000294:	00c10133          	add	sp,sp,a2
    80000298:	00069463          	bnez	a3,800002a0 <do_reset+0xa8>
    8000029c:	4cd0406f          	j	80004f68 <init_first_hart>
    800002a0:	00800613          	li	a2,8
    800002a4:	30461073          	csrw	mie,a2
    800002a8:	10500073          	wfi
    800002ac:	00019717          	auipc	a4,0x19
    800002b0:	f1c70713          	addi	a4,a4,-228 # 800191c8 <disabled_hart_mask>
    800002b4:	00073703          	ld	a4,0(a4)
    800002b8:	00d75733          	srl	a4,a4,a3
    800002bc:	00177713          	andi	a4,a4,1
    800002c0:	fe0714e3          	bnez	a4,800002a8 <do_reset+0xb0>
    800002c4:	34402673          	csrr	a2,mip
    800002c8:	00867613          	andi	a2,a2,8
    800002cc:	fc060ee3          	beqz	a2,800002a8 <do_reset+0xb0>
    800002d0:	0ff0000f          	fence
    800002d4:	00800613          	li	a2,8
    800002d8:	00c6f463          	bgeu	a3,a2,800002e0 <do_reset+0xe8>
    800002dc:	5990406f          	j	80005074 <init_other_hart>
    800002e0:	10500073          	wfi
    800002e4:	fc5ff06f          	j	800002a8 <do_reset+0xb0>

00000000800002e8 <rest_of_boot_loader>:
    800002e8:	8b010113          	addi	sp,sp,-1872
    800002ec:	800007b7          	lui	a5,0x80000
    800002f0:	74813023          	sd	s0,1856(sp)
    800002f4:	72913c23          	sd	s1,1848(sp)
    800002f8:	1a00                	addi	s0,sp,304
    800002fa:	74113423          	sd	ra,1864(sp)
    800002fe:	73213823          	sd	s2,1840(sp)
    80000302:	fff7c793          	not	a5,a5
    80000306:	84aa                	mv	s1,a0
    80000308:	85a2                	mv	a1,s0
    8000030a:	0087e763          	bltu	a5,s0,80000318 <rest_of_boot_loader+0x30>
    8000030e:	00019597          	auipc	a1,0x19
    80000312:	f825b583          	ld	a1,-126(a1) # 80019290 <first_free_paddr>
    80000316:	95a2                	add	a1,a1,s0
    80000318:	4881                	li	a7,0
    8000031a:	4801                	li	a6,0
    8000031c:	4781                	li	a5,0
    8000031e:	4701                	li	a4,0
    80000320:	4681                	li	a3,0
    80000322:	20000613          	li	a2,512
    80000326:	7db00513          	li	a0,2011
    8000032a:	678000ef          	jal	ra,800009a2 <frontend_syscall>
    8000032e:	12051d63          	bnez	a0,80000468 <rest_of_boot_loader+0x180>
    80000332:	77d2                	ld	a5,304(sp)
    80000334:	4705                	li	a4,1
    80000336:	10f77f63          	bgeu	a4,a5,80000454 <rest_of_boot_loader+0x16c>
    8000033a:	0294                	addi	a3,sp,320
    8000033c:	02d00e13          	li	t3,45
    80000340:	07000313          	li	t1,112
    80000344:	07300893          	li	a7,115
    80000348:	00019817          	auipc	a6,0x19
    8000034c:	e8880813          	addi	a6,a6,-376 # 800191d0 <current>
    80000350:	4505                	li	a0,1
    80000352:	a809                	j	80000364 <rest_of_boot_loader+0x7c>
    80000354:	0000b617          	auipc	a2,0xb
    80000358:	14062a23          	sw	zero,340(a2) # 8000b4a8 <demand_paging>
    8000035c:	0705                	addi	a4,a4,1
    8000035e:	06a1                	addi	a3,a3,8
    80000360:	02e78363          	beq	a5,a4,80000386 <rest_of_boot_loader+0x9e>
    80000364:	6290                	ld	a2,0(a3)
    80000366:	00064583          	lbu	a1,0(a2)
    8000036a:	03c59463          	bne	a1,t3,80000392 <rest_of_boot_loader+0xaa>
    8000036e:	00164583          	lbu	a1,1(a2)
    80000372:	fe6581e3          	beq	a1,t1,80000354 <rest_of_boot_loader+0x6c>
    80000376:	0f159363          	bne	a1,a7,8000045c <rest_of_boot_loader+0x174>
    8000037a:	06a83023          	sd	a0,96(a6)
    8000037e:	0705                	addi	a4,a4,1
    80000380:	06a1                	addi	a3,a3,8
    80000382:	fee791e3          	bne	a5,a4,80000364 <rest_of_boot_loader+0x7c>
    80000386:	00008517          	auipc	a0,0x8
    8000038a:	cda50513          	addi	a0,a0,-806 # 80008060 <illegal_insn_trap_table+0x124>
    8000038e:	5ed000ef          	jal	ra,8000117a <do_panic>
    80000392:	0cf77263          	bgeu	a4,a5,80000456 <rest_of_boot_loader+0x16e>
    80000396:	078e                	slli	a5,a5,0x3
    80000398:	070e                	slli	a4,a4,0x3
    8000039a:	97a2                	add	a5,a5,s0
    8000039c:	8f99                	sub	a5,a5,a4
    8000039e:	00e406b3          	add	a3,s0,a4
    800003a2:	6694                	ld	a3,8(a3)
    800003a4:	0421                	addi	s0,s0,8
    800003a6:	fed43c23          	sd	a3,-8(s0)
    800003aa:	fe879ae3          	bne	a5,s0,8000039e <rest_of_boot_loader+0xb6>
    800003ae:	75d2                	ld	a1,304(sp)
    800003b0:	00019417          	auipc	s0,0x19
    800003b4:	e2040413          	addi	s0,s0,-480 # 800191d0 <current>
    800003b8:	1e1c                	addi	a5,sp,816
    800003ba:	e81c                	sd	a5,16(s0)
    800003bc:	00008517          	auipc	a0,0x8
    800003c0:	cc450513          	addi	a0,a0,-828 # 80008080 <illegal_insn_trap_table+0x144>
    800003c4:	40000793          	li	a5,1024
    800003c8:	ec1c                	sd	a5,24(s0)
    800003ca:	4e1000ef          	jal	ra,800010aa <printk>
    800003ce:	03200613          	li	a2,50
    800003d2:	4581                	li	a1,0
    800003d4:	00019517          	auipc	a0,0x19
    800003d8:	e6c50513          	addi	a0,a0,-404 # 80019240 <current+0x70>
    800003dc:	012070ef          	jal	ra,800073ee <memset>
    800003e0:	75d2                	ld	a1,304(sp)
    800003e2:	03200613          	li	a2,50
    800003e6:	00019517          	auipc	a0,0x19
    800003ea:	e5a50513          	addi	a0,a0,-422 # 80019240 <current+0x70>
    800003ee:	7b1060ef          	jal	ra,8000739e <memcpy>
    800003f2:	386030ef          	jal	ra,80003778 <sched_init>
    800003f6:	2ce030ef          	jal	ra,800036c4 <clock_init>
    800003fa:	769020ef          	jal	ra,80003362 <proc_init>
    800003fe:	00019797          	auipc	a5,0x19
    80000402:	c527b783          	ld	a5,-942(a5) # 80019050 <currentproc>
    80000406:	63f0                	ld	a2,192(a5)
    80000408:	7552                	ld	a0,304(sp)
    8000040a:	85a2                	mv	a1,s0
    8000040c:	25f000ef          	jal	ra,80000e6a <load_elf_user>
    80000410:	025030ef          	jal	ra,80003c34 <init_semaq>
    80000414:	683c                	ld	a5,80(s0)
    80000416:	6c18                	ld	a4,24(s0)
    80000418:	13000613          	li	a2,304
    8000041c:	4581                	li	a1,0
    8000041e:	850a                	mv	a0,sp
    80000420:	02843903          	ld	s2,40(s0)
    80000424:	40e78433          	sub	s0,a5,a4
    80000428:	7c7060ef          	jal	ra,800073ee <memset>
    8000042c:	100027f3          	csrr	a5,sstatus
    80000430:	edd7f793          	andi	a5,a5,-291
    80000434:	0207e793          	ori	a5,a5,32
    80000438:	e23e                	sd	a5,256(sp)
    8000043a:	e822                	sd	s0,16(sp)
    8000043c:	e64a                	sd	s2,264(sp)
    8000043e:	0000100f          	fence.i
    80000442:	860a                	mv	a2,sp
    80000444:	85a2                	mv	a1,s0
    80000446:	4501                	li	a0,0
    80000448:	485020ef          	jal	ra,800030cc <do_fork>
    8000044c:	14049073          	csrw	sscratch,s1
    80000450:	7af020ef          	jal	ra,800033fe <cpu_idle>
    80000454:	4705                	li	a4,1
    80000456:	f4e79ce3          	bne	a5,a4,800003ae <rest_of_boot_loader+0xc6>
    8000045a:	b735                	j	80000386 <rest_of_boot_loader+0x9e>
    8000045c:	00008517          	auipc	a0,0x8
    80000460:	be450513          	addi	a0,a0,-1052 # 80008040 <illegal_insn_trap_table+0x104>
    80000464:	517000ef          	jal	ra,8000117a <do_panic>
    80000468:	00008517          	auipc	a0,0x8
    8000046c:	bd050513          	addi	a0,a0,-1072 # 80008038 <illegal_insn_trap_table+0xfc>
    80000470:	52f000ef          	jal	ra,8000119e <kassert_fail>

0000000080000474 <boot_loader>:
    80000474:	1141                	addi	sp,sp,-16
    80000476:	e406                	sd	ra,8(sp)
    80000478:	00002797          	auipc	a5,0x2
    8000047c:	35478793          	addi	a5,a5,852 # 800027cc <trap_entry>
    80000480:	10579073          	csrw	stvec,a5
    80000484:	14005073          	csrwi	sscratch,0
    80000488:	10405073          	csrwi	sie,0
    8000048c:	000467b7          	lui	a5,0x46
    80000490:	1007a7f3          	csrrs	a5,sstatus,a5
    80000494:	0fe000ef          	jal	ra,80000592 <file_init>
    80000498:	12d010ef          	jal	ra,80001dc4 <pk_vm_init>
    8000049c:	85aa                	mv	a1,a0
    8000049e:	4601                	li	a2,0
    800004a0:	00000517          	auipc	a0,0x0
    800004a4:	e4850513          	addi	a0,a0,-440 # 800002e8 <rest_of_boot_loader>
    800004a8:	407040ef          	jal	ra,800050ae <enter_supervisor_mode>

00000000800004ac <boot_other_hart>:
    800004ac:	10500073          	wfi
    800004b0:	bff5                	j	800004ac <boot_other_hart>

00000000800004b2 <file_get_free>:
    800004b2:	0000b517          	auipc	a0,0xb
    800004b6:	b4e50513          	addi	a0,a0,-1202 # 8000b000 <files>
    800004ba:	4689                	li	a3,2
    800004bc:	0000b717          	auipc	a4,0xb
    800004c0:	f4470713          	addi	a4,a4,-188 # 8000b400 <default_sched_class>
    800004c4:	a021                	j	800004cc <file_get_free+0x1a>
    800004c6:	0521                	addi	a0,a0,8
    800004c8:	02e50263          	beq	a0,a4,800004ec <file_get_free+0x3a>
    800004cc:	415c                	lw	a5,4(a0)
    800004ce:	2781                	sext.w	a5,a5
    800004d0:	fbfd                	bnez	a5,800004c6 <file_get_free+0x14>
    800004d2:	00450613          	addi	a2,a0,4
    800004d6:	0f50000f          	fence	iorw,ow
    800004da:	140627af          	lr.w.aq	a5,(a2)
    800004de:	e781                	bnez	a5,800004e6 <file_get_free+0x34>
    800004e0:	1cd625af          	sc.w.aq	a1,a3,(a2)
    800004e4:	f9fd                	bnez	a1,800004da <file_get_free+0x28>
    800004e6:	2781                	sext.w	a5,a5
    800004e8:	fff9                	bnez	a5,800004c6 <file_get_free+0x14>
    800004ea:	8082                	ret
    800004ec:	4501                	li	a0,0
    800004ee:	8082                	ret

00000000800004f0 <file_incref>:
    800004f0:	4705                	li	a4,1
    800004f2:	00450693          	addi	a3,a0,4
    800004f6:	0f50000f          	fence	iorw,ow
    800004fa:	04e6a7af          	amoadd.w.aq	a5,a4,(a3)
    800004fe:	2781                	sext.w	a5,a5
    80000500:	c391                	beqz	a5,80000504 <file_incref+0x14>
    80000502:	8082                	ret
    80000504:	1141                	addi	sp,sp,-16
    80000506:	00008517          	auipc	a0,0x8
    8000050a:	b8a50513          	addi	a0,a0,-1142 # 80008090 <illegal_insn_trap_table+0x154>
    8000050e:	e406                	sd	ra,8(sp)
    80000510:	48f000ef          	jal	ra,8000119e <kassert_fail>

0000000080000514 <file_decref>:
    80000514:	577d                	li	a4,-1
    80000516:	00450693          	addi	a3,a0,4
    8000051a:	0f50000f          	fence	iorw,ow
    8000051e:	04e6a7af          	amoadd.w.aq	a5,a4,(a3)
    80000522:	2781                	sext.w	a5,a5
    80000524:	4709                	li	a4,2
    80000526:	00e78363          	beq	a5,a4,8000052c <file_decref+0x18>
    8000052a:	8082                	ret
    8000052c:	410c                	lw	a1,0(a0)
    8000052e:	0ff0000f          	fence
    80000532:	4881                	li	a7,0
    80000534:	00052223          	sw	zero,4(a0)
    80000538:	4801                	li	a6,0
    8000053a:	4781                	li	a5,0
    8000053c:	4701                	li	a4,0
    8000053e:	4681                	li	a3,0
    80000540:	4601                	li	a2,0
    80000542:	03900513          	li	a0,57
    80000546:	a9b1                	j	800009a2 <frontend_syscall>

0000000080000548 <file_dup>:
    80000548:	1141                	addi	sp,sp,-16
    8000054a:	e022                	sd	s0,0(sp)
    8000054c:	e406                	sd	ra,8(sp)
    8000054e:	0000c797          	auipc	a5,0xc
    80000552:	ab278793          	addi	a5,a5,-1358 # 8000c000 <fds>
    80000556:	4401                	li	s0,0
    80000558:	08000693          	li	a3,128
    8000055c:	a029                	j	80000566 <file_dup+0x1e>
    8000055e:	2405                	addiw	s0,s0,1
    80000560:	07a1                	addi	a5,a5,8
    80000562:	02d40263          	beq	s0,a3,80000586 <file_dup+0x3e>
    80000566:	0f50000f          	fence	iorw,ow
    8000056a:	1407b72f          	lr.d.aq	a4,(a5)
    8000056e:	e701                	bnez	a4,80000576 <file_dup+0x2e>
    80000570:	1ca7b62f          	sc.d.aq	a2,a0,(a5)
    80000574:	fa7d                	bnez	a2,8000056a <file_dup+0x22>
    80000576:	f765                	bnez	a4,8000055e <file_dup+0x16>
    80000578:	f79ff0ef          	jal	ra,800004f0 <file_incref>
    8000057c:	60a2                	ld	ra,8(sp)
    8000057e:	8522                	mv	a0,s0
    80000580:	6402                	ld	s0,0(sp)
    80000582:	0141                	addi	sp,sp,16
    80000584:	8082                	ret
    80000586:	547d                	li	s0,-1
    80000588:	60a2                	ld	ra,8(sp)
    8000058a:	8522                	mv	a0,s0
    8000058c:	6402                	ld	s0,0(sp)
    8000058e:	0141                	addi	sp,sp,16
    80000590:	8082                	ret

0000000080000592 <file_init>:
    80000592:	1101                	addi	sp,sp,-32
    80000594:	e822                	sd	s0,16(sp)
    80000596:	e426                	sd	s1,8(sp)
    80000598:	ec06                	sd	ra,24(sp)
    8000059a:	4401                	li	s0,0
    8000059c:	448d                	li	s1,3
    8000059e:	f15ff0ef          	jal	ra,800004b2 <file_get_free>
    800005a2:	c100                	sw	s0,0(a0)
    800005a4:	2405                	addiw	s0,s0,1
    800005a6:	fa3ff0ef          	jal	ra,80000548 <file_dup>
    800005aa:	fe941ae3          	bne	s0,s1,8000059e <file_init+0xc>
    800005ae:	60e2                	ld	ra,24(sp)
    800005b0:	6442                	ld	s0,16(sp)
    800005b2:	64a2                	ld	s1,8(sp)
    800005b4:	6105                	addi	sp,sp,32
    800005b6:	8082                	ret

00000000800005b8 <file_get>:
    800005b8:	7179                	addi	sp,sp,-48
    800005ba:	f026                	sd	s1,32(sp)
    800005bc:	ec4a                	sd	s2,24(sp)
    800005be:	0000c497          	auipc	s1,0xc
    800005c2:	a4248493          	addi	s1,s1,-1470 # 8000c000 <fds>
    800005c6:	00351913          	slli	s2,a0,0x3
    800005ca:	012487b3          	add	a5,s1,s2
    800005ce:	639c                	ld	a5,0(a5)
    800005d0:	f406                	sd	ra,40(sp)
    800005d2:	c3b1                	beqz	a5,80000616 <file_get+0x5e>
    800005d4:	07f00793          	li	a5,127
    800005d8:	02a7e963          	bltu	a5,a0,8000060a <file_get+0x52>
    800005dc:	94ca                	add	s1,s1,s2
    800005de:	6088                	ld	a0,0(s1)
    800005e0:	e105                	bnez	a0,80000600 <file_get+0x48>
    800005e2:	a025                	j	8000060a <file_get+0x52>
    800005e4:	00450613          	addi	a2,a0,4
    800005e8:	0f50000f          	fence	iorw,ow
    800005ec:	1406272f          	lr.w.aq	a4,(a2)
    800005f0:	00f71563          	bne	a4,a5,800005fa <file_get+0x42>
    800005f4:	1cd625af          	sc.w.aq	a1,a3,(a2)
    800005f8:	f9f5                	bnez	a1,800005ec <file_get+0x34>
    800005fa:	2701                	sext.w	a4,a4
    800005fc:	00e78863          	beq	a5,a4,8000060c <file_get+0x54>
    80000600:	415c                	lw	a5,4(a0)
    80000602:	2781                	sext.w	a5,a5
    80000604:	0017869b          	addiw	a3,a5,1
    80000608:	fff1                	bnez	a5,800005e4 <file_get+0x2c>
    8000060a:	4501                	li	a0,0
    8000060c:	70a2                	ld	ra,40(sp)
    8000060e:	7482                	ld	s1,32(sp)
    80000610:	6962                	ld	s2,24(sp)
    80000612:	6145                	addi	sp,sp,48
    80000614:	8082                	ret
    80000616:	e42a                	sd	a0,8(sp)
    80000618:	f7bff0ef          	jal	ra,80000592 <file_init>
    8000061c:	6522                	ld	a0,8(sp)
    8000061e:	bf5d                	j	800005d4 <file_get+0x1c>

0000000080000620 <file_openat>:
    80000620:	7179                	addi	sp,sp,-48
    80000622:	f022                	sd	s0,32(sp)
    80000624:	e84a                	sd	s2,16(sp)
    80000626:	e44e                	sd	s3,8(sp)
    80000628:	e052                	sd	s4,0(sp)
    8000062a:	f406                	sd	ra,40(sp)
    8000062c:	ec26                	sd	s1,24(sp)
    8000062e:	892a                	mv	s2,a0
    80000630:	842e                	mv	s0,a1
    80000632:	8a32                	mv	s4,a2
    80000634:	89b6                	mv	s3,a3
    80000636:	e7dff0ef          	jal	ra,800004b2 <file_get_free>
    8000063a:	c125                	beqz	a0,8000069a <file_openat+0x7a>
    8000063c:	84aa                	mv	s1,a0
    8000063e:	8522                	mv	a0,s0
    80000640:	5f5060ef          	jal	ra,80007434 <strlen>
    80000644:	800007b7          	lui	a5,0x80000
    80000648:	fff7c793          	not	a5,a5
    8000064c:	8622                	mv	a2,s0
    8000064e:	00150693          	addi	a3,a0,1
    80000652:	0287f863          	bgeu	a5,s0,80000682 <file_openat+0x62>
    80000656:	4881                	li	a7,0
    80000658:	4801                	li	a6,0
    8000065a:	87ce                	mv	a5,s3
    8000065c:	8752                	mv	a4,s4
    8000065e:	85ca                	mv	a1,s2
    80000660:	03800513          	li	a0,56
    80000664:	33e000ef          	jal	ra,800009a2 <frontend_syscall>
    80000668:	842a                	mv	s0,a0
    8000066a:	02054363          	bltz	a0,80000690 <file_openat+0x70>
    8000066e:	c088                	sw	a0,0(s1)
    80000670:	70a2                	ld	ra,40(sp)
    80000672:	7402                	ld	s0,32(sp)
    80000674:	6942                	ld	s2,16(sp)
    80000676:	69a2                	ld	s3,8(sp)
    80000678:	6a02                	ld	s4,0(sp)
    8000067a:	8526                	mv	a0,s1
    8000067c:	64e2                	ld	s1,24(sp)
    8000067e:	6145                	addi	sp,sp,48
    80000680:	8082                	ret
    80000682:	00019797          	auipc	a5,0x19
    80000686:	c0e7b783          	ld	a5,-1010(a5) # 80019290 <first_free_paddr>
    8000068a:	00f40633          	add	a2,s0,a5
    8000068e:	b7e1                	j	80000656 <file_openat+0x36>
    80000690:	8526                	mv	a0,s1
    80000692:	e83ff0ef          	jal	ra,80000514 <file_decref>
    80000696:	84a2                	mv	s1,s0
    80000698:	bfe1                	j	80000670 <file_openat+0x50>
    8000069a:	54d1                	li	s1,-12
    8000069c:	bfd1                	j	80000670 <file_openat+0x50>

000000008000069e <file_open>:
    8000069e:	86b2                	mv	a3,a2
    800006a0:	862e                	mv	a2,a1
    800006a2:	85aa                	mv	a1,a0
    800006a4:	f9c00513          	li	a0,-100
    800006a8:	bfa5                	j	80000620 <file_openat>

00000000800006aa <fd_close>:
    800006aa:	1101                	addi	sp,sp,-32
    800006ac:	e426                	sd	s1,8(sp)
    800006ae:	ec06                	sd	ra,24(sp)
    800006b0:	e822                	sd	s0,16(sp)
    800006b2:	e04a                	sd	s2,0(sp)
    800006b4:	84aa                	mv	s1,a0
    800006b6:	f03ff0ef          	jal	ra,800005b8 <file_get>
    800006ba:	cd1d                	beqz	a0,800006f8 <fd_close+0x4e>
    800006bc:	0000c797          	auipc	a5,0xc
    800006c0:	94478793          	addi	a5,a5,-1724 # 8000c000 <fds>
    800006c4:	048e                	slli	s1,s1,0x3
    800006c6:	842a                	mv	s0,a0
    800006c8:	94be                	add	s1,s1,a5
    800006ca:	0f50000f          	fence	iorw,ow
    800006ce:	1404b92f          	lr.d.aq	s2,(s1)
    800006d2:	00a91563          	bne	s2,a0,800006dc <fd_close+0x32>
    800006d6:	1c04b7af          	sc.d.aq	a5,zero,(s1)
    800006da:	fbf5                	bnez	a5,800006ce <fd_close+0x24>
    800006dc:	e39ff0ef          	jal	ra,80000514 <file_decref>
    800006e0:	01241c63          	bne	s0,s2,800006f8 <fd_close+0x4e>
    800006e4:	8522                	mv	a0,s0
    800006e6:	e2fff0ef          	jal	ra,80000514 <file_decref>
    800006ea:	4501                	li	a0,0
    800006ec:	60e2                	ld	ra,24(sp)
    800006ee:	6442                	ld	s0,16(sp)
    800006f0:	64a2                	ld	s1,8(sp)
    800006f2:	6902                	ld	s2,0(sp)
    800006f4:	6105                	addi	sp,sp,32
    800006f6:	8082                	ret
    800006f8:	557d                	li	a0,-1
    800006fa:	bfcd                	j	800006ec <fd_close+0x42>

00000000800006fc <file_read>:
    800006fc:	7179                	addi	sp,sp,-48
    800006fe:	87ae                	mv	a5,a1
    80000700:	ec26                	sd	s1,24(sp)
    80000702:	84b2                	mv	s1,a2
    80000704:	e84a                	sd	s2,16(sp)
    80000706:	4609                	li	a2,2
    80000708:	892a                	mv	s2,a0
    8000070a:	85a6                	mv	a1,s1
    8000070c:	853e                	mv	a0,a5
    8000070e:	f406                	sd	ra,40(sp)
    80000710:	f022                	sd	s0,32(sp)
    80000712:	e44e                	sd	s3,8(sp)
    80000714:	843e                	mv	s0,a5
    80000716:	89b6                	mv	s3,a3
    80000718:	01a010ef          	jal	ra,80001732 <populate_mapping>
    8000071c:	85ce                	mv	a1,s3
    8000071e:	8522                	mv	a0,s0
    80000720:	00092903          	lw	s2,0(s2)
    80000724:	084010ef          	jal	ra,800017a8 <__walk_create_user>
    80000728:	800007b7          	lui	a5,0x80000
    8000072c:	fff7c793          	not	a5,a5
    80000730:	6118                	ld	a4,0(a0)
    80000732:	0087e763          	bltu	a5,s0,80000740 <file_read+0x44>
    80000736:	1452                	slli	s0,s0,0x34
    80000738:	8329                	srli	a4,a4,0xa
    8000073a:	0732                	slli	a4,a4,0xc
    8000073c:	9051                	srli	s0,s0,0x34
    8000073e:	8c59                	or	s0,s0,a4
    80000740:	8622                	mv	a2,s0
    80000742:	7402                	ld	s0,32(sp)
    80000744:	70a2                	ld	ra,40(sp)
    80000746:	69a2                	ld	s3,8(sp)
    80000748:	86a6                	mv	a3,s1
    8000074a:	85ca                	mv	a1,s2
    8000074c:	64e2                	ld	s1,24(sp)
    8000074e:	6942                	ld	s2,16(sp)
    80000750:	4881                	li	a7,0
    80000752:	4801                	li	a6,0
    80000754:	4781                	li	a5,0
    80000756:	4701                	li	a4,0
    80000758:	03f00513          	li	a0,63
    8000075c:	6145                	addi	sp,sp,48
    8000075e:	a491                	j	800009a2 <frontend_syscall>

0000000080000760 <file_pread>:
    80000760:	7179                	addi	sp,sp,-48
    80000762:	f022                	sd	s0,32(sp)
    80000764:	ec26                	sd	s1,24(sp)
    80000766:	842e                	mv	s0,a1
    80000768:	84b2                	mv	s1,a2
    8000076a:	e44e                	sd	s3,8(sp)
    8000076c:	4609                	li	a2,2
    8000076e:	89aa                	mv	s3,a0
    80000770:	85a6                	mv	a1,s1
    80000772:	8522                	mv	a0,s0
    80000774:	e84a                	sd	s2,16(sp)
    80000776:	f406                	sd	ra,40(sp)
    80000778:	8936                	mv	s2,a3
    8000077a:	7b9000ef          	jal	ra,80001732 <populate_mapping>
    8000077e:	800007b7          	lui	a5,0x80000
    80000782:	fff7c793          	not	a5,a5
    80000786:	0009a583          	lw	a1,0(s3)
    8000078a:	8622                	mv	a2,s0
    8000078c:	0087e863          	bltu	a5,s0,8000079c <file_pread+0x3c>
    80000790:	00019797          	auipc	a5,0x19
    80000794:	b007b783          	ld	a5,-1280(a5) # 80019290 <first_free_paddr>
    80000798:	00f40633          	add	a2,s0,a5
    8000079c:	7402                	ld	s0,32(sp)
    8000079e:	70a2                	ld	ra,40(sp)
    800007a0:	69a2                	ld	s3,8(sp)
    800007a2:	874a                	mv	a4,s2
    800007a4:	86a6                	mv	a3,s1
    800007a6:	6942                	ld	s2,16(sp)
    800007a8:	64e2                	ld	s1,24(sp)
    800007aa:	4881                	li	a7,0
    800007ac:	4801                	li	a6,0
    800007ae:	4781                	li	a5,0
    800007b0:	04300513          	li	a0,67
    800007b4:	6145                	addi	sp,sp,48
    800007b6:	a2f5                	j	800009a2 <frontend_syscall>

00000000800007b8 <file_pread_pnn>:
    800007b8:	7179                	addi	sp,sp,-48
    800007ba:	f022                	sd	s0,32(sp)
    800007bc:	1115f593          	andi	a1,a1,273
    800007c0:	00c69413          	slli	s0,a3,0xc
    800007c4:	ec26                	sd	s1,24(sp)
    800007c6:	8c4d                	or	s0,s0,a1
    800007c8:	84b2                	mv	s1,a2
    800007ca:	e44e                	sd	s3,8(sp)
    800007cc:	85a6                	mv	a1,s1
    800007ce:	89aa                	mv	s3,a0
    800007d0:	4609                	li	a2,2
    800007d2:	8522                	mv	a0,s0
    800007d4:	e84a                	sd	s2,16(sp)
    800007d6:	f406                	sd	ra,40(sp)
    800007d8:	893a                	mv	s2,a4
    800007da:	759000ef          	jal	ra,80001732 <populate_mapping>
    800007de:	8622                	mv	a2,s0
    800007e0:	7402                	ld	s0,32(sp)
    800007e2:	0009a583          	lw	a1,0(s3)
    800007e6:	70a2                	ld	ra,40(sp)
    800007e8:	69a2                	ld	s3,8(sp)
    800007ea:	874a                	mv	a4,s2
    800007ec:	86a6                	mv	a3,s1
    800007ee:	6942                	ld	s2,16(sp)
    800007f0:	64e2                	ld	s1,24(sp)
    800007f2:	4881                	li	a7,0
    800007f4:	4801                	li	a6,0
    800007f6:	4781                	li	a5,0
    800007f8:	04300513          	li	a0,67
    800007fc:	6145                	addi	sp,sp,48
    800007fe:	a255                	j	800009a2 <frontend_syscall>

0000000080000800 <file_write>:
    80000800:	1101                	addi	sp,sp,-32
    80000802:	e822                	sd	s0,16(sp)
    80000804:	e426                	sd	s1,8(sp)
    80000806:	842e                	mv	s0,a1
    80000808:	84b2                	mv	s1,a2
    8000080a:	e04a                	sd	s2,0(sp)
    8000080c:	4605                	li	a2,1
    8000080e:	892a                	mv	s2,a0
    80000810:	85a6                	mv	a1,s1
    80000812:	8522                	mv	a0,s0
    80000814:	ec06                	sd	ra,24(sp)
    80000816:	71d000ef          	jal	ra,80001732 <populate_mapping>
    8000081a:	800007b7          	lui	a5,0x80000
    8000081e:	fff7c793          	not	a5,a5
    80000822:	00092583          	lw	a1,0(s2)
    80000826:	8622                	mv	a2,s0
    80000828:	0087e863          	bltu	a5,s0,80000838 <file_write+0x38>
    8000082c:	00019797          	auipc	a5,0x19
    80000830:	a647b783          	ld	a5,-1436(a5) # 80019290 <first_free_paddr>
    80000834:	00f40633          	add	a2,s0,a5
    80000838:	6442                	ld	s0,16(sp)
    8000083a:	60e2                	ld	ra,24(sp)
    8000083c:	6902                	ld	s2,0(sp)
    8000083e:	86a6                	mv	a3,s1
    80000840:	64a2                	ld	s1,8(sp)
    80000842:	4881                	li	a7,0
    80000844:	4801                	li	a6,0
    80000846:	4781                	li	a5,0
    80000848:	4701                	li	a4,0
    8000084a:	04000513          	li	a0,64
    8000084e:	6105                	addi	sp,sp,32
    80000850:	aa89                	j	800009a2 <frontend_syscall>

0000000080000852 <file_write_unfixed>:
    80000852:	7179                	addi	sp,sp,-48
    80000854:	ec26                	sd	s1,24(sp)
    80000856:	e44e                	sd	s3,8(sp)
    80000858:	84b2                	mv	s1,a2
    8000085a:	89aa                	mv	s3,a0
    8000085c:	4601                	li	a2,0
    8000085e:	8536                	mv	a0,a3
    80000860:	f406                	sd	ra,40(sp)
    80000862:	f022                	sd	s0,32(sp)
    80000864:	e84a                	sd	s2,16(sp)
    80000866:	842e                	mv	s0,a1
    80000868:	8936                	mv	s2,a3
    8000086a:	6ef000ef          	jal	ra,80001758 <__walk_internal_user>
    8000086e:	6108                	ld	a0,0(a0)
    80000870:	4609                	li	a2,2
    80000872:	85a6                	mv	a1,s1
    80000874:	8129                	srli	a0,a0,0xa
    80000876:	0532                	slli	a0,a0,0xc
    80000878:	6bb000ef          	jal	ra,80001732 <populate_mapping>
    8000087c:	85ca                	mv	a1,s2
    8000087e:	8522                	mv	a0,s0
    80000880:	0009a903          	lw	s2,0(s3)
    80000884:	725000ef          	jal	ra,800017a8 <__walk_create_user>
    80000888:	800007b7          	lui	a5,0x80000
    8000088c:	fff7c793          	not	a5,a5
    80000890:	610c                	ld	a1,0(a0)
    80000892:	0087e763          	bltu	a5,s0,800008a0 <file_write_unfixed+0x4e>
    80000896:	1452                	slli	s0,s0,0x34
    80000898:	81a9                	srli	a1,a1,0xa
    8000089a:	05b2                	slli	a1,a1,0xc
    8000089c:	9051                	srli	s0,s0,0x34
    8000089e:	8c4d                	or	s0,s0,a1
    800008a0:	8622                	mv	a2,s0
    800008a2:	7402                	ld	s0,32(sp)
    800008a4:	70a2                	ld	ra,40(sp)
    800008a6:	69a2                	ld	s3,8(sp)
    800008a8:	86a6                	mv	a3,s1
    800008aa:	85ca                	mv	a1,s2
    800008ac:	64e2                	ld	s1,24(sp)
    800008ae:	6942                	ld	s2,16(sp)
    800008b0:	4881                	li	a7,0
    800008b2:	4801                	li	a6,0
    800008b4:	4781                	li	a5,0
    800008b6:	4701                	li	a4,0
    800008b8:	04000513          	li	a0,64
    800008bc:	6145                	addi	sp,sp,48
    800008be:	a0d5                	j	800009a2 <frontend_syscall>

00000000800008c0 <file_pwrite>:
    800008c0:	7179                	addi	sp,sp,-48
    800008c2:	f022                	sd	s0,32(sp)
    800008c4:	ec26                	sd	s1,24(sp)
    800008c6:	842e                	mv	s0,a1
    800008c8:	84b2                	mv	s1,a2
    800008ca:	e44e                	sd	s3,8(sp)
    800008cc:	4605                	li	a2,1
    800008ce:	89aa                	mv	s3,a0
    800008d0:	85a6                	mv	a1,s1
    800008d2:	8522                	mv	a0,s0
    800008d4:	e84a                	sd	s2,16(sp)
    800008d6:	f406                	sd	ra,40(sp)
    800008d8:	8936                	mv	s2,a3
    800008da:	659000ef          	jal	ra,80001732 <populate_mapping>
    800008de:	800007b7          	lui	a5,0x80000
    800008e2:	fff7c793          	not	a5,a5
    800008e6:	0009a583          	lw	a1,0(s3)
    800008ea:	8622                	mv	a2,s0
    800008ec:	0087e863          	bltu	a5,s0,800008fc <file_pwrite+0x3c>
    800008f0:	00019797          	auipc	a5,0x19
    800008f4:	9a07b783          	ld	a5,-1632(a5) # 80019290 <first_free_paddr>
    800008f8:	00f40633          	add	a2,s0,a5
    800008fc:	7402                	ld	s0,32(sp)
    800008fe:	70a2                	ld	ra,40(sp)
    80000900:	69a2                	ld	s3,8(sp)
    80000902:	874a                	mv	a4,s2
    80000904:	86a6                	mv	a3,s1
    80000906:	6942                	ld	s2,16(sp)
    80000908:	64e2                	ld	s1,24(sp)
    8000090a:	4881                	li	a7,0
    8000090c:	4801                	li	a6,0
    8000090e:	4781                	li	a5,0
    80000910:	04400513          	li	a0,68
    80000914:	6145                	addi	sp,sp,48
    80000916:	a071                	j	800009a2 <frontend_syscall>

0000000080000918 <file_stat>:
    80000918:	7135                	addi	sp,sp,-160
    8000091a:	800007b7          	lui	a5,0x80000
    8000091e:	e922                	sd	s0,144(sp)
    80000920:	e526                	sd	s1,136(sp)
    80000922:	840a                	mv	s0,sp
    80000924:	ed06                	sd	ra,152(sp)
    80000926:	fff7c793          	not	a5,a5
    8000092a:	84ae                	mv	s1,a1
    8000092c:	8622                	mv	a2,s0
    8000092e:	410c                	lw	a1,0(a0)
    80000930:	0087e763          	bltu	a5,s0,8000093e <file_stat+0x26>
    80000934:	00019617          	auipc	a2,0x19
    80000938:	95c63603          	ld	a2,-1700(a2) # 80019290 <first_free_paddr>
    8000093c:	9622                	add	a2,a2,s0
    8000093e:	4881                	li	a7,0
    80000940:	4801                	li	a6,0
    80000942:	4781                	li	a5,0
    80000944:	4701                	li	a4,0
    80000946:	4681                	li	a3,0
    80000948:	05000513          	li	a0,80
    8000094c:	056000ef          	jal	ra,800009a2 <frontend_syscall>
    80000950:	87aa                	mv	a5,a0
    80000952:	85a2                	mv	a1,s0
    80000954:	8526                	mv	a0,s1
    80000956:	843e                	mv	s0,a5
    80000958:	0c8000ef          	jal	ra,80000a20 <copy_stat>
    8000095c:	60ea                	ld	ra,152(sp)
    8000095e:	0004051b          	sext.w	a0,s0
    80000962:	644a                	ld	s0,144(sp)
    80000964:	64aa                	ld	s1,136(sp)
    80000966:	610d                	addi	sp,sp,160
    80000968:	8082                	ret

000000008000096a <file_truncate>:
    8000096a:	862e                	mv	a2,a1
    8000096c:	410c                	lw	a1,0(a0)
    8000096e:	1141                	addi	sp,sp,-16
    80000970:	4881                	li	a7,0
    80000972:	4801                	li	a6,0
    80000974:	4781                	li	a5,0
    80000976:	4701                	li	a4,0
    80000978:	4681                	li	a3,0
    8000097a:	02e00513          	li	a0,46
    8000097e:	e406                	sd	ra,8(sp)
    80000980:	022000ef          	jal	ra,800009a2 <frontend_syscall>
    80000984:	60a2                	ld	ra,8(sp)
    80000986:	2501                	sext.w	a0,a0
    80000988:	0141                	addi	sp,sp,16
    8000098a:	8082                	ret

000000008000098c <file_lseek>:
    8000098c:	832e                	mv	t1,a1
    8000098e:	410c                	lw	a1,0(a0)
    80000990:	86b2                	mv	a3,a2
    80000992:	4881                	li	a7,0
    80000994:	4801                	li	a6,0
    80000996:	4781                	li	a5,0
    80000998:	4701                	li	a4,0
    8000099a:	861a                	mv	a2,t1
    8000099c:	03e00513          	li	a0,62
    800009a0:	a009                	j	800009a2 <frontend_syscall>

00000000800009a2 <frontend_syscall>:
    800009a2:	1141                	addi	sp,sp,-16
    800009a4:	e406                	sd	ra,8(sp)
    800009a6:	e022                	sd	s0,0(sp)
    800009a8:	00018317          	auipc	t1,0x18
    800009ac:	67830313          	addi	t1,t1,1656 # 80019020 <lock.2292>
    800009b0:	5efd                	li	t4,-1
    800009b2:	00032e03          	lw	t3,0(t1)
    800009b6:	2e01                	sext.w	t3,t3
    800009b8:	fe0e1de3          	bnez	t3,800009b2 <frontend_syscall+0x10>
    800009bc:	8e76                	mv	t3,t4
    800009be:	0dc32e2f          	amoswap.w.aq	t3,t3,(t1)
    800009c2:	2e01                	sext.w	t3,t3
    800009c4:	0ff0000f          	fence
    800009c8:	fe0e15e3          	bnez	t3,800009b2 <frontend_syscall+0x10>
    800009cc:	0000c417          	auipc	s0,0xc
    800009d0:	a3440413          	addi	s0,s0,-1484 # 8000c400 <magic_mem.2291>
    800009d4:	e008                	sd	a0,0(s0)
    800009d6:	e40c                	sd	a1,8(s0)
    800009d8:	e810                	sd	a2,16(s0)
    800009da:	ec14                	sd	a3,24(s0)
    800009dc:	f018                	sd	a4,32(s0)
    800009de:	f41c                	sd	a5,40(s0)
    800009e0:	03043823          	sd	a6,48(s0)
    800009e4:	8522                	mv	a0,s0
    800009e6:	03143c23          	sd	a7,56(s0)
    800009ea:	089040ef          	jal	ra,80005272 <htif_syscall>
    800009ee:	6008                	ld	a0,0(s0)
    800009f0:	0ff0000f          	fence
    800009f4:	60a2                	ld	ra,8(sp)
    800009f6:	6402                	ld	s0,0(sp)
    800009f8:	00018797          	auipc	a5,0x18
    800009fc:	6207a423          	sw	zero,1576(a5) # 80019020 <lock.2292>
    80000a00:	0141                	addi	sp,sp,16
    80000a02:	8082                	ret

0000000080000a04 <shutdown>:
    80000a04:	1141                	addi	sp,sp,-16
    80000a06:	85aa                	mv	a1,a0
    80000a08:	4881                	li	a7,0
    80000a0a:	4801                	li	a6,0
    80000a0c:	4781                	li	a5,0
    80000a0e:	4701                	li	a4,0
    80000a10:	4681                	li	a3,0
    80000a12:	4601                	li	a2,0
    80000a14:	05d00513          	li	a0,93
    80000a18:	e406                	sd	ra,8(sp)
    80000a1a:	f89ff0ef          	jal	ra,800009a2 <frontend_syscall>
    80000a1e:	a001                	j	80000a1e <shutdown+0x1a>

0000000080000a20 <copy_stat>:
    80000a20:	0005b383          	ld	t2,0(a1)
    80000a24:	0085b283          	ld	t0,8(a1)
    80000a28:	0105af83          	lw	t6,16(a1)
    80000a2c:	0145af03          	lw	t5,20(a1)
    80000a30:	0185ae83          	lw	t4,24(a1)
    80000a34:	01c5ae03          	lw	t3,28(a1)
    80000a38:	0205b303          	ld	t1,32(a1)
    80000a3c:	0305b883          	ld	a7,48(a1)
    80000a40:	0385e803          	lwu	a6,56(a1)
    80000a44:	61b0                	ld	a2,64(a1)
    80000a46:	65b4                	ld	a3,72(a1)
    80000a48:	6db8                	ld	a4,88(a1)
    80000a4a:	75bc                	ld	a5,104(a1)
    80000a4c:	00751023          	sh	t2,0(a0)
    80000a50:	00551123          	sh	t0,2(a0)
    80000a54:	01f52223          	sw	t6,4(a0)
    80000a58:	01e51423          	sh	t5,8(a0)
    80000a5c:	01d51523          	sh	t4,10(a0)
    80000a60:	01c51623          	sh	t3,12(a0)
    80000a64:	00651723          	sh	t1,14(a0)
    80000a68:	01153823          	sd	a7,16(a0)
    80000a6c:	05053423          	sd	a6,72(a0)
    80000a70:	e930                	sd	a2,80(a0)
    80000a72:	ed14                	sd	a3,24(a0)
    80000a74:	f518                	sd	a4,40(a0)
    80000a76:	fd1c                	sd	a5,56(a0)
    80000a78:	8082                	ret

0000000080000a7a <load_elf_test>:
    80000a7a:	7135                	addi	sp,sp,-160
    80000a7c:	fcce                	sd	s3,120(sp)
    80000a7e:	4601                	li	a2,0
    80000a80:	89ae                	mv	s3,a1
    80000a82:	4581                	li	a1,0
    80000a84:	e8e2                	sd	s8,80(sp)
    80000a86:	ed06                	sd	ra,152(sp)
    80000a88:	e922                	sd	s0,144(sp)
    80000a8a:	e526                	sd	s1,136(sp)
    80000a8c:	e14a                	sd	s2,128(sp)
    80000a8e:	f8d2                	sd	s4,112(sp)
    80000a90:	f4d6                	sd	s5,104(sp)
    80000a92:	f0da                	sd	s6,96(sp)
    80000a94:	ecde                	sd	s7,88(sp)
    80000a96:	e4e6                	sd	s9,72(sp)
    80000a98:	e0ea                	sd	s10,64(sp)
    80000a9a:	8c2a                	mv	s8,a0
    80000a9c:	c03ff0ef          	jal	ra,8000069e <file_open>
    80000aa0:	77fd                	lui	a5,0xfffff
    80000aa2:	16f57063          	bgeu	a0,a5,80000c02 <load_elf_test+0x188>
    80000aa6:	4681                	li	a3,0
    80000aa8:	04000613          	li	a2,64
    80000aac:	858a                	mv	a1,sp
    80000aae:	8aaa                	mv	s5,a0
    80000ab0:	cb1ff0ef          	jal	ra,80000760 <file_pread>
    80000ab4:	03f00793          	li	a5,63
    80000ab8:	14a7d563          	bge	a5,a0,80000c02 <load_elf_test+0x188>
    80000abc:	6782                	ld	a5,0(sp)
    80000abe:	464c4737          	lui	a4,0x464c4
    80000ac2:	57f70713          	addi	a4,a4,1407 # 464c457f <_ftext-0x39b3ba81>
    80000ac6:	02079693          	slli	a3,a5,0x20
    80000aca:	9281                	srli	a3,a3,0x20
    80000acc:	54fd                	li	s1,-1
    80000ace:	12e69a63          	bne	a3,a4,80000c02 <load_elf_test+0x188>
    80000ad2:	0184d713          	srli	a4,s1,0x18
    80000ad6:	8ff9                	and	a5,a5,a4
    80000ad8:	0000b717          	auipc	a4,0xb
    80000adc:	9a873703          	ld	a4,-1624(a4) # 8000b480 <trap_table+0x40>
    80000ae0:	12e79863          	bne	a5,a4,80000c10 <load_elf_test+0x196>
    80000ae4:	03815603          	lhu	a2,56(sp)
    80000ae8:	0189b783          	ld	a5,24(s3)
    80000aec:	00361413          	slli	s0,a2,0x3
    80000af0:	8c11                	sub	s0,s0,a2
    80000af2:	040e                	slli	s0,s0,0x3
    80000af4:	1087e763          	bltu	a5,s0,80000c02 <load_elf_test+0x188>
    80000af8:	7682                	ld	a3,32(sp)
    80000afa:	0109b583          	ld	a1,16(s3)
    80000afe:	8622                	mv	a2,s0
    80000b00:	8556                	mv	a0,s5
    80000b02:	c5fff0ef          	jal	ra,80000760 <file_pread>
    80000b06:	0e854e63          	blt	a0,s0,80000c02 <load_elf_test+0x188>
    80000b0a:	01015a03          	lhu	s4,16(sp)
    80000b0e:	03815683          	lhu	a3,56(sp)
    80000b12:	6762                	ld	a4,24(sp)
    80000b14:	1a75                	addi	s4,s4,-3
    80000b16:	001a3a13          	seqz	s4,s4
    80000b1a:	0a32                	slli	s4,s4,0xc
    80000b1c:	0006879b          	sext.w	a5,a3
    80000b20:	9752                	add	a4,a4,s4
    80000b22:	03800613          	li	a2,56
    80000b26:	00f9a223          	sw	a5,4(s3)
    80000b2a:	00c9a023          	sw	a2,0(s3)
    80000b2e:	02e9b423          	sd	a4,40(s3)
    80000b32:	37fd                	addiw	a5,a5,-1
    80000b34:	0109b583          	ld	a1,16(s3)
    80000b38:	0a978763          	beq	a5,s1,80000be6 <load_elf_test+0x16c>
    80000b3c:	fff6871b          	addiw	a4,a3,-1
    80000b40:	02071613          	slli	a2,a4,0x20
    80000b44:	00369493          	slli	s1,a3,0x3
    80000b48:	9201                	srli	a2,a2,0x20
    80000b4a:	8c95                	sub	s1,s1,a3
    80000b4c:	00379413          	slli	s0,a5,0x3
    80000b50:	048e                	slli	s1,s1,0x3
    80000b52:	00361713          	slli	a4,a2,0x3
    80000b56:	8c1d                	sub	s0,s0,a5
    80000b58:	f9048493          	addi	s1,s1,-112
    80000b5c:	8f11                	sub	a4,a4,a2
    80000b5e:	040e                	slli	s0,s0,0x3
    80000b60:	94ae                	add	s1,s1,a1
    80000b62:	070e                	slli	a4,a4,0x3
    80000b64:	6b85                	lui	s7,0x1
    80000b66:	6b21                	lui	s6,0x8
    80000b68:	942e                	add	s0,s0,a1
    80000b6a:	8c99                	sub	s1,s1,a4
    80000b6c:	4c85                	li	s9,1
    80000b6e:	1bfd                	addi	s7,s7,-1
    80000b70:	0b49                	addi	s6,s6,18
    80000b72:	a029                	j	80000b7c <load_elf_test+0x102>
    80000b74:	fc840413          	addi	s0,s0,-56
    80000b78:	06940763          	beq	s0,s1,80000be6 <load_elf_test+0x16c>
    80000b7c:	401c                	lw	a5,0(s0)
    80000b7e:	ff979be3          	bne	a5,s9,80000b74 <load_elf_test+0xfa>
    80000b82:	741c                	ld	a5,40(s0)
    80000b84:	dbe5                	beqz	a5,80000b74 <load_elf_test+0xfa>
    80000b86:	01043903          	ld	s2,16(s0)
    80000b8a:	0309b703          	ld	a4,48(s3)
    80000b8e:	01490d33          	add	s10,s2,s4
    80000b92:	97ea                	add	a5,a5,s10
    80000b94:	01797933          	and	s2,s2,s7
    80000b98:	00f77463          	bgeu	a4,a5,80000ba0 <load_elf_test+0x126>
    80000b9c:	02f9b823          	sd	a5,48(s3)
    80000ba0:	86da                	mv	a3,s6
    80000ba2:	00091363          	bnez	s2,80000ba8 <load_elf_test+0x12e>
    80000ba6:	46c9                	li	a3,18
    80000ba8:	4058                	lw	a4,4(s0)
    80000baa:	641c                	ld	a5,8(s0)
    80000bac:	700c                	ld	a1,32(s0)
    80000bae:	0027161b          	slliw	a2,a4,0x2
    80000bb2:	0027571b          	srliw	a4,a4,0x2
    80000bb6:	8b05                	andi	a4,a4,1
    80000bb8:	8a11                	andi	a2,a2,4
    80000bba:	412d0d33          	sub	s10,s10,s2
    80000bbe:	8e59                	or	a2,a2,a4
    80000bc0:	412787b3          	sub	a5,a5,s2
    80000bc4:	8756                	mv	a4,s5
    80000bc6:	00266613          	ori	a2,a2,2
    80000bca:	95ca                	add	a1,a1,s2
    80000bcc:	856a                	mv	a0,s10
    80000bce:	789000ef          	jal	ra,80001b56 <__do_mmap>
    80000bd2:	02ad1863          	bne	s10,a0,80000c02 <load_elf_test+0x188>
    80000bd6:	864a                	mv	a2,s2
    80000bd8:	4581                	li	a1,0
    80000bda:	fc840413          	addi	s0,s0,-56
    80000bde:	011060ef          	jal	ra,800073ee <memset>
    80000be2:	f8941de3          	bne	s0,s1,80000b7c <load_elf_test+0x102>
    80000be6:	60ea                	ld	ra,152(sp)
    80000be8:	644a                	ld	s0,144(sp)
    80000bea:	64aa                	ld	s1,136(sp)
    80000bec:	690a                	ld	s2,128(sp)
    80000bee:	79e6                	ld	s3,120(sp)
    80000bf0:	7a46                	ld	s4,112(sp)
    80000bf2:	7aa6                	ld	s5,104(sp)
    80000bf4:	7b06                	ld	s6,96(sp)
    80000bf6:	6be6                	ld	s7,88(sp)
    80000bf8:	6c46                	ld	s8,80(sp)
    80000bfa:	6ca6                	ld	s9,72(sp)
    80000bfc:	6d06                	ld	s10,64(sp)
    80000bfe:	610d                	addi	sp,sp,160
    80000c00:	8082                	ret
    80000c02:	85e2                	mv	a1,s8
    80000c04:	00007517          	auipc	a0,0x7
    80000c08:	4dc50513          	addi	a0,a0,1244 # 800080e0 <illegal_insn_trap_table+0x1a4>
    80000c0c:	56e000ef          	jal	ra,8000117a <do_panic>
    80000c10:	00007517          	auipc	a0,0x7
    80000c14:	4b050513          	addi	a0,a0,1200 # 800080c0 <illegal_insn_trap_table+0x184>
    80000c18:	00007697          	auipc	a3,0x7
    80000c1c:	48868693          	addi	a3,a3,1160 # 800080a0 <illegal_insn_trap_table+0x164>
    80000c20:	02700613          	li	a2,39
    80000c24:	00007597          	auipc	a1,0x7
    80000c28:	48c58593          	addi	a1,a1,1164 # 800080b0 <illegal_insn_trap_table+0x174>
    80000c2c:	7b7030ef          	jal	ra,80004be2 <printm>
    80000c30:	6541                	lui	a0,0x10
    80000c32:	157d                	addi	a0,a0,-1
    80000c34:	01e040ef          	jal	ra,80004c52 <poweroff>

0000000080000c38 <load_elf>:
    80000c38:	7131                	addi	sp,sp,-192
    80000c3a:	ed4e                	sd	s3,152(sp)
    80000c3c:	f8e2                	sd	s8,112(sp)
    80000c3e:	89ae                	mv	s3,a1
    80000c40:	8c2a                	mv	s8,a0
    80000c42:	00018597          	auipc	a1,0x18
    80000c46:	6b65b583          	ld	a1,1718(a1) # 800192f8 <root_page_table>
    80000c4a:	00007517          	auipc	a0,0x7
    80000c4e:	4be50513          	addi	a0,a0,1214 # 80008108 <illegal_insn_trap_table+0x1cc>
    80000c52:	fd06                	sd	ra,184(sp)
    80000c54:	f922                	sd	s0,176(sp)
    80000c56:	f526                	sd	s1,168(sp)
    80000c58:	f14a                	sd	s2,160(sp)
    80000c5a:	e952                	sd	s4,144(sp)
    80000c5c:	e556                	sd	s5,136(sp)
    80000c5e:	e15a                	sd	s6,128(sp)
    80000c60:	fcde                	sd	s7,120(sp)
    80000c62:	f4e6                	sd	s9,104(sp)
    80000c64:	f0ea                	sd	s10,96(sp)
    80000c66:	ecee                	sd	s11,88(sp)
    80000c68:	e462                	sd	s8,8(sp)
    80000c6a:	440000ef          	jal	ra,800010aa <printk>
    80000c6e:	4601                	li	a2,0
    80000c70:	4581                	li	a1,0
    80000c72:	8562                	mv	a0,s8
    80000c74:	a2bff0ef          	jal	ra,8000069e <file_open>
    80000c78:	77fd                	lui	a5,0xfffff
    80000c7a:	18f57363          	bgeu	a0,a5,80000e00 <load_elf+0x1c8>
    80000c7e:	4681                	li	a3,0
    80000c80:	04000613          	li	a2,64
    80000c84:	080c                	addi	a1,sp,16
    80000c86:	8aaa                	mv	s5,a0
    80000c88:	ad9ff0ef          	jal	ra,80000760 <file_pread>
    80000c8c:	03f00793          	li	a5,63
    80000c90:	16a7d863          	bge	a5,a0,80000e00 <load_elf+0x1c8>
    80000c94:	67c2                	ld	a5,16(sp)
    80000c96:	464c4737          	lui	a4,0x464c4
    80000c9a:	57f70713          	addi	a4,a4,1407 # 464c457f <_ftext-0x39b3ba81>
    80000c9e:	02079693          	slli	a3,a5,0x20
    80000ca2:	9281                	srli	a3,a3,0x20
    80000ca4:	54fd                	li	s1,-1
    80000ca6:	14e69d63          	bne	a3,a4,80000e00 <load_elf+0x1c8>
    80000caa:	0184d713          	srli	a4,s1,0x18
    80000cae:	8ff9                	and	a5,a5,a4
    80000cb0:	0000a717          	auipc	a4,0xa
    80000cb4:	7d073703          	ld	a4,2000(a4) # 8000b480 <trap_table+0x40>
    80000cb8:	18e79563          	bne	a5,a4,80000e42 <load_elf+0x20a>
    80000cbc:	04815603          	lhu	a2,72(sp)
    80000cc0:	0189b783          	ld	a5,24(s3)
    80000cc4:	00361413          	slli	s0,a2,0x3
    80000cc8:	8c11                	sub	s0,s0,a2
    80000cca:	040e                	slli	s0,s0,0x3
    80000ccc:	1287ea63          	bltu	a5,s0,80000e00 <load_elf+0x1c8>
    80000cd0:	76c2                	ld	a3,48(sp)
    80000cd2:	0109b583          	ld	a1,16(s3)
    80000cd6:	8622                	mv	a2,s0
    80000cd8:	8556                	mv	a0,s5
    80000cda:	a87ff0ef          	jal	ra,80000760 <file_pread>
    80000cde:	12854163          	blt	a0,s0,80000e00 <load_elf+0x1c8>
    80000ce2:	02015a03          	lhu	s4,32(sp)
    80000ce6:	04815683          	lhu	a3,72(sp)
    80000cea:	7722                	ld	a4,40(sp)
    80000cec:	1a75                	addi	s4,s4,-3
    80000cee:	001a3a13          	seqz	s4,s4
    80000cf2:	0a32                	slli	s4,s4,0xc
    80000cf4:	0006879b          	sext.w	a5,a3
    80000cf8:	9752                	add	a4,a4,s4
    80000cfa:	03800613          	li	a2,56
    80000cfe:	00f9a223          	sw	a5,4(s3)
    80000d02:	00c9a023          	sw	a2,0(s3)
    80000d06:	02e9b423          	sd	a4,40(s3)
    80000d0a:	37fd                	addiw	a5,a5,-1
    80000d0c:	0109b583          	ld	a1,16(s3)
    80000d10:	10978763          	beq	a5,s1,80000e1e <load_elf+0x1e6>
    80000d14:	fff6871b          	addiw	a4,a3,-1
    80000d18:	02071613          	slli	a2,a4,0x20
    80000d1c:	00369d13          	slli	s10,a3,0x3
    80000d20:	9201                	srli	a2,a2,0x20
    80000d22:	40dd0d33          	sub	s10,s10,a3
    80000d26:	00379413          	slli	s0,a5,0x3
    80000d2a:	0d0e                	slli	s10,s10,0x3
    80000d2c:	00361713          	slli	a4,a2,0x3
    80000d30:	8c1d                	sub	s0,s0,a5
    80000d32:	f90d0d13          	addi	s10,s10,-112
    80000d36:	8f11                	sub	a4,a4,a2
    80000d38:	040e                	slli	s0,s0,0x3
    80000d3a:	9d2e                	add	s10,s10,a1
    80000d3c:	070e                	slli	a4,a4,0x3
    80000d3e:	6b85                	lui	s7,0x1
    80000d40:	6b21                	lui	s6,0x8
    80000d42:	942e                	add	s0,s0,a1
    80000d44:	40ed0d33          	sub	s10,s10,a4
    80000d48:	4d85                	li	s11,1
    80000d4a:	1bfd                	addi	s7,s7,-1
    80000d4c:	0b49                	addi	s6,s6,18
    80000d4e:	a029                	j	80000d58 <load_elf+0x120>
    80000d50:	fc840413          	addi	s0,s0,-56
    80000d54:	0da40563          	beq	s0,s10,80000e1e <load_elf+0x1e6>
    80000d58:	401c                	lw	a5,0(s0)
    80000d5a:	ffb79be3          	bne	a5,s11,80000d50 <load_elf+0x118>
    80000d5e:	741c                	ld	a5,40(s0)
    80000d60:	dbe5                	beqz	a5,80000d50 <load_elf+0x118>
    80000d62:	01043c83          	ld	s9,16(s0)
    80000d66:	0309b703          	ld	a4,48(s3)
    80000d6a:	014c8933          	add	s2,s9,s4
    80000d6e:	97ca                	add	a5,a5,s2
    80000d70:	017cfcb3          	and	s9,s9,s7
    80000d74:	00f77463          	bgeu	a4,a5,80000d7c <load_elf+0x144>
    80000d78:	02f9b823          	sd	a5,48(s3)
    80000d7c:	86da                	mv	a3,s6
    80000d7e:	000c9363          	bnez	s9,80000d84 <load_elf+0x14c>
    80000d82:	46c9                	li	a3,18
    80000d84:	4058                	lw	a4,4(s0)
    80000d86:	641c                	ld	a5,8(s0)
    80000d88:	700c                	ld	a1,32(s0)
    80000d8a:	0027149b          	slliw	s1,a4,0x2
    80000d8e:	0027561b          	srliw	a2,a4,0x2
    80000d92:	8a05                	andi	a2,a2,1
    80000d94:	8891                	andi	s1,s1,4
    80000d96:	8cd1                	or	s1,s1,a2
    80000d98:	0024e613          	ori	a2,s1,2
    80000d9c:	41990c33          	sub	s8,s2,s9
    80000da0:	00277813          	andi	a6,a4,2
    80000da4:	419787b3          	sub	a5,a5,s9
    80000da8:	8756                	mv	a4,s5
    80000daa:	2601                	sext.w	a2,a2
    80000dac:	95e6                	add	a1,a1,s9
    80000dae:	8562                	mv	a0,s8
    80000db0:	0104e4b3          	or	s1,s1,a6
    80000db4:	5a3000ef          	jal	ra,80001b56 <__do_mmap>
    80000db8:	04ac1463          	bne	s8,a0,80000e00 <load_elf+0x1c8>
    80000dbc:	8666                	mv	a2,s9
    80000dbe:	4581                	li	a1,0
    80000dc0:	62e060ef          	jal	ra,800073ee <memset>
    80000dc4:	0024f793          	andi	a5,s1,2
    80000dc8:	c3b9                	beqz	a5,80000e0e <load_elf+0x1d6>
    80000dca:	02043803          	ld	a6,32(s0)
    80000dce:	740c                	ld	a1,40(s0)
    80000dd0:	187d                	addi	a6,a6,-1
    80000dd2:	9866                	add	a6,a6,s9
    80000dd4:	00c85813          	srli	a6,a6,0xc
    80000dd8:	0805                	addi	a6,a6,1
    80000dda:	0832                	slli	a6,a6,0xc
    80000ddc:	419807b3          	sub	a5,a6,s9
    80000de0:	f6b7f8e3          	bgeu	a5,a1,80000d50 <load_elf+0x118>
    80000de4:	993e                	add	s2,s2,a5
    80000de6:	95e6                	add	a1,a1,s9
    80000de8:	4781                	li	a5,0
    80000dea:	4701                	li	a4,0
    80000dec:	03200693          	li	a3,50
    80000df0:	8626                	mv	a2,s1
    80000df2:	410585b3          	sub	a1,a1,a6
    80000df6:	854a                	mv	a0,s2
    80000df8:	55f000ef          	jal	ra,80001b56 <__do_mmap>
    80000dfc:	f4a90ae3          	beq	s2,a0,80000d50 <load_elf+0x118>
    80000e00:	65a2                	ld	a1,8(sp)
    80000e02:	00007517          	auipc	a0,0x7
    80000e06:	31e50513          	addi	a0,a0,798 # 80008120 <illegal_insn_trap_table+0x1e4>
    80000e0a:	370000ef          	jal	ra,8000117a <do_panic>
    80000e0e:	700c                	ld	a1,32(s0)
    80000e10:	8626                	mv	a2,s1
    80000e12:	8562                	mv	a0,s8
    80000e14:	95e6                	add	a1,a1,s9
    80000e16:	6d4000ef          	jal	ra,800014ea <do_mprotect>
    80000e1a:	d945                	beqz	a0,80000dca <load_elf+0x192>
    80000e1c:	b7d5                	j	80000e00 <load_elf+0x1c8>
    80000e1e:	8556                	mv	a0,s5
    80000e20:	ef4ff0ef          	jal	ra,80000514 <file_decref>
    80000e24:	70ea                	ld	ra,184(sp)
    80000e26:	744a                	ld	s0,176(sp)
    80000e28:	74aa                	ld	s1,168(sp)
    80000e2a:	790a                	ld	s2,160(sp)
    80000e2c:	69ea                	ld	s3,152(sp)
    80000e2e:	6a4a                	ld	s4,144(sp)
    80000e30:	6aaa                	ld	s5,136(sp)
    80000e32:	6b0a                	ld	s6,128(sp)
    80000e34:	7be6                	ld	s7,120(sp)
    80000e36:	7c46                	ld	s8,112(sp)
    80000e38:	7ca6                	ld	s9,104(sp)
    80000e3a:	7d06                	ld	s10,96(sp)
    80000e3c:	6de6                	ld	s11,88(sp)
    80000e3e:	6129                	addi	sp,sp,192
    80000e40:	8082                	ret
    80000e42:	00007517          	auipc	a0,0x7
    80000e46:	27e50513          	addi	a0,a0,638 # 800080c0 <illegal_insn_trap_table+0x184>
    80000e4a:	00007697          	auipc	a3,0x7
    80000e4e:	25668693          	addi	a3,a3,598 # 800080a0 <illegal_insn_trap_table+0x164>
    80000e52:	06b00613          	li	a2,107
    80000e56:	00007597          	auipc	a1,0x7
    80000e5a:	25a58593          	addi	a1,a1,602 # 800080b0 <illegal_insn_trap_table+0x174>
    80000e5e:	585030ef          	jal	ra,80004be2 <printm>
    80000e62:	6541                	lui	a0,0x10
    80000e64:	157d                	addi	a0,a0,-1
    80000e66:	5ed030ef          	jal	ra,80004c52 <poweroff>

0000000080000e6a <load_elf_user>:
    80000e6a:	7131                	addi	sp,sp,-192
    80000e6c:	e952                	sd	s4,144(sp)
    80000e6e:	ecee                	sd	s11,88(sp)
    80000e70:	8a32                	mv	s4,a2
    80000e72:	8dae                	mv	s11,a1
    80000e74:	4601                	li	a2,0
    80000e76:	4581                	li	a1,0
    80000e78:	fd06                	sd	ra,184(sp)
    80000e7a:	f922                	sd	s0,176(sp)
    80000e7c:	f526                	sd	s1,168(sp)
    80000e7e:	f14a                	sd	s2,160(sp)
    80000e80:	ed4e                	sd	s3,152(sp)
    80000e82:	e556                	sd	s5,136(sp)
    80000e84:	e15a                	sd	s6,128(sp)
    80000e86:	fcde                	sd	s7,120(sp)
    80000e88:	f8e2                	sd	s8,112(sp)
    80000e8a:	f4e6                	sd	s9,104(sp)
    80000e8c:	f0ea                	sd	s10,96(sp)
    80000e8e:	e42a                	sd	a0,8(sp)
    80000e90:	80fff0ef          	jal	ra,8000069e <file_open>
    80000e94:	77fd                	lui	a5,0xfffff
    80000e96:	18f57163          	bgeu	a0,a5,80001018 <load_elf_user+0x1ae>
    80000e9a:	4681                	li	a3,0
    80000e9c:	04000613          	li	a2,64
    80000ea0:	080c                	addi	a1,sp,16
    80000ea2:	89aa                	mv	s3,a0
    80000ea4:	8bdff0ef          	jal	ra,80000760 <file_pread>
    80000ea8:	03f00793          	li	a5,63
    80000eac:	16a7d663          	bge	a5,a0,80001018 <load_elf_user+0x1ae>
    80000eb0:	67c2                	ld	a5,16(sp)
    80000eb2:	464c4737          	lui	a4,0x464c4
    80000eb6:	57f70713          	addi	a4,a4,1407 # 464c457f <_ftext-0x39b3ba81>
    80000eba:	02079693          	slli	a3,a5,0x20
    80000ebe:	9281                	srli	a3,a3,0x20
    80000ec0:	54fd                	li	s1,-1
    80000ec2:	14e69b63          	bne	a3,a4,80001018 <load_elf_user+0x1ae>
    80000ec6:	0184d713          	srli	a4,s1,0x18
    80000eca:	8ff9                	and	a5,a5,a4
    80000ecc:	0000a717          	auipc	a4,0xa
    80000ed0:	5b473703          	ld	a4,1460(a4) # 8000b480 <trap_table+0x40>
    80000ed4:	16e79b63          	bne	a5,a4,8000104a <load_elf_user+0x1e0>
    80000ed8:	04815603          	lhu	a2,72(sp)
    80000edc:	018db783          	ld	a5,24(s11)
    80000ee0:	00361413          	slli	s0,a2,0x3
    80000ee4:	8c11                	sub	s0,s0,a2
    80000ee6:	040e                	slli	s0,s0,0x3
    80000ee8:	1287e863          	bltu	a5,s0,80001018 <load_elf_user+0x1ae>
    80000eec:	76c2                	ld	a3,48(sp)
    80000eee:	010db583          	ld	a1,16(s11)
    80000ef2:	8622                	mv	a2,s0
    80000ef4:	854e                	mv	a0,s3
    80000ef6:	86bff0ef          	jal	ra,80000760 <file_pread>
    80000efa:	10854f63          	blt	a0,s0,80001018 <load_elf_user+0x1ae>
    80000efe:	02015903          	lhu	s2,32(sp)
    80000f02:	04815683          	lhu	a3,72(sp)
    80000f06:	7722                	ld	a4,40(sp)
    80000f08:	1975                	addi	s2,s2,-3
    80000f0a:	00193913          	seqz	s2,s2
    80000f0e:	0932                	slli	s2,s2,0xc
    80000f10:	0006879b          	sext.w	a5,a3
    80000f14:	974a                	add	a4,a4,s2
    80000f16:	03800613          	li	a2,56
    80000f1a:	00fda223          	sw	a5,4(s11)
    80000f1e:	00cda023          	sw	a2,0(s11)
    80000f22:	02edb423          	sd	a4,40(s11)
    80000f26:	37fd                	addiw	a5,a5,-1
    80000f28:	010db583          	ld	a1,16(s11)
    80000f2c:	0e978d63          	beq	a5,s1,80001026 <load_elf_user+0x1bc>
    80000f30:	fff6871b          	addiw	a4,a3,-1
    80000f34:	02071613          	slli	a2,a4,0x20
    80000f38:	00369c93          	slli	s9,a3,0x3
    80000f3c:	9201                	srli	a2,a2,0x20
    80000f3e:	40dc8cb3          	sub	s9,s9,a3
    80000f42:	00379413          	slli	s0,a5,0x3
    80000f46:	0c8e                	slli	s9,s9,0x3
    80000f48:	00361713          	slli	a4,a2,0x3
    80000f4c:	8c1d                	sub	s0,s0,a5
    80000f4e:	f90c8c93          	addi	s9,s9,-112
    80000f52:	8f11                	sub	a4,a4,a2
    80000f54:	6aa1                	lui	s5,0x8
    80000f56:	040e                	slli	s0,s0,0x3
    80000f58:	9cae                	add	s9,s9,a1
    80000f5a:	070e                	slli	a4,a4,0x3
    80000f5c:	6b05                	lui	s6,0x1
    80000f5e:	012a8793          	addi	a5,s5,18 # 8012 <_ftext-0x7fff7fee>
    80000f62:	942e                	add	s0,s0,a1
    80000f64:	40ec8cb3          	sub	s9,s9,a4
    80000f68:	4d05                	li	s10,1
    80000f6a:	1b7d                	addi	s6,s6,-1
    80000f6c:	e03e                	sd	a5,0(sp)
    80000f6e:	a029                	j	80000f78 <load_elf_user+0x10e>
    80000f70:	fc840413          	addi	s0,s0,-56
    80000f74:	0b940963          	beq	s0,s9,80001026 <load_elf_user+0x1bc>
    80000f78:	401c                	lw	a5,0(s0)
    80000f7a:	ffa79be3          	bne	a5,s10,80000f70 <load_elf_user+0x106>
    80000f7e:	741c                	ld	a5,40(s0)
    80000f80:	dbe5                	beqz	a5,80000f70 <load_elf_user+0x106>
    80000f82:	01043c03          	ld	s8,16(s0)
    80000f86:	030db703          	ld	a4,48(s11)
    80000f8a:	012c0bb3          	add	s7,s8,s2
    80000f8e:	97de                	add	a5,a5,s7
    80000f90:	016c7c33          	and	s8,s8,s6
    80000f94:	00f77463          	bgeu	a4,a5,80000f9c <load_elf_user+0x132>
    80000f98:	02fdb823          	sd	a5,48(s11)
    80000f9c:	6682                	ld	a3,0(sp)
    80000f9e:	000c1363          	bnez	s8,80000fa4 <load_elf_user+0x13a>
    80000fa2:	46c9                	li	a3,18
    80000fa4:	4058                	lw	a4,4(s0)
    80000fa6:	641c                	ld	a5,8(s0)
    80000fa8:	700c                	ld	a1,32(s0)
    80000faa:	0027149b          	slliw	s1,a4,0x2
    80000fae:	0027561b          	srliw	a2,a4,0x2
    80000fb2:	8a05                	andi	a2,a2,1
    80000fb4:	8891                	andi	s1,s1,4
    80000fb6:	8cd1                	or	s1,s1,a2
    80000fb8:	0024e613          	ori	a2,s1,2
    80000fbc:	418b8e33          	sub	t3,s7,s8
    80000fc0:	00277893          	andi	a7,a4,2
    80000fc4:	8852                	mv	a6,s4
    80000fc6:	418787b3          	sub	a5,a5,s8
    80000fca:	874e                	mv	a4,s3
    80000fcc:	2601                	sext.w	a2,a2
    80000fce:	95e2                	add	a1,a1,s8
    80000fd0:	8572                	mv	a0,t3
    80000fd2:	8af2                	mv	s5,t3
    80000fd4:	0114e4b3          	or	s1,s1,a7
    80000fd8:	75d000ef          	jal	ra,80001f34 <__do_mmap_user>
    80000fdc:	02aa9e63          	bne	s5,a0,80001018 <load_elf_user+0x1ae>
    80000fe0:	02043883          	ld	a7,32(s0)
    80000fe4:	740c                	ld	a1,40(s0)
    80000fe6:	18fd                	addi	a7,a7,-1
    80000fe8:	98e2                	add	a7,a7,s8
    80000fea:	00c8d893          	srli	a7,a7,0xc
    80000fee:	0885                	addi	a7,a7,1
    80000ff0:	08b2                	slli	a7,a7,0xc
    80000ff2:	418887b3          	sub	a5,a7,s8
    80000ff6:	f6b7fde3          	bgeu	a5,a1,80000f70 <load_elf_user+0x106>
    80000ffa:	9bbe                	add	s7,s7,a5
    80000ffc:	95e2                	add	a1,a1,s8
    80000ffe:	8852                	mv	a6,s4
    80001000:	4781                	li	a5,0
    80001002:	4701                	li	a4,0
    80001004:	03200693          	li	a3,50
    80001008:	8626                	mv	a2,s1
    8000100a:	411585b3          	sub	a1,a1,a7
    8000100e:	855e                	mv	a0,s7
    80001010:	725000ef          	jal	ra,80001f34 <__do_mmap_user>
    80001014:	f4ab8ee3          	beq	s7,a0,80000f70 <load_elf_user+0x106>
    80001018:	65a2                	ld	a1,8(sp)
    8000101a:	00007517          	auipc	a0,0x7
    8000101e:	10650513          	addi	a0,a0,262 # 80008120 <illegal_insn_trap_table+0x1e4>
    80001022:	158000ef          	jal	ra,8000117a <do_panic>
    80001026:	854e                	mv	a0,s3
    80001028:	cecff0ef          	jal	ra,80000514 <file_decref>
    8000102c:	70ea                	ld	ra,184(sp)
    8000102e:	744a                	ld	s0,176(sp)
    80001030:	74aa                	ld	s1,168(sp)
    80001032:	790a                	ld	s2,160(sp)
    80001034:	69ea                	ld	s3,152(sp)
    80001036:	6a4a                	ld	s4,144(sp)
    80001038:	6aaa                	ld	s5,136(sp)
    8000103a:	6b0a                	ld	s6,128(sp)
    8000103c:	7be6                	ld	s7,120(sp)
    8000103e:	7c46                	ld	s8,112(sp)
    80001040:	7ca6                	ld	s9,104(sp)
    80001042:	7d06                	ld	s10,96(sp)
    80001044:	6de6                	ld	s11,88(sp)
    80001046:	6129                	addi	sp,sp,192
    80001048:	8082                	ret
    8000104a:	00007517          	auipc	a0,0x7
    8000104e:	07650513          	addi	a0,a0,118 # 800080c0 <illegal_insn_trap_table+0x184>
    80001052:	00007697          	auipc	a3,0x7
    80001056:	04e68693          	addi	a3,a3,78 # 800080a0 <illegal_insn_trap_table+0x164>
    8000105a:	0b900613          	li	a2,185
    8000105e:	00007597          	auipc	a1,0x7
    80001062:	05258593          	addi	a1,a1,82 # 800080b0 <illegal_insn_trap_table+0x174>
    80001066:	37d030ef          	jal	ra,80004be2 <printm>
    8000106a:	6541                	lui	a0,0x10
    8000106c:	157d                	addi	a0,a0,-1
    8000106e:	3e5030ef          	jal	ra,80004c52 <poweroff>

0000000080001072 <vprintk>:
    80001072:	716d                	addi	sp,sp,-272
    80001074:	862a                	mv	a2,a0
    80001076:	86ae                	mv	a3,a1
    80001078:	850a                	mv	a0,sp
    8000107a:	10000593          	li	a1,256
    8000107e:	e606                	sd	ra,264(sp)
    80001080:	0ca060ef          	jal	ra,8000714a <vsnprintf>
    80001084:	0005071b          	sext.w	a4,a0
    80001088:	0ff00793          	li	a5,255
    8000108c:	10000613          	li	a2,256
    80001090:	00e7e363          	bltu	a5,a4,80001096 <vprintk+0x24>
    80001094:	862a                	mv	a2,a0
    80001096:	858a                	mv	a1,sp
    80001098:	0000a517          	auipc	a0,0xa
    8000109c:	f7850513          	addi	a0,a0,-136 # 8000b010 <files+0x10>
    800010a0:	f60ff0ef          	jal	ra,80000800 <file_write>
    800010a4:	60b2                	ld	ra,264(sp)
    800010a6:	6151                	addi	sp,sp,272
    800010a8:	8082                	ret

00000000800010aa <printk>:
    800010aa:	711d                	addi	sp,sp,-96
    800010ac:	02810313          	addi	t1,sp,40
    800010b0:	f42e                	sd	a1,40(sp)
    800010b2:	859a                	mv	a1,t1
    800010b4:	ec06                	sd	ra,24(sp)
    800010b6:	f832                	sd	a2,48(sp)
    800010b8:	fc36                	sd	a3,56(sp)
    800010ba:	e0ba                	sd	a4,64(sp)
    800010bc:	e4be                	sd	a5,72(sp)
    800010be:	e8c2                	sd	a6,80(sp)
    800010c0:	ecc6                	sd	a7,88(sp)
    800010c2:	e41a                	sd	t1,8(sp)
    800010c4:	fafff0ef          	jal	ra,80001072 <vprintk>
    800010c8:	60e2                	ld	ra,24(sp)
    800010ca:	6125                	addi	sp,sp,96
    800010cc:	8082                	ret

00000000800010ce <dump_tf>:
    800010ce:	7139                	addi	sp,sp,-64
    800010d0:	f426                	sd	s1,40(sp)
    800010d2:	f04a                	sd	s2,32(sp)
    800010d4:	ec4e                	sd	s3,24(sp)
    800010d6:	e852                	sd	s4,16(sp)
    800010d8:	e456                	sd	s5,8(sp)
    800010da:	e05a                	sd	s6,0(sp)
    800010dc:	fc06                	sd	ra,56(sp)
    800010de:	f822                	sd	s0,48(sp)
    800010e0:	00006a17          	auipc	s4,0x6
    800010e4:	410a0a13          	addi	s4,s4,1040 # 800074f0 <regnames.2620>
    800010e8:	892a                	mv	s2,a0
    800010ea:	00053023          	sd	zero,0(a0)
    800010ee:	8b52                	mv	s6,s4
    800010f0:	02000493          	li	s1,32
    800010f4:	00007597          	auipc	a1,0x7
    800010f8:	04c58593          	addi	a1,a1,76 # 80008140 <illegal_insn_trap_table+0x204>
    800010fc:	4601                	li	a2,0
    800010fe:	4a81                	li	s5,0
    80001100:	00007997          	auipc	s3,0x7
    80001104:	04898993          	addi	s3,s3,72 # 80008148 <illegal_insn_trap_table+0x20c>
    80001108:	fe848413          	addi	s0,s1,-24
    8000110c:	02000693          	li	a3,32
    80001110:	854e                	mv	a0,s3
    80001112:	f99ff0ef          	jal	ra,800010aa <printk>
    80001116:	008a0733          	add	a4,s4,s0
    8000111a:	008907b3          	add	a5,s2,s0
    8000111e:	0421                	addi	s0,s0,8
    80001120:	630c                	ld	a1,0(a4)
    80001122:	6390                	ld	a2,0(a5)
    80001124:	fe9414e3          	bne	s0,s1,8000110c <dump_tf+0x3e>
    80001128:	46a9                	li	a3,10
    8000112a:	854e                	mv	a0,s3
    8000112c:	f7fff0ef          	jal	ra,800010aa <printk>
    80001130:	2a91                	addiw	s5,s5,4
    80001132:	02000793          	li	a5,32
    80001136:	020b0b13          	addi	s6,s6,32 # 1020 <_ftext-0x7fffefe0>
    8000113a:	00fa8a63          	beq	s5,a5,8000114e <dump_tf+0x80>
    8000113e:	009907b3          	add	a5,s2,s1
    80001142:	6390                	ld	a2,0(a5)
    80001144:	000b3583          	ld	a1,0(s6)
    80001148:	02048493          	addi	s1,s1,32
    8000114c:	bf75                	j	80001108 <dump_tf+0x3a>
    8000114e:	7442                	ld	s0,48(sp)
    80001150:	10093703          	ld	a4,256(s2)
    80001154:	12092683          	lw	a3,288(s2)
    80001158:	11093603          	ld	a2,272(s2)
    8000115c:	10893583          	ld	a1,264(s2)
    80001160:	70e2                	ld	ra,56(sp)
    80001162:	74a2                	ld	s1,40(sp)
    80001164:	7902                	ld	s2,32(sp)
    80001166:	69e2                	ld	s3,24(sp)
    80001168:	6a42                	ld	s4,16(sp)
    8000116a:	6aa2                	ld	s5,8(sp)
    8000116c:	6b02                	ld	s6,0(sp)
    8000116e:	00007517          	auipc	a0,0x7
    80001172:	fea50513          	addi	a0,a0,-22 # 80008158 <illegal_insn_trap_table+0x21c>
    80001176:	6121                	addi	sp,sp,64
    80001178:	bf0d                	j	800010aa <printk>

000000008000117a <do_panic>:
    8000117a:	711d                	addi	sp,sp,-96
    8000117c:	02810313          	addi	t1,sp,40
    80001180:	f42e                	sd	a1,40(sp)
    80001182:	859a                	mv	a1,t1
    80001184:	ec06                	sd	ra,24(sp)
    80001186:	f832                	sd	a2,48(sp)
    80001188:	fc36                	sd	a3,56(sp)
    8000118a:	e0ba                	sd	a4,64(sp)
    8000118c:	e4be                	sd	a5,72(sp)
    8000118e:	e8c2                	sd	a6,80(sp)
    80001190:	ecc6                	sd	a7,88(sp)
    80001192:	e41a                	sd	t1,8(sp)
    80001194:	edfff0ef          	jal	ra,80001072 <vprintk>
    80001198:	557d                	li	a0,-1
    8000119a:	86bff0ef          	jal	ra,80000a04 <shutdown>

000000008000119e <kassert_fail>:
    8000119e:	1141                	addi	sp,sp,-16
    800011a0:	862a                	mv	a2,a0
    800011a2:	8586                	mv	a1,ra
    800011a4:	00007517          	auipc	a0,0x7
    800011a8:	fdc50513          	addi	a0,a0,-36 # 80008180 <illegal_insn_trap_table+0x244>
    800011ac:	e406                	sd	ra,8(sp)
    800011ae:	fcdff0ef          	jal	ra,8000117a <do_panic>

00000000800011b2 <__page_alloc>:
    800011b2:	00018697          	auipc	a3,0x18
    800011b6:	e7e68693          	addi	a3,a3,-386 # 80019030 <next_free_page>
    800011ba:	629c                	ld	a5,0(a3)
    800011bc:	1141                	addi	sp,sp,-16
    800011be:	e406                	sd	ra,8(sp)
    800011c0:	00018717          	auipc	a4,0x18
    800011c4:	e6873703          	ld	a4,-408(a4) # 80019028 <free_pages>
    800011c8:	02e78363          	beq	a5,a4,800011ee <__page_alloc+0x3c>
    800011cc:	00018617          	auipc	a2,0x18
    800011d0:	e6c63603          	ld	a2,-404(a2) # 80019038 <first_free_page>
    800011d4:	00c79713          	slli	a4,a5,0xc
    800011d8:	9732                	add	a4,a4,a2
    800011da:	0785                	addi	a5,a5,1
    800011dc:	6605                	lui	a2,0x1
    800011de:	4581                	li	a1,0
    800011e0:	853a                	mv	a0,a4
    800011e2:	e29c                	sd	a5,0(a3)
    800011e4:	20a060ef          	jal	ra,800073ee <memset>
    800011e8:	60a2                	ld	ra,8(sp)
    800011ea:	0141                	addi	sp,sp,16
    800011ec:	8082                	ret
    800011ee:	00007517          	auipc	a0,0x7
    800011f2:	0aa50513          	addi	a0,a0,170 # 80008298 <illegal_insn_trap_table+0x35c>
    800011f6:	fa9ff0ef          	jal	ra,8000119e <kassert_fail>

00000000800011fa <__vmr_alloc>:
    800011fa:	7139                	addi	sp,sp,-64
    800011fc:	f822                	sd	s0,48(sp)
    800011fe:	00018417          	auipc	s0,0x18
    80001202:	08240413          	addi	s0,s0,130 # 80019280 <vmrs>
    80001206:	00043803          	ld	a6,0(s0)
    8000120a:	f426                	sd	s1,40(sp)
    8000120c:	f04a                	sd	s2,32(sp)
    8000120e:	ec4e                	sd	s3,24(sp)
    80001210:	e852                	sd	s4,16(sp)
    80001212:	e456                	sd	s5,8(sp)
    80001214:	e05a                	sd	s6,0(sp)
    80001216:	fc06                	sd	ra,56(sp)
    80001218:	8b2a                	mv	s6,a0
    8000121a:	8aae                	mv	s5,a1
    8000121c:	84b2                	mv	s1,a2
    8000121e:	8a36                	mv	s4,a3
    80001220:	89ba                	mv	s3,a4
    80001222:	893e                	mv	s2,a5
    80001224:	04080b63          	beqz	a6,8000127a <__vmr_alloc+0x80>
    80001228:	0ff0000f          	fence
    8000122c:	6000                	ld	s0,0(s0)
    8000122e:	6885                	lui	a7,0x1
    80001230:	18c1                	addi	a7,a7,-16
    80001232:	98a2                	add	a7,a7,s0
    80001234:	a029                	j	8000123e <__vmr_alloc+0x44>
    80001236:	02840413          	addi	s0,s0,40
    8000123a:	06888b63          	beq	a7,s0,800012b0 <__vmr_alloc+0xb6>
    8000123e:	02042803          	lw	a6,32(s0)
    80001242:	fe081ae3          	bnez	a6,80001236 <__vmr_alloc+0x3c>
    80001246:	c481                	beqz	s1,8000124e <__vmr_alloc+0x54>
    80001248:	8526                	mv	a0,s1
    8000124a:	aa6ff0ef          	jal	ra,800004f0 <file_incref>
    8000124e:	01643023          	sd	s6,0(s0)
    80001252:	01543423          	sd	s5,8(s0)
    80001256:	e804                	sd	s1,16(s0)
    80001258:	01443c23          	sd	s4,24(s0)
    8000125c:	03342023          	sw	s3,32(s0)
    80001260:	03242223          	sw	s2,36(s0)
    80001264:	70e2                	ld	ra,56(sp)
    80001266:	8522                	mv	a0,s0
    80001268:	7442                	ld	s0,48(sp)
    8000126a:	74a2                	ld	s1,40(sp)
    8000126c:	7902                	ld	s2,32(sp)
    8000126e:	69e2                	ld	s3,24(sp)
    80001270:	6a42                	ld	s4,16(sp)
    80001272:	6aa2                	ld	s5,8(sp)
    80001274:	6b02                	ld	s6,0(sp)
    80001276:	6121                	addi	sp,sp,64
    80001278:	8082                	ret
    8000127a:	00018897          	auipc	a7,0x18
    8000127e:	dc688893          	addi	a7,a7,-570 # 80019040 <vm_lock>
    80001282:	57fd                	li	a5,-1
    80001284:	0008a803          	lw	a6,0(a7)
    80001288:	2801                	sext.w	a6,a6
    8000128a:	fe081de3          	bnez	a6,80001284 <__vmr_alloc+0x8a>
    8000128e:	883e                	mv	a6,a5
    80001290:	0d08a82f          	amoswap.w.aq	a6,a6,(a7)
    80001294:	2801                	sext.w	a6,a6
    80001296:	0ff0000f          	fence
    8000129a:	fe0815e3          	bnez	a6,80001284 <__vmr_alloc+0x8a>
    8000129e:	601c                	ld	a5,0(s0)
    800012a0:	cb91                	beqz	a5,800012b4 <__vmr_alloc+0xba>
    800012a2:	0ff0000f          	fence
    800012a6:	00018797          	auipc	a5,0x18
    800012aa:	d807ad23          	sw	zero,-614(a5) # 80019040 <vm_lock>
    800012ae:	bfad                	j	80001228 <__vmr_alloc+0x2e>
    800012b0:	4401                	li	s0,0
    800012b2:	bf4d                	j	80001264 <__vmr_alloc+0x6a>
    800012b4:	effff0ef          	jal	ra,800011b2 <__page_alloc>
    800012b8:	0ff0000f          	fence
    800012bc:	e008                	sd	a0,0(s0)
    800012be:	b7d5                	j	800012a2 <__vmr_alloc+0xa8>

00000000800012c0 <__continue_walk_create>:
    800012c0:	1101                	addi	sp,sp,-32
    800012c2:	e822                	sd	s0,16(sp)
    800012c4:	e426                	sd	s1,8(sp)
    800012c6:	ec06                	sd	ra,24(sp)
    800012c8:	84ae                	mv	s1,a1
    800012ca:	842a                	mv	s0,a0
    800012cc:	ee7ff0ef          	jal	ra,800011b2 <__page_alloc>
    800012d0:	00c55793          	srli	a5,a0,0xc
    800012d4:	07aa                	slli	a5,a5,0xa
    800012d6:	0017e793          	ori	a5,a5,1
    800012da:	8522                	mv	a0,s0
    800012dc:	6442                	ld	s0,16(sp)
    800012de:	60e2                	ld	ra,24(sp)
    800012e0:	e09c                	sd	a5,0(s1)
    800012e2:	64a2                	ld	s1,8(sp)
    800012e4:	4585                	li	a1,1
    800012e6:	6105                	addi	sp,sp,32
    800012e8:	a009                	j	800012ea <__walk_internal>

00000000800012ea <__walk_internal>:
    800012ea:	01e55793          	srli	a5,a0,0x1e
    800012ee:	1ff7f793          	andi	a5,a5,511
    800012f2:	00379693          	slli	a3,a5,0x3
    800012f6:	00018797          	auipc	a5,0x18
    800012fa:	0027b783          	ld	a5,2(a5) # 800192f8 <root_page_table>
    800012fe:	97b6                	add	a5,a5,a3
    80001300:	6394                	ld	a3,0(a5)
    80001302:	872a                	mv	a4,a0
    80001304:	0016f613          	andi	a2,a3,1
    80001308:	c60d                	beqz	a2,80001332 <__walk_internal+0x48>
    8000130a:	01555793          	srli	a5,a0,0x15
    8000130e:	82a9                	srli	a3,a3,0xa
    80001310:	1ff7f793          	andi	a5,a5,511
    80001314:	06b2                	slli	a3,a3,0xc
    80001316:	078e                	slli	a5,a5,0x3
    80001318:	97b6                	add	a5,a5,a3
    8000131a:	6394                	ld	a3,0(a5)
    8000131c:	0016f613          	andi	a2,a3,1
    80001320:	ca09                	beqz	a2,80001332 <__walk_internal+0x48>
    80001322:	8131                	srli	a0,a0,0xc
    80001324:	82a9                	srli	a3,a3,0xa
    80001326:	1ff57513          	andi	a0,a0,511
    8000132a:	06b2                	slli	a3,a3,0xc
    8000132c:	050e                	slli	a0,a0,0x3
    8000132e:	9536                	add	a0,a0,a3
    80001330:	8082                	ret
    80001332:	4501                	li	a0,0
    80001334:	e191                	bnez	a1,80001338 <__walk_internal+0x4e>
    80001336:	8082                	ret
    80001338:	85be                	mv	a1,a5
    8000133a:	853a                	mv	a0,a4
    8000133c:	b751                	j	800012c0 <__continue_walk_create>

000000008000133e <__vm_alloc>:
    8000133e:	7139                	addi	sp,sp,-64
    80001340:	00018797          	auipc	a5,0x18
    80001344:	e9078793          	addi	a5,a5,-368 # 800191d0 <current>
    80001348:	ec4e                	sd	s3,24(sp)
    8000134a:	0487b983          	ld	s3,72(a5)
    8000134e:	f426                	sd	s1,40(sp)
    80001350:	7f84                	ld	s1,56(a5)
    80001352:	00c51793          	slli	a5,a0,0xc
    80001356:	fc06                	sd	ra,56(sp)
    80001358:	f822                	sd	s0,48(sp)
    8000135a:	f04a                	sd	s2,32(sp)
    8000135c:	e852                	sd	s4,16(sp)
    8000135e:	e456                	sd	s5,8(sp)
    80001360:	40f989b3          	sub	s3,s3,a5
    80001364:	0299e163          	bltu	s3,s1,80001386 <__vm_alloc+0x48>
    80001368:	157d                	addi	a0,a0,-1
    8000136a:	00c51913          	slli	s2,a0,0xc
    8000136e:	7a7d                	lui	s4,0xfffff
    80001370:	6a85                	lui	s5,0x1
    80001372:	4581                	li	a1,0
    80001374:	8526                	mv	a0,s1
    80001376:	f75ff0ef          	jal	ra,800012ea <__walk_internal>
    8000137a:	c901                	beqz	a0,8000138a <__vm_alloc+0x4c>
    8000137c:	611c                	ld	a5,0(a0)
    8000137e:	c791                	beqz	a5,8000138a <__vm_alloc+0x4c>
    80001380:	94d6                	add	s1,s1,s5
    80001382:	fe99f8e3          	bgeu	s3,s1,80001372 <__vm_alloc+0x34>
    80001386:	4401                	li	s0,0
    80001388:	a831                	j	800013a4 <__vm_alloc+0x66>
    8000138a:	00990433          	add	s0,s2,s1
    8000138e:	0084fb63          	bgeu	s1,s0,800013a4 <__vm_alloc+0x66>
    80001392:	8522                	mv	a0,s0
    80001394:	4581                	li	a1,0
    80001396:	f55ff0ef          	jal	ra,800012ea <__walk_internal>
    8000139a:	cd19                	beqz	a0,800013b8 <__vm_alloc+0x7a>
    8000139c:	611c                	ld	a5,0(a0)
    8000139e:	cf89                	beqz	a5,800013b8 <__vm_alloc+0x7a>
    800013a0:	0284e063          	bltu	s1,s0,800013c0 <__vm_alloc+0x82>
    800013a4:	70e2                	ld	ra,56(sp)
    800013a6:	8522                	mv	a0,s0
    800013a8:	7442                	ld	s0,48(sp)
    800013aa:	74a2                	ld	s1,40(sp)
    800013ac:	7902                	ld	s2,32(sp)
    800013ae:	69e2                	ld	s3,24(sp)
    800013b0:	6a42                	ld	s4,16(sp)
    800013b2:	6aa2                	ld	s5,8(sp)
    800013b4:	6121                	addi	sp,sp,64
    800013b6:	8082                	ret
    800013b8:	9452                	add	s0,s0,s4
    800013ba:	fc84ece3          	bltu	s1,s0,80001392 <__vm_alloc+0x54>
    800013be:	b7dd                	j	800013a4 <__vm_alloc+0x66>
    800013c0:	84a2                	mv	s1,s0
    800013c2:	bf7d                	j	80001380 <__vm_alloc+0x42>

00000000800013c4 <__do_munmap>:
    800013c4:	7179                	addi	sp,sp,-48
    800013c6:	e84a                	sd	s2,16(sp)
    800013c8:	f406                	sd	ra,40(sp)
    800013ca:	f022                	sd	s0,32(sp)
    800013cc:	ec26                	sd	s1,24(sp)
    800013ce:	e44e                	sd	s3,8(sp)
    800013d0:	00b50933          	add	s2,a0,a1
    800013d4:	03257c63          	bgeu	a0,s2,8000140c <__do_munmap+0x48>
    800013d8:	84aa                	mv	s1,a0
    800013da:	6985                	lui	s3,0x1
    800013dc:	8526                	mv	a0,s1
    800013de:	4581                	li	a1,0
    800013e0:	f0bff0ef          	jal	ra,800012ea <__walk_internal>
    800013e4:	842a                	mv	s0,a0
    800013e6:	94ce                	add	s1,s1,s3
    800013e8:	c105                	beqz	a0,80001408 <__do_munmap+0x44>
    800013ea:	611c                	ld	a5,0(a0)
    800013ec:	0017f713          	andi	a4,a5,1
    800013f0:	cf81                	beqz	a5,80001408 <__do_munmap+0x44>
    800013f2:	eb09                	bnez	a4,80001404 <__do_munmap+0x40>
    800013f4:	5398                	lw	a4,32(a5)
    800013f6:	6b88                	ld	a0,16(a5)
    800013f8:	377d                	addiw	a4,a4,-1
    800013fa:	d398                	sw	a4,32(a5)
    800013fc:	e701                	bnez	a4,80001404 <__do_munmap+0x40>
    800013fe:	c119                	beqz	a0,80001404 <__do_munmap+0x40>
    80001400:	914ff0ef          	jal	ra,80000514 <file_decref>
    80001404:	00043023          	sd	zero,0(s0)
    80001408:	fd24eae3          	bltu	s1,s2,800013dc <__do_munmap+0x18>
    8000140c:	12000073          	sfence.vma
    80001410:	70a2                	ld	ra,40(sp)
    80001412:	7402                	ld	s0,32(sp)
    80001414:	64e2                	ld	s1,24(sp)
    80001416:	6942                	ld	s2,16(sp)
    80001418:	69a2                	ld	s3,8(sp)
    8000141a:	6145                	addi	sp,sp,48
    8000141c:	8082                	ret

000000008000141e <__walk>:
    8000141e:	4581                	li	a1,0
    80001420:	b5e9                	j	800012ea <__walk_internal>

0000000080001422 <__walk_create>:
    80001422:	4585                	li	a1,1
    80001424:	b5d9                	j	800012ea <__walk_internal>

0000000080001426 <prot_to_type>:
    80001426:	00257713          	andi	a4,a0,2
    8000142a:	00457793          	andi	a5,a0,4
    8000142e:	8905                	andi	a0,a0,1
    80001430:	2701                	sext.w	a4,a4
    80001432:	2781                	sext.w	a5,a5
    80001434:	e919                	bnez	a0,8000144a <prot_to_type+0x24>
    80001436:	c705                	beqz	a4,8000145e <prot_to_type+0x38>
    80001438:	08400513          	li	a0,132
    8000143c:	c399                	beqz	a5,80001442 <prot_to_type+0x1c>
    8000143e:	04856513          	ori	a0,a0,72
    80001442:	c199                	beqz	a1,80001448 <prot_to_type+0x22>
    80001444:	01056513          	ori	a0,a0,16
    80001448:	8082                	ret
    8000144a:	c701                	beqz	a4,80001452 <prot_to_type+0x2c>
    8000144c:	0c600513          	li	a0,198
    80001450:	b7f5                	j	8000143c <prot_to_type+0x16>
    80001452:	04a00513          	li	a0,74
    80001456:	f7f5                	bnez	a5,80001442 <prot_to_type+0x1c>
    80001458:	04200513          	li	a0,66
    8000145c:	b7dd                	j	80001442 <prot_to_type+0x1c>
    8000145e:	04800513          	li	a0,72
    80001462:	f3e5                	bnez	a5,80001442 <prot_to_type+0x1c>
    80001464:	4509                	li	a0,2
    80001466:	bff1                	j	80001442 <prot_to_type+0x1c>

0000000080001468 <__valid_user_range>:
    80001468:	95aa                	add	a1,a1,a0
    8000146a:	00a5ec63          	bltu	a1,a0,80001482 <__valid_user_range+0x1a>
    8000146e:	00018517          	auipc	a0,0x18
    80001472:	daa53503          	ld	a0,-598(a0) # 80019218 <current+0x48>
    80001476:	00b53533          	sltu	a0,a0,a1
    8000147a:	00154513          	xori	a0,a0,1
    8000147e:	2501                	sext.w	a0,a0
    80001480:	8082                	ret
    80001482:	4501                	li	a0,0
    80001484:	8082                	ret

0000000080001486 <do_munmap>:
    80001486:	1141                	addi	sp,sp,-16
    80001488:	e406                	sd	ra,8(sp)
    8000148a:	e022                	sd	s0,0(sp)
    8000148c:	03451793          	slli	a5,a0,0x34
    80001490:	eba1                	bnez	a5,800014e0 <do_munmap+0x5a>
    80001492:	00b507b3          	add	a5,a0,a1
    80001496:	5429                	li	s0,-22
    80001498:	02a7ef63          	bltu	a5,a0,800014d6 <do_munmap+0x50>
    8000149c:	00018717          	auipc	a4,0x18
    800014a0:	d7c73703          	ld	a4,-644(a4) # 80019218 <current+0x48>
    800014a4:	02f76963          	bltu	a4,a5,800014d6 <do_munmap+0x50>
    800014a8:	00018717          	auipc	a4,0x18
    800014ac:	b9870713          	addi	a4,a4,-1128 # 80019040 <vm_lock>
    800014b0:	56fd                	li	a3,-1
    800014b2:	4300                	lw	s0,0(a4)
    800014b4:	2401                	sext.w	s0,s0
    800014b6:	fc75                	bnez	s0,800014b2 <do_munmap+0x2c>
    800014b8:	87b6                	mv	a5,a3
    800014ba:	0cf727af          	amoswap.w.aq	a5,a5,(a4)
    800014be:	2781                	sext.w	a5,a5
    800014c0:	0ff0000f          	fence
    800014c4:	f7fd                	bnez	a5,800014b2 <do_munmap+0x2c>
    800014c6:	effff0ef          	jal	ra,800013c4 <__do_munmap>
    800014ca:	0ff0000f          	fence
    800014ce:	00018797          	auipc	a5,0x18
    800014d2:	b607a923          	sw	zero,-1166(a5) # 80019040 <vm_lock>
    800014d6:	60a2                	ld	ra,8(sp)
    800014d8:	8522                	mv	a0,s0
    800014da:	6402                	ld	s0,0(sp)
    800014dc:	0141                	addi	sp,sp,16
    800014de:	8082                	ret
    800014e0:	5429                	li	s0,-22
    800014e2:	bfd5                	j	800014d6 <do_munmap+0x50>

00000000800014e4 <do_mremap>:
    800014e4:	fa800513          	li	a0,-88
    800014e8:	8082                	ret

00000000800014ea <do_mprotect>:
    800014ea:	715d                	addi	sp,sp,-80
    800014ec:	e85a                	sd	s6,16(sp)
    800014ee:	e486                	sd	ra,72(sp)
    800014f0:	e0a2                	sd	s0,64(sp)
    800014f2:	fc26                	sd	s1,56(sp)
    800014f4:	f84a                	sd	s2,48(sp)
    800014f6:	f44e                	sd	s3,40(sp)
    800014f8:	f052                	sd	s4,32(sp)
    800014fa:	ec56                	sd	s5,24(sp)
    800014fc:	e45e                	sd	s7,8(sp)
    800014fe:	e062                	sd	s8,0(sp)
    80001500:	03451793          	slli	a5,a0,0x34
    80001504:	5b29                	li	s6,-22
    80001506:	ebe1                	bnez	a5,800015d6 <do_mprotect+0xec>
    80001508:	8c2a                	mv	s8,a0
    8000150a:	8432                	mv	s0,a2
    8000150c:	0347db13          	srli	s6,a5,0x34
    80001510:	00018717          	auipc	a4,0x18
    80001514:	b3070713          	addi	a4,a4,-1232 # 80019040 <vm_lock>
    80001518:	56fd                	li	a3,-1
    8000151a:	431c                	lw	a5,0(a4)
    8000151c:	2781                	sext.w	a5,a5
    8000151e:	fff5                	bnez	a5,8000151a <do_mprotect+0x30>
    80001520:	87b6                	mv	a5,a3
    80001522:	0cf727af          	amoswap.w.aq	a5,a5,(a4)
    80001526:	2781                	sext.w	a5,a5
    80001528:	0ff0000f          	fence
    8000152c:	f7fd                	bnez	a5,8000151a <do_mprotect+0x30>
    8000152e:	00bc04b3          	add	s1,s8,a1
    80001532:	089c7a63          	bgeu	s8,s1,800015c6 <do_mprotect+0xdc>
    80001536:	00147a13          	andi	s4,s0,1
    8000153a:	4a81                	li	s5,0
    8000153c:	0e0a1c63          	bnez	s4,80001634 <do_mprotect+0x14a>
    80001540:	00247913          	andi	s2,s0,2
    80001544:	00447993          	andi	s3,s0,4
    80001548:	084aeb93          	ori	s7,s5,132
    8000154c:	2901                	sext.w	s2,s2
    8000154e:	2981                	sext.w	s3,s3
    80001550:	0ccaea93          	ori	s5,s5,204
    80001554:	a819                	j	8000156a <do_mprotect+0x80>
    80001556:	53d8                	lw	a4,36(a5)
    80001558:	00e466b3          	or	a3,s0,a4
    8000155c:	0ce69f63          	bne	a3,a4,8000163a <do_mprotect+0x150>
    80001560:	d3c0                	sw	s0,36(a5)
    80001562:	6785                	lui	a5,0x1
    80001564:	9c3e                	add	s8,s8,a5
    80001566:	069c7063          	bgeu	s8,s1,800015c6 <do_mprotect+0xdc>
    8000156a:	4581                	li	a1,0
    8000156c:	8562                	mv	a0,s8
    8000156e:	d7dff0ef          	jal	ra,800012ea <__walk_internal>
    80001572:	cd71                	beqz	a0,8000164e <do_mprotect+0x164>
    80001574:	611c                	ld	a5,0(a0)
    80001576:	cfe1                	beqz	a5,8000164e <do_mprotect+0x164>
    80001578:	0017f713          	andi	a4,a5,1
    8000157c:	df69                	beqz	a4,80001556 <do_mprotect+0x6c>
    8000157e:	0107f713          	andi	a4,a5,16
    80001582:	cf45                	beqz	a4,8000163a <do_mprotect+0x150>
    80001584:	000a0563          	beqz	s4,8000158e <do_mprotect+0xa4>
    80001588:	0027f713          	andi	a4,a5,2
    8000158c:	c75d                	beqz	a4,8000163a <do_mprotect+0x150>
    8000158e:	00090563          	beqz	s2,80001598 <do_mprotect+0xae>
    80001592:	0047f713          	andi	a4,a5,4
    80001596:	c355                	beqz	a4,8000163a <do_mprotect+0x150>
    80001598:	00098563          	beqz	s3,800015a2 <do_mprotect+0xb8>
    8000159c:	0087f713          	andi	a4,a5,8
    800015a0:	cf49                	beqz	a4,8000163a <do_mprotect+0x150>
    800015a2:	060a1263          	bnez	s4,80001606 <do_mprotect+0x11c>
    800015a6:	04091563          	bnez	s2,800015f0 <do_mprotect+0x106>
    800015aa:	04800713          	li	a4,72
    800015ae:	06098b63          	beqz	s3,80001624 <do_mprotect+0x13a>
    800015b2:	c007f793          	andi	a5,a5,-1024
    800015b6:	8fd9                	or	a5,a5,a4
    800015b8:	0117e793          	ori	a5,a5,17
    800015bc:	e11c                	sd	a5,0(a0)
    800015be:	6785                	lui	a5,0x1
    800015c0:	9c3e                	add	s8,s8,a5
    800015c2:	fa9c64e3          	bltu	s8,s1,8000156a <do_mprotect+0x80>
    800015c6:	0ff0000f          	fence
    800015ca:	00018797          	auipc	a5,0x18
    800015ce:	a607ab23          	sw	zero,-1418(a5) # 80019040 <vm_lock>
    800015d2:	12000073          	sfence.vma
    800015d6:	60a6                	ld	ra,72(sp)
    800015d8:	6406                	ld	s0,64(sp)
    800015da:	74e2                	ld	s1,56(sp)
    800015dc:	7942                	ld	s2,48(sp)
    800015de:	79a2                	ld	s3,40(sp)
    800015e0:	7a02                	ld	s4,32(sp)
    800015e2:	6ae2                	ld	s5,24(sp)
    800015e4:	6ba2                	ld	s7,8(sp)
    800015e6:	6c02                	ld	s8,0(sp)
    800015e8:	855a                	mv	a0,s6
    800015ea:	6b42                	ld	s6,16(sp)
    800015ec:	6161                	addi	sp,sp,80
    800015ee:	8082                	ret
    800015f0:	875e                	mv	a4,s7
    800015f2:	fc0980e3          	beqz	s3,800015b2 <do_mprotect+0xc8>
    800015f6:	8756                	mv	a4,s5
    800015f8:	c007f793          	andi	a5,a5,-1024
    800015fc:	8fd9                	or	a5,a5,a4
    800015fe:	0117e793          	ori	a5,a5,17
    80001602:	e11c                	sd	a5,0(a0)
    80001604:	bf6d                	j	800015be <do_mprotect+0xd4>
    80001606:	fe0915e3          	bnez	s2,800015f0 <do_mprotect+0x106>
    8000160a:	04a00713          	li	a4,74
    8000160e:	fa0992e3          	bnez	s3,800015b2 <do_mprotect+0xc8>
    80001612:	04200713          	li	a4,66
    80001616:	c007f793          	andi	a5,a5,-1024
    8000161a:	8fd9                	or	a5,a5,a4
    8000161c:	0117e793          	ori	a5,a5,17
    80001620:	e11c                	sd	a5,0(a0)
    80001622:	bf71                	j	800015be <do_mprotect+0xd4>
    80001624:	4709                	li	a4,2
    80001626:	c007f793          	andi	a5,a5,-1024
    8000162a:	8fd9                	or	a5,a5,a4
    8000162c:	0117e793          	ori	a5,a5,17
    80001630:	e11c                	sd	a5,0(a0)
    80001632:	b771                	j	800015be <do_mprotect+0xd4>
    80001634:	04200a93          	li	s5,66
    80001638:	b721                	j	80001540 <do_mprotect+0x56>
    8000163a:	5b4d                	li	s6,-13
    8000163c:	0ff0000f          	fence
    80001640:	00018797          	auipc	a5,0x18
    80001644:	a007a023          	sw	zero,-1536(a5) # 80019040 <vm_lock>
    80001648:	12000073          	sfence.vma
    8000164c:	b769                	j	800015d6 <do_mprotect+0xec>
    8000164e:	5b51                	li	s6,-12
    80001650:	0ff0000f          	fence
    80001654:	00018797          	auipc	a5,0x18
    80001658:	9e07a623          	sw	zero,-1556(a5) # 80019040 <vm_lock>
    8000165c:	12000073          	sfence.vma
    80001660:	bf9d                	j	800015d6 <do_mprotect+0xec>

0000000080001662 <__map_kernel_range>:
    80001662:	fff60793          	addi	a5,a2,-1 # fff <_ftext-0x7ffff001>
    80001666:	83b1                	srli	a5,a5,0xc
    80001668:	715d                	addi	sp,sp,-80
    8000166a:	0785                	addi	a5,a5,1
    8000166c:	f84a                	sd	s2,48(sp)
    8000166e:	e486                	sd	ra,72(sp)
    80001670:	e0a2                	sd	s0,64(sp)
    80001672:	fc26                	sd	s1,56(sp)
    80001674:	f44e                	sd	s3,40(sp)
    80001676:	f052                	sd	s4,32(sp)
    80001678:	ec56                	sd	s5,24(sp)
    8000167a:	e85a                	sd	s6,16(sp)
    8000167c:	e45e                	sd	s7,8(sp)
    8000167e:	07b2                	slli	a5,a5,0xc
    80001680:	40a58933          	sub	s2,a1,a0
    80001684:	cfbd                	beqz	a5,80001702 <__map_kernel_range+0xa0>
    80001686:	0016fa13          	andi	s4,a3,1
    8000168a:	8baa                	mv	s7,a0
    8000168c:	00c7d493          	srli	s1,a5,0xc
    80001690:	4b01                	li	s6,0
    80001692:	080a1763          	bnez	s4,80001720 <__map_kernel_range+0xbe>
    80001696:	0026f993          	andi	s3,a3,2
    8000169a:	04b2                	slli	s1,s1,0xc
    8000169c:	8a91                	andi	a3,a3,4
    8000169e:	084b6a93          	ori	s5,s6,132
    800016a2:	94de                	add	s1,s1,s7
    800016a4:	2981                	sext.w	s3,s3
    800016a6:	0006841b          	sext.w	s0,a3
    800016aa:	0ccb6b13          	ori	s6,s6,204
    800016ae:	a005                	j	800016ce <__map_kernel_range+0x6c>
    800016b0:	06099463          	bnez	s3,80001718 <__map_kernel_range+0xb6>
    800016b4:	04800713          	li	a4,72
    800016b8:	e011                	bnez	s0,800016bc <__map_kernel_range+0x5a>
    800016ba:	4709                	li	a4,2
    800016bc:	07aa                	slli	a5,a5,0xa
    800016be:	8fd9                	or	a5,a5,a4
    800016c0:	0017e793          	ori	a5,a5,1
    800016c4:	e11c                	sd	a5,0(a0)
    800016c6:	6785                	lui	a5,0x1
    800016c8:	9bbe                	add	s7,s7,a5
    800016ca:	029b8c63          	beq	s7,s1,80001702 <__map_kernel_range+0xa0>
    800016ce:	4585                	li	a1,1
    800016d0:	855e                	mv	a0,s7
    800016d2:	c19ff0ef          	jal	ra,800012ea <__walk_internal>
    800016d6:	c921                	beqz	a0,80001726 <__map_kernel_range+0xc4>
    800016d8:	017907b3          	add	a5,s2,s7
    800016dc:	83b1                	srli	a5,a5,0xc
    800016de:	fc0a09e3          	beqz	s4,800016b0 <__map_kernel_range+0x4e>
    800016e2:	02099b63          	bnez	s3,80001718 <__map_kernel_range+0xb6>
    800016e6:	04a00713          	li	a4,74
    800016ea:	f869                	bnez	s0,800016bc <__map_kernel_range+0x5a>
    800016ec:	04200713          	li	a4,66
    800016f0:	07aa                	slli	a5,a5,0xa
    800016f2:	8fd9                	or	a5,a5,a4
    800016f4:	0017e793          	ori	a5,a5,1
    800016f8:	e11c                	sd	a5,0(a0)
    800016fa:	6785                	lui	a5,0x1
    800016fc:	9bbe                	add	s7,s7,a5
    800016fe:	fc9b98e3          	bne	s7,s1,800016ce <__map_kernel_range+0x6c>
    80001702:	60a6                	ld	ra,72(sp)
    80001704:	6406                	ld	s0,64(sp)
    80001706:	74e2                	ld	s1,56(sp)
    80001708:	7942                	ld	s2,48(sp)
    8000170a:	79a2                	ld	s3,40(sp)
    8000170c:	7a02                	ld	s4,32(sp)
    8000170e:	6ae2                	ld	s5,24(sp)
    80001710:	6b42                	ld	s6,16(sp)
    80001712:	6ba2                	ld	s7,8(sp)
    80001714:	6161                	addi	sp,sp,80
    80001716:	8082                	ret
    80001718:	8756                	mv	a4,s5
    8000171a:	d04d                	beqz	s0,800016bc <__map_kernel_range+0x5a>
    8000171c:	875a                	mv	a4,s6
    8000171e:	bf79                	j	800016bc <__map_kernel_range+0x5a>
    80001720:	04200b13          	li	s6,66
    80001724:	bf8d                	j	80001696 <__map_kernel_range+0x34>
    80001726:	00007517          	auipc	a0,0x7
    8000172a:	b9250513          	addi	a0,a0,-1134 # 800082b8 <illegal_insn_trap_table+0x37c>
    8000172e:	a71ff0ef          	jal	ra,8000119e <kassert_fail>

0000000080001732 <populate_mapping>:
    80001732:	77fd                	lui	a5,0xfffff
    80001734:	8a09                	andi	a2,a2,2
    80001736:	8fe9                	and	a5,a5,a0
    80001738:	95aa                	add	a1,a1,a0
    8000173a:	2601                	sext.w	a2,a2
    8000173c:	6705                	lui	a4,0x1
    8000173e:	00b7f763          	bgeu	a5,a1,8000174c <populate_mapping+0x1a>
    80001742:	e611                	bnez	a2,8000174e <populate_mapping+0x1c>
    80001744:	4394                	lw	a3,0(a5)
    80001746:	97ba                	add	a5,a5,a4
    80001748:	feb7ede3          	bltu	a5,a1,80001742 <populate_mapping+0x10>
    8000174c:	8082                	ret
    8000174e:	0f50000f          	fence	iorw,ow
    80001752:	0407a02f          	amoadd.w.aq	zero,zero,(a5)
    80001756:	bfc5                	j	80001746 <populate_mapping+0x14>

0000000080001758 <__walk_internal_user>:
    80001758:	01e5d793          	srli	a5,a1,0x1e
    8000175c:	1ff7f793          	andi	a5,a5,511
    80001760:	078e                	slli	a5,a5,0x3
    80001762:	97aa                	add	a5,a5,a0
    80001764:	872e                	mv	a4,a1
    80001766:	638c                	ld	a1,0(a5)
    80001768:	882a                	mv	a6,a0
    8000176a:	0015f693          	andi	a3,a1,1
    8000176e:	c695                	beqz	a3,8000179a <__walk_internal_user+0x42>
    80001770:	01575793          	srli	a5,a4,0x15
    80001774:	81a9                	srli	a1,a1,0xa
    80001776:	1ff7f793          	andi	a5,a5,511
    8000177a:	05b2                	slli	a1,a1,0xc
    8000177c:	078e                	slli	a5,a5,0x3
    8000177e:	97ae                	add	a5,a5,a1
    80001780:	6394                	ld	a3,0(a5)
    80001782:	0016f593          	andi	a1,a3,1
    80001786:	c991                	beqz	a1,8000179a <__walk_internal_user+0x42>
    80001788:	00c75513          	srli	a0,a4,0xc
    8000178c:	82a9                	srli	a3,a3,0xa
    8000178e:	1ff57513          	andi	a0,a0,511
    80001792:	06b2                	slli	a3,a3,0xc
    80001794:	050e                	slli	a0,a0,0x3
    80001796:	9536                	add	a0,a0,a3
    80001798:	8082                	ret
    8000179a:	4501                	li	a0,0
    8000179c:	e211                	bnez	a2,800017a0 <__walk_internal_user+0x48>
    8000179e:	8082                	ret
    800017a0:	8642                	mv	a2,a6
    800017a2:	85be                	mv	a1,a5
    800017a4:	853a                	mv	a0,a4
    800017a6:	afa9                	j	80001f00 <__continue_walk_create_user>

00000000800017a8 <__walk_create_user>:
    800017a8:	87ae                	mv	a5,a1
    800017aa:	4605                	li	a2,1
    800017ac:	85aa                	mv	a1,a0
    800017ae:	853e                	mv	a0,a5
    800017b0:	b765                	j	80001758 <__walk_internal_user>

00000000800017b2 <__handle_page_fault_user>:
    800017b2:	7139                	addi	sp,sp,-64
    800017b4:	777d                	lui	a4,0xfffff
    800017b6:	e852                	sd	s4,16(sp)
    800017b8:	87b2                	mv	a5,a2
    800017ba:	00e57a33          	and	s4,a0,a4
    800017be:	f426                	sd	s1,40(sp)
    800017c0:	4605                	li	a2,1
    800017c2:	84ae                	mv	s1,a1
    800017c4:	853e                	mv	a0,a5
    800017c6:	85d2                	mv	a1,s4
    800017c8:	fc06                	sd	ra,56(sp)
    800017ca:	f822                	sd	s0,48(sp)
    800017cc:	f04a                	sd	s2,32(sp)
    800017ce:	ec4e                	sd	s3,24(sp)
    800017d0:	e456                	sd	s5,8(sp)
    800017d2:	f87ff0ef          	jal	ra,80001758 <__walk_internal_user>
    800017d6:	16050063          	beqz	a0,80001936 <__handle_page_fault_user+0x184>
    800017da:	611c                	ld	a5,0(a0)
    800017dc:	892a                	mv	s2,a0
    800017de:	14078c63          	beqz	a5,80001936 <__handle_page_fault_user+0x184>
    800017e2:	001a0713          	addi	a4,s4,1 # fffffffffffff001 <_end+0xffffffff7ffe5001>
    800017e6:	00018697          	auipc	a3,0x18
    800017ea:	a326b683          	ld	a3,-1486(a3) # 80019218 <current+0x48>
    800017ee:	14e6e463          	bltu	a3,a4,80001936 <__handle_page_fault_user+0x184>
    800017f2:	0017f713          	andi	a4,a5,1
    800017f6:	eb55                	bnez	a4,800018aa <__handle_page_fault_user+0xf8>
    800017f8:	00018797          	auipc	a5,0x18
    800017fc:	9c87b783          	ld	a5,-1592(a5) # 800191c0 <pmm_manager>
    80001800:	6f9c                	ld	a5,24(a5)
    80001802:	4505                	li	a0,1
    80001804:	9782                	jalr	a5
    80001806:	00018697          	auipc	a3,0x18
    8000180a:	aaa6b683          	ld	a3,-1366(a3) # 800192b0 <pages>
    8000180e:	40d506b3          	sub	a3,a0,a3
    80001812:	868d                	srai	a3,a3,0x3
    80001814:	0000a517          	auipc	a0,0xa
    80001818:	c7453503          	ld	a0,-908(a0) # 8000b488 <trap_table+0x48>
    8000181c:	02a686b3          	mul	a3,a3,a0
    80001820:	00018797          	auipc	a5,0x18
    80001824:	a587b783          	ld	a5,-1448(a5) # 80019278 <nbase>
    80001828:	00093983          	ld	s3,0(s2)
    8000182c:	96be                	add	a3,a3,a5
    8000182e:	00a69413          	slli	s0,a3,0xa
    80001832:	0c746793          	ori	a5,s0,199
    80001836:	00c69a93          	slli	s5,a3,0xc
    8000183a:	00f93023          	sd	a5,0(s2)
    8000183e:	12000073          	sfence.vma
    80001842:	0109b503          	ld	a0,16(s3) # 1010 <_ftext-0x7fffeff0>
    80001846:	cd61                	beqz	a0,8000191e <__handle_page_fault_user+0x16c>
    80001848:	0009b783          	ld	a5,0(s3)
    8000184c:	0089b603          	ld	a2,8(s3)
    80001850:	0189b703          	ld	a4,24(s3)
    80001854:	6585                	lui	a1,0x1
    80001856:	963e                	add	a2,a2,a5
    80001858:	9752                	add	a4,a4,s4
    8000185a:	41460633          	sub	a2,a2,s4
    8000185e:	8f1d                	sub	a4,a4,a5
    80001860:	0ac5e163          	bltu	a1,a2,80001902 <__handle_page_fault_user+0x150>
    80001864:	85d2                	mv	a1,s4
    80001866:	f53fe0ef          	jal	ra,800007b8 <file_pread_pnn>
    8000186a:	0ca05863          	blez	a0,8000193a <__handle_page_fault_user+0x188>
    8000186e:	6605                	lui	a2,0x1
    80001870:	0ac54d63          	blt	a0,a2,8000192a <__handle_page_fault_user+0x178>
    80001874:	0249a783          	lw	a5,36(s3)
    80001878:	0027f713          	andi	a4,a5,2
    8000187c:	0047f693          	andi	a3,a5,4
    80001880:	8b85                	andi	a5,a5,1
    80001882:	2701                	sext.w	a4,a4
    80001884:	2681                	sext.w	a3,a3
    80001886:	e799                	bnez	a5,80001894 <__handle_page_fault_user+0xe2>
    80001888:	e749                	bnez	a4,80001912 <__handle_page_fault_user+0x160>
    8000188a:	04800793          	li	a5,72
    8000188e:	ea89                	bnez	a3,800018a0 <__handle_page_fault_user+0xee>
    80001890:	4789                	li	a5,2
    80001892:	a039                	j	800018a0 <__handle_page_fault_user+0xee>
    80001894:	eb2d                	bnez	a4,80001906 <__handle_page_fault_user+0x154>
    80001896:	04a00793          	li	a5,74
    8000189a:	e299                	bnez	a3,800018a0 <__handle_page_fault_user+0xee>
    8000189c:	04200793          	li	a5,66
    800018a0:	8fc1                	or	a5,a5,s0
    800018a2:	0117e793          	ori	a5,a5,17
    800018a6:	00f93023          	sd	a5,0(s2)
    800018aa:	0024f713          	andi	a4,s1,2
    800018ae:	0044f693          	andi	a3,s1,4
    800018b2:	8885                	andi	s1,s1,1
    800018b4:	2701                	sext.w	a4,a4
    800018b6:	2681                	sext.w	a3,a3
    800018b8:	c485                	beqz	s1,800018e0 <__handle_page_fault_user+0x12e>
    800018ba:	eb0d                	bnez	a4,800018ec <__handle_page_fault_user+0x13a>
    800018bc:	05b00713          	li	a4,91
    800018c0:	cea1                	beqz	a3,80001918 <__handle_page_fault_user+0x166>
    800018c2:	8ff9                	and	a5,a5,a4
    800018c4:	06e79963          	bne	a5,a4,80001936 <__handle_page_fault_user+0x184>
    800018c8:	12000073          	sfence.vma
    800018cc:	4501                	li	a0,0
    800018ce:	70e2                	ld	ra,56(sp)
    800018d0:	7442                	ld	s0,48(sp)
    800018d2:	74a2                	ld	s1,40(sp)
    800018d4:	7902                	ld	s2,32(sp)
    800018d6:	69e2                	ld	s3,24(sp)
    800018d8:	6a42                	ld	s4,16(sp)
    800018da:	6aa2                	ld	s5,8(sp)
    800018dc:	6121                	addi	sp,sp,64
    800018de:	8082                	ret
    800018e0:	ef11                	bnez	a4,800018fc <__handle_page_fault_user+0x14a>
    800018e2:	05900713          	li	a4,89
    800018e6:	fef1                	bnez	a3,800018c2 <__handle_page_fault_user+0x110>
    800018e8:	474d                	li	a4,19
    800018ea:	bfe1                	j	800018c2 <__handle_page_fault_user+0x110>
    800018ec:	0c600613          	li	a2,198
    800018f0:	05966713          	ori	a4,a2,89
    800018f4:	f6f9                	bnez	a3,800018c2 <__handle_page_fault_user+0x110>
    800018f6:	01166713          	ori	a4,a2,17
    800018fa:	b7e1                	j	800018c2 <__handle_page_fault_user+0x110>
    800018fc:	08400613          	li	a2,132
    80001900:	bfc5                	j	800018f0 <__handle_page_fault_user+0x13e>
    80001902:	6605                	lui	a2,0x1
    80001904:	b785                	j	80001864 <__handle_page_fault_user+0xb2>
    80001906:	0c600793          	li	a5,198
    8000190a:	dad9                	beqz	a3,800018a0 <__handle_page_fault_user+0xee>
    8000190c:	0487e793          	ori	a5,a5,72
    80001910:	bf41                	j	800018a0 <__handle_page_fault_user+0xee>
    80001912:	08400793          	li	a5,132
    80001916:	bfd5                	j	8000190a <__handle_page_fault_user+0x158>
    80001918:	05300713          	li	a4,83
    8000191c:	b75d                	j	800018c2 <__handle_page_fault_user+0x110>
    8000191e:	6605                	lui	a2,0x1
    80001920:	4581                	li	a1,0
    80001922:	8556                	mv	a0,s5
    80001924:	2cb050ef          	jal	ra,800073ee <memset>
    80001928:	b7b1                	j	80001874 <__handle_page_fault_user+0xc2>
    8000192a:	8e09                	sub	a2,a2,a0
    8000192c:	4581                	li	a1,0
    8000192e:	9556                	add	a0,a0,s5
    80001930:	2bf050ef          	jal	ra,800073ee <memset>
    80001934:	b781                	j	80001874 <__handle_page_fault_user+0xc2>
    80001936:	557d                	li	a0,-1
    80001938:	bf59                	j	800018ce <__handle_page_fault_user+0x11c>
    8000193a:	00007517          	auipc	a0,0x7
    8000193e:	98650513          	addi	a0,a0,-1658 # 800082c0 <illegal_insn_trap_table+0x384>
    80001942:	85dff0ef          	jal	ra,8000119e <kassert_fail>

0000000080001946 <__handle_page_fault>:
    80001946:	7179                	addi	sp,sp,-48
    80001948:	ec26                	sd	s1,24(sp)
    8000194a:	00018497          	auipc	s1,0x18
    8000194e:	88648493          	addi	s1,s1,-1914 # 800191d0 <current>
    80001952:	64bc                	ld	a5,72(s1)
    80001954:	f406                	sd	ra,40(sp)
    80001956:	f022                	sd	s0,32(sp)
    80001958:	e84a                	sd	s2,16(sp)
    8000195a:	e44e                	sd	s3,8(sp)
    8000195c:	e052                	sd	s4,0(sp)
    8000195e:	14f56063          	bltu	a0,a5,80001a9e <__handle_page_fault+0x158>
    80001962:	842a                	mv	s0,a0
    80001964:	757d                	lui	a0,0xfffff
    80001966:	8c69                	and	s0,s0,a0
    80001968:	892e                	mv	s2,a1
    8000196a:	8522                	mv	a0,s0
    8000196c:	4581                	li	a1,0
    8000196e:	97dff0ef          	jal	ra,800012ea <__walk_internal>
    80001972:	6110                	ld	a2,0(a0)
    80001974:	89aa                	mv	s3,a0
    80001976:	85a2                	mv	a1,s0
    80001978:	00007517          	auipc	a0,0x7
    8000197c:	95050513          	addi	a0,a0,-1712 # 800082c8 <illegal_insn_trap_table+0x38c>
    80001980:	f2aff0ef          	jal	ra,800010aa <printk>
    80001984:	18098563          	beqz	s3,80001b0e <__handle_page_fault+0x1c8>
    80001988:	0009b783          	ld	a5,0(s3)
    8000198c:	18078163          	beqz	a5,80001b0e <__handle_page_fault+0x1c8>
    80001990:	64b8                	ld	a4,72(s1)
    80001992:	00140693          	addi	a3,s0,1
    80001996:	16d76c63          	bltu	a4,a3,80001b0e <__handle_page_fault+0x1c8>
    8000199a:	0017f713          	andi	a4,a5,1
    8000199e:	ef45                	bnez	a4,80001a56 <__handle_page_fault+0x110>
    800019a0:	00018797          	auipc	a5,0x18
    800019a4:	8207b783          	ld	a5,-2016(a5) # 800191c0 <pmm_manager>
    800019a8:	6f9c                	ld	a5,24(a5)
    800019aa:	4505                	li	a0,1
    800019ac:	9782                	jalr	a5
    800019ae:	00018697          	auipc	a3,0x18
    800019b2:	9026b683          	ld	a3,-1790(a3) # 800192b0 <pages>
    800019b6:	40d506b3          	sub	a3,a0,a3
    800019ba:	868d                	srai	a3,a3,0x3
    800019bc:	0000a517          	auipc	a0,0xa
    800019c0:	acc53503          	ld	a0,-1332(a0) # 8000b488 <trap_table+0x48>
    800019c4:	02a686b3          	mul	a3,a3,a0
    800019c8:	00018797          	auipc	a5,0x18
    800019cc:	8b07b783          	ld	a5,-1872(a5) # 80019278 <nbase>
    800019d0:	0009ba03          	ld	s4,0(s3)
    800019d4:	96be                	add	a3,a3,a5
    800019d6:	00a69493          	slli	s1,a3,0xa
    800019da:	0c74e793          	ori	a5,s1,199
    800019de:	00f9b023          	sd	a5,0(s3)
    800019e2:	12000073          	sfence.vma
    800019e6:	010a3503          	ld	a0,16(s4)
    800019ea:	10050063          	beqz	a0,80001aea <__handle_page_fault+0x1a4>
    800019ee:	000a3783          	ld	a5,0(s4)
    800019f2:	008a3603          	ld	a2,8(s4)
    800019f6:	018a3703          	ld	a4,24(s4)
    800019fa:	6585                	lui	a1,0x1
    800019fc:	963e                	add	a2,a2,a5
    800019fe:	9722                	add	a4,a4,s0
    80001a00:	8e01                	sub	a2,a2,s0
    80001a02:	8f1d                	sub	a4,a4,a5
    80001a04:	0cc5eb63          	bltu	a1,a2,80001ada <__handle_page_fault+0x194>
    80001a08:	85a2                	mv	a1,s0
    80001a0a:	daffe0ef          	jal	ra,800007b8 <file_pread_pnn>
    80001a0e:	10a05263          	blez	a0,80001b12 <__handle_page_fault+0x1cc>
    80001a12:	6605                	lui	a2,0x1
    80001a14:	0cc54563          	blt	a0,a2,80001ade <__handle_page_fault+0x198>
    80001a18:	020a2783          	lw	a5,32(s4)
    80001a1c:	010a3503          	ld	a0,16(s4)
    80001a20:	fff7871b          	addiw	a4,a5,-1
    80001a24:	02ea2023          	sw	a4,32(s4)
    80001a28:	e701                	bnez	a4,80001a30 <__handle_page_fault+0xea>
    80001a2a:	c119                	beqz	a0,80001a30 <__handle_page_fault+0xea>
    80001a2c:	ae9fe0ef          	jal	ra,80000514 <file_decref>
    80001a30:	024a2783          	lw	a5,36(s4)
    80001a34:	0027f693          	andi	a3,a5,2
    80001a38:	0047f713          	andi	a4,a5,4
    80001a3c:	8b85                	andi	a5,a5,1
    80001a3e:	2681                	sext.w	a3,a3
    80001a40:	2701                	sext.w	a4,a4
    80001a42:	cbbd                	beqz	a5,80001ab8 <__handle_page_fault+0x172>
    80001a44:	eedd                	bnez	a3,80001b02 <__handle_page_fault+0x1bc>
    80001a46:	04a00793          	li	a5,74
    80001a4a:	cf5d                	beqz	a4,80001b08 <__handle_page_fault+0x1c2>
    80001a4c:	8fc5                	or	a5,a5,s1
    80001a4e:	0117e793          	ori	a5,a5,17
    80001a52:	00f9b023          	sd	a5,0(s3)
    80001a56:	00297713          	andi	a4,s2,2
    80001a5a:	00497693          	andi	a3,s2,4
    80001a5e:	00197913          	andi	s2,s2,1
    80001a62:	2701                	sext.w	a4,a4
    80001a64:	2681                	sext.w	a3,a3
    80001a66:	02090663          	beqz	s2,80001a92 <__handle_page_fault+0x14c>
    80001a6a:	ef29                	bnez	a4,80001ac4 <__handle_page_fault+0x17e>
    80001a6c:	05b00713          	li	a4,91
    80001a70:	e299                	bnez	a3,80001a76 <__handle_page_fault+0x130>
    80001a72:	05300713          	li	a4,83
    80001a76:	8ff9                	and	a5,a5,a4
    80001a78:	08e79b63          	bne	a5,a4,80001b0e <__handle_page_fault+0x1c8>
    80001a7c:	12000073          	sfence.vma
    80001a80:	4501                	li	a0,0
    80001a82:	70a2                	ld	ra,40(sp)
    80001a84:	7402                	ld	s0,32(sp)
    80001a86:	64e2                	ld	s1,24(sp)
    80001a88:	6942                	ld	s2,16(sp)
    80001a8a:	69a2                	ld	s3,8(sp)
    80001a8c:	6a02                	ld	s4,0(sp)
    80001a8e:	6145                	addi	sp,sp,48
    80001a90:	8082                	ret
    80001a92:	e329                	bnez	a4,80001ad4 <__handle_page_fault+0x18e>
    80001a94:	05900713          	li	a4,89
    80001a98:	fef9                	bnez	a3,80001a76 <__handle_page_fault+0x130>
    80001a9a:	474d                	li	a4,19
    80001a9c:	bfe9                	j	80001a76 <__handle_page_fault+0x130>
    80001a9e:	7402                	ld	s0,32(sp)
    80001aa0:	00017797          	auipc	a5,0x17
    80001aa4:	5b07b783          	ld	a5,1456(a5) # 80019050 <currentproc>
    80001aa8:	70a2                	ld	ra,40(sp)
    80001aaa:	64e2                	ld	s1,24(sp)
    80001aac:	6942                	ld	s2,16(sp)
    80001aae:	69a2                	ld	s3,8(sp)
    80001ab0:	6a02                	ld	s4,0(sp)
    80001ab2:	63f0                	ld	a2,192(a5)
    80001ab4:	6145                	addi	sp,sp,48
    80001ab6:	b9f5                	j	800017b2 <__handle_page_fault_user>
    80001ab8:	ee9d                	bnez	a3,80001af6 <__handle_page_fault+0x1b0>
    80001aba:	04800793          	li	a5,72
    80001abe:	f759                	bnez	a4,80001a4c <__handle_page_fault+0x106>
    80001ac0:	4789                	li	a5,2
    80001ac2:	b769                	j	80001a4c <__handle_page_fault+0x106>
    80001ac4:	0c600613          	li	a2,198
    80001ac8:	05966713          	ori	a4,a2,89
    80001acc:	f6cd                	bnez	a3,80001a76 <__handle_page_fault+0x130>
    80001ace:	01166713          	ori	a4,a2,17
    80001ad2:	b755                	j	80001a76 <__handle_page_fault+0x130>
    80001ad4:	08400613          	li	a2,132
    80001ad8:	bfc5                	j	80001ac8 <__handle_page_fault+0x182>
    80001ada:	6605                	lui	a2,0x1
    80001adc:	b735                	j	80001a08 <__handle_page_fault+0xc2>
    80001ade:	8e09                	sub	a2,a2,a0
    80001ae0:	4581                	li	a1,0
    80001ae2:	9522                	add	a0,a0,s0
    80001ae4:	10b050ef          	jal	ra,800073ee <memset>
    80001ae8:	bf05                	j	80001a18 <__handle_page_fault+0xd2>
    80001aea:	6605                	lui	a2,0x1
    80001aec:	4581                	li	a1,0
    80001aee:	8522                	mv	a0,s0
    80001af0:	0ff050ef          	jal	ra,800073ee <memset>
    80001af4:	b715                	j	80001a18 <__handle_page_fault+0xd2>
    80001af6:	08400793          	li	a5,132
    80001afa:	db29                	beqz	a4,80001a4c <__handle_page_fault+0x106>
    80001afc:	0487e793          	ori	a5,a5,72
    80001b00:	b7b1                	j	80001a4c <__handle_page_fault+0x106>
    80001b02:	0c600793          	li	a5,198
    80001b06:	bfd5                	j	80001afa <__handle_page_fault+0x1b4>
    80001b08:	04200793          	li	a5,66
    80001b0c:	b781                	j	80001a4c <__handle_page_fault+0x106>
    80001b0e:	557d                	li	a0,-1
    80001b10:	bf8d                	j	80001a82 <__handle_page_fault+0x13c>
    80001b12:	00006517          	auipc	a0,0x6
    80001b16:	7ae50513          	addi	a0,a0,1966 # 800082c0 <illegal_insn_trap_table+0x384>
    80001b1a:	e84ff0ef          	jal	ra,8000119e <kassert_fail>

0000000080001b1e <handle_page_fault>:
    80001b1e:	1141                	addi	sp,sp,-16
    80001b20:	e406                	sd	ra,8(sp)
    80001b22:	00017797          	auipc	a5,0x17
    80001b26:	51e78793          	addi	a5,a5,1310 # 80019040 <vm_lock>
    80001b2a:	56fd                	li	a3,-1
    80001b2c:	4398                	lw	a4,0(a5)
    80001b2e:	2701                	sext.w	a4,a4
    80001b30:	ff75                	bnez	a4,80001b2c <handle_page_fault+0xe>
    80001b32:	8736                	mv	a4,a3
    80001b34:	0ce7a72f          	amoswap.w.aq	a4,a4,(a5)
    80001b38:	2701                	sext.w	a4,a4
    80001b3a:	0ff0000f          	fence
    80001b3e:	f77d                	bnez	a4,80001b2c <handle_page_fault+0xe>
    80001b40:	e07ff0ef          	jal	ra,80001946 <__handle_page_fault>
    80001b44:	0ff0000f          	fence
    80001b48:	60a2                	ld	ra,8(sp)
    80001b4a:	00017797          	auipc	a5,0x17
    80001b4e:	4e07ab23          	sw	zero,1270(a5) # 80019040 <vm_lock>
    80001b52:	0141                	addi	sp,sp,16
    80001b54:	8082                	ret

0000000080001b56 <__do_mmap>:
    80001b56:	7139                	addi	sp,sp,-64
    80001b58:	fff58813          	addi	a6,a1,-1 # fff <_ftext-0x7ffff001>
    80001b5c:	f822                	sd	s0,48(sp)
    80001b5e:	f426                	sd	s1,40(sp)
    80001b60:	f04a                	sd	s2,32(sp)
    80001b62:	e852                	sd	s4,16(sp)
    80001b64:	e456                	sd	s5,8(sp)
    80001b66:	e05a                	sd	s6,0(sp)
    80001b68:	00c85813          	srli	a6,a6,0xc
    80001b6c:	8b36                	mv	s6,a3
    80001b6e:	fc06                	sd	ra,56(sp)
    80001b70:	ec4e                	sd	s3,24(sp)
    80001b72:	8ac1                	andi	a3,a3,16
    80001b74:	892e                	mv	s2,a1
    80001b76:	8ab2                	mv	s5,a2
    80001b78:	84ba                	mv	s1,a4
    80001b7a:	8a3e                	mv	s4,a5
    80001b7c:	00180413          	addi	s0,a6,1
    80001b80:	c2cd                	beqz	a3,80001c22 <__do_mmap+0xcc>
    80001b82:	03451793          	slli	a5,a0,0x34
    80001b86:	e3dd                	bnez	a5,80001c2c <__do_mmap+0xd6>
    80001b88:	00a587b3          	add	a5,a1,a0
    80001b8c:	0aa7e063          	bltu	a5,a0,80001c2c <__do_mmap+0xd6>
    80001b90:	00017717          	auipc	a4,0x17
    80001b94:	68873703          	ld	a4,1672(a4) # 80019218 <current+0x48>
    80001b98:	89aa                	mv	s3,a0
    80001b9a:	08f76963          	bltu	a4,a5,80001c2c <__do_mmap+0xd6>
    80001b9e:	86d2                	mv	a3,s4
    80001ba0:	87d6                	mv	a5,s5
    80001ba2:	0004071b          	sext.w	a4,s0
    80001ba6:	8626                	mv	a2,s1
    80001ba8:	85ca                	mv	a1,s2
    80001baa:	854e                	mv	a0,s3
    80001bac:	e4eff0ef          	jal	ra,800011fa <__vmr_alloc>
    80001bb0:	8a2a                	mv	s4,a0
    80001bb2:	cd2d                	beqz	a0,80001c2c <__do_mmap+0xd6>
    80001bb4:	994e                	add	s2,s2,s3
    80001bb6:	0729fc63          	bgeu	s3,s2,80001c2e <__do_mmap+0xd8>
    80001bba:	84ce                	mv	s1,s3
    80001bbc:	a039                	j	80001bca <__do_mmap+0x74>
    80001bbe:	6785                	lui	a5,0x1
    80001bc0:	01443023          	sd	s4,0(s0)
    80001bc4:	94be                	add	s1,s1,a5
    80001bc6:	0324f463          	bgeu	s1,s2,80001bee <__do_mmap+0x98>
    80001bca:	4585                	li	a1,1
    80001bcc:	8526                	mv	a0,s1
    80001bce:	f1cff0ef          	jal	ra,800012ea <__walk_internal>
    80001bd2:	842a                	mv	s0,a0
    80001bd4:	c925                	beqz	a0,80001c44 <__do_mmap+0xee>
    80001bd6:	611c                	ld	a5,0(a0)
    80001bd8:	d3fd                	beqz	a5,80001bbe <__do_mmap+0x68>
    80001bda:	8526                	mv	a0,s1
    80001bdc:	6585                	lui	a1,0x1
    80001bde:	fe6ff0ef          	jal	ra,800013c4 <__do_munmap>
    80001be2:	6785                	lui	a5,0x1
    80001be4:	01443023          	sd	s4,0(s0)
    80001be8:	94be                	add	s1,s1,a5
    80001bea:	ff24e0e3          	bltu	s1,s2,80001bca <__do_mmap+0x74>
    80001bee:	0000a797          	auipc	a5,0xa
    80001bf2:	8ba7a783          	lw	a5,-1862(a5) # 8000b4a8 <demand_paging>
    80001bf6:	844e                	mv	s0,s3
    80001bf8:	c789                	beqz	a5,80001c02 <__do_mmap+0xac>
    80001bfa:	030b1793          	slli	a5,s6,0x30
    80001bfe:	0207d863          	bgez	a5,80001c2e <__do_mmap+0xd8>
    80001c02:	6485                	lui	s1,0x1
    80001c04:	a021                	j	80001c0c <__do_mmap+0xb6>
    80001c06:	9426                	add	s0,s0,s1
    80001c08:	03247363          	bgeu	s0,s2,80001c2e <__do_mmap+0xd8>
    80001c0c:	85d6                	mv	a1,s5
    80001c0e:	8522                	mv	a0,s0
    80001c10:	d37ff0ef          	jal	ra,80001946 <__handle_page_fault>
    80001c14:	d96d                	beqz	a0,80001c06 <__do_mmap+0xb0>
    80001c16:	00006517          	auipc	a0,0x6
    80001c1a:	6da50513          	addi	a0,a0,1754 # 800082f0 <illegal_insn_trap_table+0x3b4>
    80001c1e:	d80ff0ef          	jal	ra,8000119e <kassert_fail>
    80001c22:	8522                	mv	a0,s0
    80001c24:	f1aff0ef          	jal	ra,8000133e <__vm_alloc>
    80001c28:	89aa                	mv	s3,a0
    80001c2a:	f935                	bnez	a0,80001b9e <__do_mmap+0x48>
    80001c2c:	59fd                	li	s3,-1
    80001c2e:	70e2                	ld	ra,56(sp)
    80001c30:	7442                	ld	s0,48(sp)
    80001c32:	74a2                	ld	s1,40(sp)
    80001c34:	7902                	ld	s2,32(sp)
    80001c36:	6a42                	ld	s4,16(sp)
    80001c38:	6aa2                	ld	s5,8(sp)
    80001c3a:	6b02                	ld	s6,0(sp)
    80001c3c:	854e                	mv	a0,s3
    80001c3e:	69e2                	ld	s3,24(sp)
    80001c40:	6121                	addi	sp,sp,64
    80001c42:	8082                	ret
    80001c44:	00006517          	auipc	a0,0x6
    80001c48:	67450513          	addi	a0,a0,1652 # 800082b8 <illegal_insn_trap_table+0x37c>
    80001c4c:	d52ff0ef          	jal	ra,8000119e <kassert_fail>

0000000080001c50 <do_mmap>:
    80001c50:	7139                	addi	sp,sp,-64
    80001c52:	f822                	sd	s0,48(sp)
    80001c54:	fc06                	sd	ra,56(sp)
    80001c56:	f426                	sd	s1,40(sp)
    80001c58:	f04a                	sd	s2,32(sp)
    80001c5a:	0026f813          	andi	a6,a3,2
    80001c5e:	5429                	li	s0,-22
    80001c60:	08080063          	beqz	a6,80001ce0 <do_mmap+0x90>
    80001c64:	cdb5                	beqz	a1,80001ce0 <do_mmap+0x90>
    80001c66:	892a                	mv	s2,a0
    80001c68:	03479513          	slli	a0,a5,0x34
    80001c6c:	e935                	bnez	a0,80001ce0 <do_mmap+0x90>
    80001c6e:	0206f513          	andi	a0,a3,32
    80001c72:	ed35                	bnez	a0,80001cee <do_mmap+0x9e>
    80001c74:	853a                	mv	a0,a4
    80001c76:	ec3e                	sd	a5,24(sp)
    80001c78:	e836                	sd	a3,16(sp)
    80001c7a:	e432                	sd	a2,8(sp)
    80001c7c:	e02e                	sd	a1,0(sp)
    80001c7e:	93bfe0ef          	jal	ra,800005b8 <file_get>
    80001c82:	6582                	ld	a1,0(sp)
    80001c84:	6622                	ld	a2,8(sp)
    80001c86:	66c2                	ld	a3,16(sp)
    80001c88:	67e2                	ld	a5,24(sp)
    80001c8a:	84aa                	mv	s1,a0
    80001c8c:	c13d                	beqz	a0,80001cf2 <do_mmap+0xa2>
    80001c8e:	00017897          	auipc	a7,0x17
    80001c92:	3b288893          	addi	a7,a7,946 # 80019040 <vm_lock>
    80001c96:	577d                	li	a4,-1
    80001c98:	0008a803          	lw	a6,0(a7)
    80001c9c:	2801                	sext.w	a6,a6
    80001c9e:	fe081de3          	bnez	a6,80001c98 <do_mmap+0x48>
    80001ca2:	883a                	mv	a6,a4
    80001ca4:	0d08a82f          	amoswap.w.aq	a6,a6,(a7)
    80001ca8:	2801                	sext.w	a6,a6
    80001caa:	0ff0000f          	fence
    80001cae:	fe0815e3          	bnez	a6,80001c98 <do_mmap+0x48>
    80001cb2:	8726                	mv	a4,s1
    80001cb4:	854a                	mv	a0,s2
    80001cb6:	ea1ff0ef          	jal	ra,80001b56 <__do_mmap>
    80001cba:	00017797          	auipc	a5,0x17
    80001cbe:	51678793          	addi	a5,a5,1302 # 800191d0 <current>
    80001cc2:	63b8                	ld	a4,64(a5)
    80001cc4:	842a                	mv	s0,a0
    80001cc6:	00e57363          	bgeu	a0,a4,80001ccc <do_mmap+0x7c>
    80001cca:	e3a8                	sd	a0,64(a5)
    80001ccc:	0ff0000f          	fence
    80001cd0:	00017797          	auipc	a5,0x17
    80001cd4:	3607a823          	sw	zero,880(a5) # 80019040 <vm_lock>
    80001cd8:	c481                	beqz	s1,80001ce0 <do_mmap+0x90>
    80001cda:	8526                	mv	a0,s1
    80001cdc:	839fe0ef          	jal	ra,80000514 <file_decref>
    80001ce0:	70e2                	ld	ra,56(sp)
    80001ce2:	8522                	mv	a0,s0
    80001ce4:	7442                	ld	s0,48(sp)
    80001ce6:	74a2                	ld	s1,40(sp)
    80001ce8:	7902                	ld	s2,32(sp)
    80001cea:	6121                	addi	sp,sp,64
    80001cec:	8082                	ret
    80001cee:	4481                	li	s1,0
    80001cf0:	bf79                	j	80001c8e <do_mmap+0x3e>
    80001cf2:	545d                	li	s0,-9
    80001cf4:	b7f5                	j	80001ce0 <do_mmap+0x90>

0000000080001cf6 <__do_brk>:
    80001cf6:	1101                	addi	sp,sp,-32
    80001cf8:	e426                	sd	s1,8(sp)
    80001cfa:	00017497          	auipc	s1,0x17
    80001cfe:	4d648493          	addi	s1,s1,1238 # 800191d0 <current>
    80001d02:	789c                	ld	a5,48(s1)
    80001d04:	e04a                	sd	s2,0(sp)
    80001d06:	ec06                	sd	ra,24(sp)
    80001d08:	e822                	sd	s0,16(sp)
    80001d0a:	893e                	mv	s2,a5
    80001d0c:	00f56663          	bltu	a0,a5,80001d18 <__do_brk+0x22>
    80001d10:	0404b903          	ld	s2,64(s1)
    80001d14:	03256b63          	bltu	a0,s2,80001d4a <__do_brk+0x54>
    80001d18:	7c88                	ld	a0,56(s1)
    80001d1a:	e519                	bnez	a0,80001d28 <__do_brk+0x32>
    80001d1c:	fff78513          	addi	a0,a5,-1
    80001d20:	8131                	srli	a0,a0,0xc
    80001d22:	0505                	addi	a0,a0,1
    80001d24:	0532                	slli	a0,a0,0xc
    80001d26:	fc88                	sd	a0,56(s1)
    80001d28:	fff90413          	addi	s0,s2,-1
    80001d2c:	8031                	srli	s0,s0,0xc
    80001d2e:	0405                	addi	s0,s0,1
    80001d30:	0432                	slli	s0,s0,0xc
    80001d32:	04a46063          	bltu	s0,a0,80001d72 <__do_brk+0x7c>
    80001d36:	00856c63          	bltu	a0,s0,80001d4e <__do_brk+0x58>
    80001d3a:	fc80                	sd	s0,56(s1)
    80001d3c:	60e2                	ld	ra,24(sp)
    80001d3e:	6442                	ld	s0,16(sp)
    80001d40:	64a2                	ld	s1,8(sp)
    80001d42:	854a                	mv	a0,s2
    80001d44:	6902                	ld	s2,0(sp)
    80001d46:	6105                	addi	sp,sp,32
    80001d48:	8082                	ret
    80001d4a:	892a                	mv	s2,a0
    80001d4c:	b7f1                	j	80001d18 <__do_brk+0x22>
    80001d4e:	4781                	li	a5,0
    80001d50:	4701                	li	a4,0
    80001d52:	03200693          	li	a3,50
    80001d56:	567d                	li	a2,-1
    80001d58:	40a405b3          	sub	a1,s0,a0
    80001d5c:	dfbff0ef          	jal	ra,80001b56 <__do_mmap>
    80001d60:	7c9c                	ld	a5,56(s1)
    80001d62:	fcf50ce3          	beq	a0,a5,80001d3a <__do_brk+0x44>
    80001d66:	00006517          	auipc	a0,0x6
    80001d6a:	5b250513          	addi	a0,a0,1458 # 80008318 <illegal_insn_trap_table+0x3dc>
    80001d6e:	c30ff0ef          	jal	ra,8000119e <kassert_fail>
    80001d72:	408505b3          	sub	a1,a0,s0
    80001d76:	8522                	mv	a0,s0
    80001d78:	e4cff0ef          	jal	ra,800013c4 <__do_munmap>
    80001d7c:	60e2                	ld	ra,24(sp)
    80001d7e:	fc80                	sd	s0,56(s1)
    80001d80:	6442                	ld	s0,16(sp)
    80001d82:	64a2                	ld	s1,8(sp)
    80001d84:	854a                	mv	a0,s2
    80001d86:	6902                	ld	s2,0(sp)
    80001d88:	6105                	addi	sp,sp,32
    80001d8a:	8082                	ret

0000000080001d8c <do_brk>:
    80001d8c:	1141                	addi	sp,sp,-16
    80001d8e:	e406                	sd	ra,8(sp)
    80001d90:	00017797          	auipc	a5,0x17
    80001d94:	2b078793          	addi	a5,a5,688 # 80019040 <vm_lock>
    80001d98:	56fd                	li	a3,-1
    80001d9a:	4398                	lw	a4,0(a5)
    80001d9c:	2701                	sext.w	a4,a4
    80001d9e:	ff75                	bnez	a4,80001d9a <do_brk+0xe>
    80001da0:	8736                	mv	a4,a3
    80001da2:	0ce7a72f          	amoswap.w.aq	a4,a4,(a5)
    80001da6:	2701                	sext.w	a4,a4
    80001da8:	0ff0000f          	fence
    80001dac:	f77d                	bnez	a4,80001d9a <do_brk+0xe>
    80001dae:	f49ff0ef          	jal	ra,80001cf6 <__do_brk>
    80001db2:	0ff0000f          	fence
    80001db6:	60a2                	ld	ra,8(sp)
    80001db8:	00017797          	auipc	a5,0x17
    80001dbc:	2807a423          	sw	zero,648(a5) # 80019040 <vm_lock>
    80001dc0:	0141                	addi	sp,sp,16
    80001dc2:	8082                	ret

0000000080001dc4 <pk_vm_init>:
    80001dc4:	7139                	addi	sp,sp,-64
    80001dc6:	e456                	sd	s5,8(sp)
    80001dc8:	00017a97          	auipc	s5,0x17
    80001dcc:	518a8a93          	addi	s5,s5,1304 # 800192e0 <mem_size>
    80001dd0:	f822                	sd	s0,48(sp)
    80001dd2:	000ab403          	ld	s0,0(s5)
    80001dd6:	4785                	li	a5,1
    80001dd8:	fc06                	sd	ra,56(sp)
    80001dda:	f426                	sd	s1,40(sp)
    80001ddc:	f04a                	sd	s2,32(sp)
    80001dde:	ec4e                	sd	s3,24(sp)
    80001de0:	e852                	sd	s4,16(sp)
    80001de2:	07fe                	slli	a5,a5,0x1f
    80001de4:	0087f363          	bgeu	a5,s0,80001dea <pk_vm_init+0x26>
    80001de8:	843e                	mv	s0,a5
    80001dea:	008ab023          	sd	s0,0(s5)
    80001dee:	01445913          	srli	s2,s0,0x14
    80001df2:	47a1                	li	a5,8
    80001df4:	00f97363          	bgeu	s2,a5,80001dfa <pk_vm_init+0x36>
    80001df8:	4921                	li	s2,8
    80001dfa:	00018797          	auipc	a5,0x18
    80001dfe:	20578793          	addi	a5,a5,517 # 80019fff <hart_mask+0xccf>
    80001e02:	83b1                	srli	a5,a5,0xc
    80001e04:	0785                	addi	a5,a5,1
    80001e06:	07b2                	slli	a5,a5,0xc
    80001e08:	00c91713          	slli	a4,s2,0xc
    80001e0c:	00017997          	auipc	s3,0x17
    80001e10:	48498993          	addi	s3,s3,1156 # 80019290 <first_free_paddr>
    80001e14:	973e                	add	a4,a4,a5
    80001e16:	00017697          	auipc	a3,0x17
    80001e1a:	22f6b123          	sd	a5,546(a3) # 80019038 <first_free_page>
    80001e1e:	00017697          	auipc	a3,0x17
    80001e22:	2126b523          	sd	s2,522(a3) # 80019028 <free_pages>
    80001e26:	00e9b023          	sd	a4,0(s3)
    80001e2a:	b88ff0ef          	jal	ra,800011b2 <__page_alloc>
    80001e2e:	0009b703          	ld	a4,0(s3)
    80001e32:	4485                	li	s1,1
    80001e34:	01f49593          	slli	a1,s1,0x1f
    80001e38:	80000637          	lui	a2,0x80000
    80001e3c:	87aa                	mv	a5,a0
    80001e3e:	963a                	add	a2,a2,a4
    80001e40:	852e                	mv	a0,a1
    80001e42:	469d                	li	a3,7
    80001e44:	00017a17          	auipc	s4,0x17
    80001e48:	4b4a0a13          	addi	s4,s4,1204 # 800192f8 <root_page_table>
    80001e4c:	00fa3023          	sd	a5,0(s4)
    80001e50:	813ff0ef          	jal	ra,80001662 <__map_kernel_range>
    80001e54:	0009b583          	ld	a1,0(s3)
    80001e58:	00c45613          	srli	a2,s0,0xc
    80001e5c:	41260633          	sub	a2,a2,s2
    80001e60:	852e                	mv	a0,a1
    80001e62:	469d                	li	a3,7
    80001e64:	0632                	slli	a2,a2,0xc
    80001e66:	ffcff0ef          	jal	ra,80001662 <__map_kernel_range>
    80001e6a:	000ab503          	ld	a0,0(s5)
    80001e6e:	0009b703          	ld	a4,0(s3)
    80001e72:	01f49793          	slli	a5,s1,0x1f
    80001e76:	953e                	add	a0,a0,a5
    80001e78:	8d19                	sub	a0,a0,a4
    80001e7a:	00a7f363          	bgeu	a5,a0,80001e80 <pk_vm_init+0xbc>
    80001e7e:	853e                	mv	a0,a5
    80001e80:	00017497          	auipc	s1,0x17
    80001e84:	35048493          	addi	s1,s1,848 # 800191d0 <current>
    80001e88:	6785                	lui	a5,0x1
    80001e8a:	e0a8                	sd	a0,64(s1)
    80001e8c:	e4a8                	sd	a0,72(s1)
    80001e8e:	8045                	srli	s0,s0,0x11
    80001e90:	80078793          	addi	a5,a5,-2048 # 800 <_ftext-0x7ffff800>
    80001e94:	0087f363          	bgeu	a5,s0,80001e9a <pk_vm_init+0xd6>
    80001e98:	843e                	mv	s0,a5
    80001e9a:	0432                	slli	s0,s0,0xc
    80001e9c:	4701                	li	a4,0
    80001e9e:	4781                	li	a5,0
    80001ea0:	03200693          	li	a3,50
    80001ea4:	461d                	li	a2,7
    80001ea6:	85a2                	mv	a1,s0
    80001ea8:	8d01                	sub	a0,a0,s0
    80001eaa:	cadff0ef          	jal	ra,80001b56 <__do_mmap>
    80001eae:	577d                	li	a4,-1
    80001eb0:	04e50263          	beq	a0,a4,80001ef4 <pk_vm_init+0x130>
    80001eb4:	942a                	add	s0,s0,a0
    80001eb6:	e8a0                	sd	s0,80(s1)
    80001eb8:	12000073          	sfence.vma
    80001ebc:	000a3783          	ld	a5,0(s4)
    80001ec0:	177e                	slli	a4,a4,0x3f
    80001ec2:	83b1                	srli	a5,a5,0xc
    80001ec4:	8fd9                	or	a5,a5,a4
    80001ec6:	18079073          	csrw	satp,a5
    80001eca:	00009717          	auipc	a4,0x9
    80001ece:	5e673703          	ld	a4,1510(a4) # 8000b4b0 <k_satp_p>
    80001ed2:	e31c                	sd	a5,0(a4)
    80001ed4:	adeff0ef          	jal	ra,800011b2 <__page_alloc>
    80001ed8:	842a                	mv	s0,a0
    80001eda:	719000ef          	jal	ra,80002df2 <pmm_init>
    80001ede:	6505                	lui	a0,0x1
    80001ee0:	70e2                	ld	ra,56(sp)
    80001ee2:	9522                	add	a0,a0,s0
    80001ee4:	7442                	ld	s0,48(sp)
    80001ee6:	74a2                	ld	s1,40(sp)
    80001ee8:	7902                	ld	s2,32(sp)
    80001eea:	69e2                	ld	s3,24(sp)
    80001eec:	6a42                	ld	s4,16(sp)
    80001eee:	6aa2                	ld	s5,8(sp)
    80001ef0:	6121                	addi	sp,sp,64
    80001ef2:	8082                	ret
    80001ef4:	00006517          	auipc	a0,0x6
    80001ef8:	49450513          	addi	a0,a0,1172 # 80008388 <illegal_insn_trap_table+0x44c>
    80001efc:	aa2ff0ef          	jal	ra,8000119e <kassert_fail>

0000000080001f00 <__continue_walk_create_user>:
    80001f00:	1101                	addi	sp,sp,-32
    80001f02:	e822                	sd	s0,16(sp)
    80001f04:	e426                	sd	s1,8(sp)
    80001f06:	e04a                	sd	s2,0(sp)
    80001f08:	ec06                	sd	ra,24(sp)
    80001f0a:	892e                	mv	s2,a1
    80001f0c:	8432                	mv	s0,a2
    80001f0e:	84aa                	mv	s1,a0
    80001f10:	aa2ff0ef          	jal	ra,800011b2 <__page_alloc>
    80001f14:	00c55793          	srli	a5,a0,0xc
    80001f18:	07aa                	slli	a5,a5,0xa
    80001f1a:	0017e793          	ori	a5,a5,1
    80001f1e:	8522                	mv	a0,s0
    80001f20:	6442                	ld	s0,16(sp)
    80001f22:	60e2                	ld	ra,24(sp)
    80001f24:	00f93023          	sd	a5,0(s2)
    80001f28:	85a6                	mv	a1,s1
    80001f2a:	6902                	ld	s2,0(sp)
    80001f2c:	64a2                	ld	s1,8(sp)
    80001f2e:	4605                	li	a2,1
    80001f30:	6105                	addi	sp,sp,32
    80001f32:	b01d                	j	80001758 <__walk_internal_user>

0000000080001f34 <__do_mmap_user>:
    80001f34:	715d                	addi	sp,sp,-80
    80001f36:	fff58893          	addi	a7,a1,-1 # fff <_ftext-0x7ffff001>
    80001f3a:	e0a2                	sd	s0,64(sp)
    80001f3c:	fc26                	sd	s1,56(sp)
    80001f3e:	f84a                	sd	s2,48(sp)
    80001f40:	f44e                	sd	s3,40(sp)
    80001f42:	ec56                	sd	s5,24(sp)
    80001f44:	e85a                	sd	s6,16(sp)
    80001f46:	e45e                	sd	s7,8(sp)
    80001f48:	8b36                	mv	s6,a3
    80001f4a:	00c8d893          	srli	a7,a7,0xc
    80001f4e:	e486                	sd	ra,72(sp)
    80001f50:	f052                	sd	s4,32(sp)
    80001f52:	8ac1                	andi	a3,a3,16
    80001f54:	84ae                	mv	s1,a1
    80001f56:	8ab2                	mv	s5,a2
    80001f58:	89ba                	mv	s3,a4
    80001f5a:	8bbe                	mv	s7,a5
    80001f5c:	8942                	mv	s2,a6
    80001f5e:	00188413          	addi	s0,a7,1
    80001f62:	cac1                	beqz	a3,80001ff2 <__do_mmap_user+0xbe>
    80001f64:	03451793          	slli	a5,a0,0x34
    80001f68:	ebd1                	bnez	a5,80001ffc <__do_mmap_user+0xc8>
    80001f6a:	00a587b3          	add	a5,a1,a0
    80001f6e:	08a7e763          	bltu	a5,a0,80001ffc <__do_mmap_user+0xc8>
    80001f72:	00017717          	auipc	a4,0x17
    80001f76:	2a673703          	ld	a4,678(a4) # 80019218 <current+0x48>
    80001f7a:	8a2a                	mv	s4,a0
    80001f7c:	08f76063          	bltu	a4,a5,80001ffc <__do_mmap_user+0xc8>
    80001f80:	864e                	mv	a2,s3
    80001f82:	87d6                	mv	a5,s5
    80001f84:	0004071b          	sext.w	a4,s0
    80001f88:	86de                	mv	a3,s7
    80001f8a:	85a6                	mv	a1,s1
    80001f8c:	8552                	mv	a0,s4
    80001f8e:	a6cff0ef          	jal	ra,800011fa <__vmr_alloc>
    80001f92:	89aa                	mv	s3,a0
    80001f94:	c525                	beqz	a0,80001ffc <__do_mmap_user+0xc8>
    80001f96:	94d2                	add	s1,s1,s4
    80001f98:	069a7363          	bgeu	s4,s1,80001ffe <__do_mmap_user+0xca>
    80001f9c:	8452                	mv	s0,s4
    80001f9e:	6b85                	lui	s7,0x1
    80001fa0:	4605                	li	a2,1
    80001fa2:	85a2                	mv	a1,s0
    80001fa4:	854a                	mv	a0,s2
    80001fa6:	fb2ff0ef          	jal	ra,80001758 <__walk_internal_user>
    80001faa:	c535                	beqz	a0,80002016 <__do_mmap_user+0xe2>
    80001fac:	611c                	ld	a5,0(a0)
    80001fae:	ebb5                	bnez	a5,80002022 <__do_mmap_user+0xee>
    80001fb0:	01353023          	sd	s3,0(a0)
    80001fb4:	945e                	add	s0,s0,s7
    80001fb6:	fe9465e3          	bltu	s0,s1,80001fa0 <__do_mmap_user+0x6c>
    80001fba:	00009797          	auipc	a5,0x9
    80001fbe:	4ee7a783          	lw	a5,1262(a5) # 8000b4a8 <demand_paging>
    80001fc2:	8452                	mv	s0,s4
    80001fc4:	c791                	beqz	a5,80001fd0 <__do_mmap_user+0x9c>
    80001fc6:	030b1793          	slli	a5,s6,0x30
    80001fca:	0207da63          	bgez	a5,80001ffe <__do_mmap_user+0xca>
    80001fce:	8452                	mv	s0,s4
    80001fd0:	6985                	lui	s3,0x1
    80001fd2:	a021                	j	80001fda <__do_mmap_user+0xa6>
    80001fd4:	944e                	add	s0,s0,s3
    80001fd6:	02947463          	bgeu	s0,s1,80001ffe <__do_mmap_user+0xca>
    80001fda:	864a                	mv	a2,s2
    80001fdc:	85d6                	mv	a1,s5
    80001fde:	8522                	mv	a0,s0
    80001fe0:	fd2ff0ef          	jal	ra,800017b2 <__handle_page_fault_user>
    80001fe4:	d965                	beqz	a0,80001fd4 <__do_mmap_user+0xa0>
    80001fe6:	00006517          	auipc	a0,0x6
    80001fea:	3d250513          	addi	a0,a0,978 # 800083b8 <illegal_insn_trap_table+0x47c>
    80001fee:	9b0ff0ef          	jal	ra,8000119e <kassert_fail>
    80001ff2:	8522                	mv	a0,s0
    80001ff4:	b4aff0ef          	jal	ra,8000133e <__vm_alloc>
    80001ff8:	8a2a                	mv	s4,a0
    80001ffa:	f159                	bnez	a0,80001f80 <__do_mmap_user+0x4c>
    80001ffc:	5a7d                	li	s4,-1
    80001ffe:	60a6                	ld	ra,72(sp)
    80002000:	6406                	ld	s0,64(sp)
    80002002:	74e2                	ld	s1,56(sp)
    80002004:	7942                	ld	s2,48(sp)
    80002006:	79a2                	ld	s3,40(sp)
    80002008:	6ae2                	ld	s5,24(sp)
    8000200a:	6b42                	ld	s6,16(sp)
    8000200c:	6ba2                	ld	s7,8(sp)
    8000200e:	8552                	mv	a0,s4
    80002010:	7a02                	ld	s4,32(sp)
    80002012:	6161                	addi	sp,sp,80
    80002014:	8082                	ret
    80002016:	00006517          	auipc	a0,0x6
    8000201a:	2a250513          	addi	a0,a0,674 # 800082b8 <illegal_insn_trap_table+0x37c>
    8000201e:	980ff0ef          	jal	ra,8000119e <kassert_fail>
    80002022:	00006517          	auipc	a0,0x6
    80002026:	38650513          	addi	a0,a0,902 # 800083a8 <illegal_insn_trap_table+0x46c>
    8000202a:	950ff0ef          	jal	ra,8000117a <do_panic>

000000008000202e <__map_kernel_range_pgtbl>:
    8000202e:	fff60793          	addi	a5,a2,-1 # ffffffff7fffffff <_end+0xfffffffefffe5fff>
    80002032:	83b1                	srli	a5,a5,0xc
    80002034:	715d                	addi	sp,sp,-80
    80002036:	0785                	addi	a5,a5,1
    80002038:	f44e                	sd	s3,40(sp)
    8000203a:	e486                	sd	ra,72(sp)
    8000203c:	e0a2                	sd	s0,64(sp)
    8000203e:	fc26                	sd	s1,56(sp)
    80002040:	f84a                	sd	s2,48(sp)
    80002042:	f052                	sd	s4,32(sp)
    80002044:	ec56                	sd	s5,24(sp)
    80002046:	e85a                	sd	s6,16(sp)
    80002048:	e45e                	sd	s7,8(sp)
    8000204a:	e062                	sd	s8,0(sp)
    8000204c:	07b2                	slli	a5,a5,0xc
    8000204e:	40a589b3          	sub	s3,a1,a0
    80002052:	c3c9                	beqz	a5,800020d4 <__map_kernel_range_pgtbl+0xa6>
    80002054:	0016fa93          	andi	s5,a3,1
    80002058:	8c2a                	mv	s8,a0
    8000205a:	893a                	mv	s2,a4
    8000205c:	00c7d493          	srli	s1,a5,0xc
    80002060:	4b81                	li	s7,0
    80002062:	080a9963          	bnez	s5,800020f4 <__map_kernel_range_pgtbl+0xc6>
    80002066:	0026fa13          	andi	s4,a3,2
    8000206a:	04b2                	slli	s1,s1,0xc
    8000206c:	8a91                	andi	a3,a3,4
    8000206e:	084beb13          	ori	s6,s7,132
    80002072:	94e2                	add	s1,s1,s8
    80002074:	2a01                	sext.w	s4,s4
    80002076:	0006841b          	sext.w	s0,a3
    8000207a:	0ccbeb93          	ori	s7,s7,204
    8000207e:	a005                	j	8000209e <__map_kernel_range_pgtbl+0x70>
    80002080:	060a1663          	bnez	s4,800020ec <__map_kernel_range_pgtbl+0xbe>
    80002084:	04800713          	li	a4,72
    80002088:	e011                	bnez	s0,8000208c <__map_kernel_range_pgtbl+0x5e>
    8000208a:	4709                	li	a4,2
    8000208c:	07aa                	slli	a5,a5,0xa
    8000208e:	8fd9                	or	a5,a5,a4
    80002090:	0017e793          	ori	a5,a5,1
    80002094:	e11c                	sd	a5,0(a0)
    80002096:	6785                	lui	a5,0x1
    80002098:	9c3e                	add	s8,s8,a5
    8000209a:	029c0d63          	beq	s8,s1,800020d4 <__map_kernel_range_pgtbl+0xa6>
    8000209e:	4605                	li	a2,1
    800020a0:	85e2                	mv	a1,s8
    800020a2:	854a                	mv	a0,s2
    800020a4:	eb4ff0ef          	jal	ra,80001758 <__walk_internal_user>
    800020a8:	c929                	beqz	a0,800020fa <__map_kernel_range_pgtbl+0xcc>
    800020aa:	018987b3          	add	a5,s3,s8
    800020ae:	83b1                	srli	a5,a5,0xc
    800020b0:	fc0a88e3          	beqz	s5,80002080 <__map_kernel_range_pgtbl+0x52>
    800020b4:	020a1c63          	bnez	s4,800020ec <__map_kernel_range_pgtbl+0xbe>
    800020b8:	04a00713          	li	a4,74
    800020bc:	f861                	bnez	s0,8000208c <__map_kernel_range_pgtbl+0x5e>
    800020be:	04200713          	li	a4,66
    800020c2:	07aa                	slli	a5,a5,0xa
    800020c4:	8fd9                	or	a5,a5,a4
    800020c6:	0017e793          	ori	a5,a5,1
    800020ca:	e11c                	sd	a5,0(a0)
    800020cc:	6785                	lui	a5,0x1
    800020ce:	9c3e                	add	s8,s8,a5
    800020d0:	fc9c17e3          	bne	s8,s1,8000209e <__map_kernel_range_pgtbl+0x70>
    800020d4:	60a6                	ld	ra,72(sp)
    800020d6:	6406                	ld	s0,64(sp)
    800020d8:	74e2                	ld	s1,56(sp)
    800020da:	7942                	ld	s2,48(sp)
    800020dc:	79a2                	ld	s3,40(sp)
    800020de:	7a02                	ld	s4,32(sp)
    800020e0:	6ae2                	ld	s5,24(sp)
    800020e2:	6b42                	ld	s6,16(sp)
    800020e4:	6ba2                	ld	s7,8(sp)
    800020e6:	6c02                	ld	s8,0(sp)
    800020e8:	6161                	addi	sp,sp,80
    800020ea:	8082                	ret
    800020ec:	875a                	mv	a4,s6
    800020ee:	dc59                	beqz	s0,8000208c <__map_kernel_range_pgtbl+0x5e>
    800020f0:	875e                	mv	a4,s7
    800020f2:	bf69                	j	8000208c <__map_kernel_range_pgtbl+0x5e>
    800020f4:	04200b93          	li	s7,66
    800020f8:	b7bd                	j	80002066 <__map_kernel_range_pgtbl+0x38>
    800020fa:	00006517          	auipc	a0,0x6
    800020fe:	1be50513          	addi	a0,a0,446 # 800082b8 <illegal_insn_trap_table+0x37c>
    80002102:	89cff0ef          	jal	ra,8000119e <kassert_fail>

0000000080002106 <walkaddr.part.0>:
    80002106:	1141                	addi	sp,sp,-16
    80002108:	4601                	li	a2,0
    8000210a:	e406                	sd	ra,8(sp)
    8000210c:	e4cff0ef          	jal	ra,80001758 <__walk_internal_user>
    80002110:	c10d                	beqz	a0,80002132 <walkaddr.part.0+0x2c>
    80002112:	611c                	ld	a5,0(a0)
    80002114:	4745                	li	a4,17
    80002116:	4501                	li	a0,0
    80002118:	0117f693          	andi	a3,a5,17
    8000211c:	00e68563          	beq	a3,a4,80002126 <walkaddr.part.0+0x20>
    80002120:	60a2                	ld	ra,8(sp)
    80002122:	0141                	addi	sp,sp,16
    80002124:	8082                	ret
    80002126:	60a2                	ld	ra,8(sp)
    80002128:	83a9                	srli	a5,a5,0xa
    8000212a:	00c79513          	slli	a0,a5,0xc
    8000212e:	0141                	addi	sp,sp,16
    80002130:	8082                	ret
    80002132:	60a2                	ld	ra,8(sp)
    80002134:	4501                	li	a0,0
    80002136:	0141                	addi	sp,sp,16
    80002138:	8082                	ret

000000008000213a <mappages>:
    8000213a:	7139                	addi	sp,sp,-64
    8000213c:	f426                	sd	s1,40(sp)
    8000213e:	167d                	addi	a2,a2,-1
    80002140:	74fd                	lui	s1,0xfffff
    80002142:	f822                	sd	s0,48(sp)
    80002144:	962e                	add	a2,a2,a1
    80002146:	0095f433          	and	s0,a1,s1
    8000214a:	f04a                	sd	s2,32(sp)
    8000214c:	ec4e                	sd	s3,24(sp)
    8000214e:	e852                	sd	s4,16(sp)
    80002150:	e456                	sd	s5,8(sp)
    80002152:	fc06                	sd	ra,56(sp)
    80002154:	8a2a                	mv	s4,a0
    80002156:	89ba                	mv	s3,a4
    80002158:	8cf1                	and	s1,s1,a2
    8000215a:	40868933          	sub	s2,a3,s0
    8000215e:	6a85                	lui	s5,0x1
    80002160:	a029                	j	8000216a <mappages+0x30>
    80002162:	e11c                	sd	a5,0(a0)
    80002164:	02940b63          	beq	s0,s1,8000219a <mappages+0x60>
    80002168:	9456                	add	s0,s0,s5
    8000216a:	85a2                	mv	a1,s0
    8000216c:	4605                	li	a2,1
    8000216e:	8552                	mv	a0,s4
    80002170:	de8ff0ef          	jal	ra,80001758 <__walk_internal_user>
    80002174:	008907b3          	add	a5,s2,s0
    80002178:	83b1                	srli	a5,a5,0xc
    8000217a:	07aa                	slli	a5,a5,0xa
    8000217c:	0137e7b3          	or	a5,a5,s3
    80002180:	0017e793          	ori	a5,a5,1
    80002184:	fd79                	bnez	a0,80002162 <mappages+0x28>
    80002186:	557d                	li	a0,-1
    80002188:	70e2                	ld	ra,56(sp)
    8000218a:	7442                	ld	s0,48(sp)
    8000218c:	74a2                	ld	s1,40(sp)
    8000218e:	7902                	ld	s2,32(sp)
    80002190:	69e2                	ld	s3,24(sp)
    80002192:	6a42                	ld	s4,16(sp)
    80002194:	6aa2                	ld	s5,8(sp)
    80002196:	6121                	addi	sp,sp,64
    80002198:	8082                	ret
    8000219a:	4501                	li	a0,0
    8000219c:	b7f5                	j	80002188 <mappages+0x4e>

000000008000219e <vmcopy>:
    8000219e:	711d                	addi	sp,sp,-96
    800021a0:	fc4e                	sd	s3,56(sp)
    800021a2:	00017997          	auipc	s3,0x17
    800021a6:	02e98993          	addi	s3,s3,46 # 800191d0 <current>
    800021aa:	0489b783          	ld	a5,72(s3)
    800021ae:	ec86                	sd	ra,88(sp)
    800021b0:	e8a2                	sd	s0,80(sp)
    800021b2:	e4a6                	sd	s1,72(sp)
    800021b4:	e0ca                	sd	s2,64(sp)
    800021b6:	f852                	sd	s4,48(sp)
    800021b8:	f456                	sd	s5,40(sp)
    800021ba:	f05a                	sd	s6,32(sp)
    800021bc:	ec5e                	sd	s7,24(sp)
    800021be:	e862                	sd	s8,16(sp)
    800021c0:	e466                	sd	s9,8(sp)
    800021c2:	e06a                	sd	s10,0(sp)
    800021c4:	c7dd                	beqz	a5,80002272 <vmcopy+0xd4>
    800021c6:	892a                	mv	s2,a0
    800021c8:	8a2e                	mv	s4,a1
    800021ca:	4c81                	li	s9,0
    800021cc:	00017c17          	auipc	s8,0x17
    800021d0:	ff4c0c13          	addi	s8,s8,-12 # 800191c0 <pmm_manager>
    800021d4:	00017b97          	auipc	s7,0x17
    800021d8:	0dcb8b93          	addi	s7,s7,220 # 800192b0 <pages>
    800021dc:	00009b17          	auipc	s6,0x9
    800021e0:	2acb3b03          	ld	s6,684(s6) # 8000b488 <trap_table+0x48>
    800021e4:	00017a97          	auipc	s5,0x17
    800021e8:	094a8a93          	addi	s5,s5,148 # 80019278 <nbase>
    800021ec:	6485                	lui	s1,0x1
    800021ee:	4601                	li	a2,0
    800021f0:	85e6                	mv	a1,s9
    800021f2:	854a                	mv	a0,s2
    800021f4:	d64ff0ef          	jal	ra,80001758 <__walk_internal_user>
    800021f8:	842a                	mv	s0,a0
    800021fa:	c53d                	beqz	a0,80002268 <vmcopy+0xca>
    800021fc:	6118                	ld	a4,0(a0)
    800021fe:	00177793          	andi	a5,a4,1
    80002202:	cbb5                	beqz	a5,80002276 <vmcopy+0xd8>
    80002204:	000c3683          	ld	a3,0(s8)
    80002208:	00a75793          	srli	a5,a4,0xa
    8000220c:	4505                	li	a0,1
    8000220e:	6e94                	ld	a3,24(a3)
    80002210:	00c79413          	slli	s0,a5,0xc
    80002214:	3ff77d13          	andi	s10,a4,1023
    80002218:	9682                	jalr	a3
    8000221a:	000bb683          	ld	a3,0(s7)
    8000221e:	000ab783          	ld	a5,0(s5)
    80002222:	40d506b3          	sub	a3,a0,a3
    80002226:	868d                	srai	a3,a3,0x3
    80002228:	036686b3          	mul	a3,a3,s6
    8000222c:	96be                	add	a3,a3,a5
    8000222e:	06b2                	slli	a3,a3,0xc
    80002230:	cab9                	beqz	a3,80002286 <vmcopy+0xe8>
    80002232:	87a2                	mv	a5,s0
    80002234:	8636                	mv	a2,a3
    80002236:	009408b3          	add	a7,s0,s1
    8000223a:	0007b803          	ld	a6,0(a5) # 1000 <_ftext-0x7ffff000>
    8000223e:	6788                	ld	a0,8(a5)
    80002240:	6b8c                	ld	a1,16(a5)
    80002242:	6f98                	ld	a4,24(a5)
    80002244:	01063023          	sd	a6,0(a2)
    80002248:	e608                	sd	a0,8(a2)
    8000224a:	ea0c                	sd	a1,16(a2)
    8000224c:	ee18                	sd	a4,24(a2)
    8000224e:	02078793          	addi	a5,a5,32
    80002252:	02060613          	addi	a2,a2,32
    80002256:	ff1792e3          	bne	a5,a7,8000223a <vmcopy+0x9c>
    8000225a:	876a                	mv	a4,s10
    8000225c:	6605                	lui	a2,0x1
    8000225e:	85e6                	mv	a1,s9
    80002260:	8552                	mv	a0,s4
    80002262:	ed9ff0ef          	jal	ra,8000213a <mappages>
    80002266:	e105                	bnez	a0,80002286 <vmcopy+0xe8>
    80002268:	0489b783          	ld	a5,72(s3)
    8000226c:	9ca6                	add	s9,s9,s1
    8000226e:	f8fce0e3          	bltu	s9,a5,800021ee <vmcopy+0x50>
    80002272:	4501                	li	a0,0
    80002274:	a811                	j	80002288 <vmcopy+0xea>
    80002276:	4605                	li	a2,1
    80002278:	85e6                	mv	a1,s9
    8000227a:	8552                	mv	a0,s4
    8000227c:	cdcff0ef          	jal	ra,80001758 <__walk_internal_user>
    80002280:	601c                	ld	a5,0(s0)
    80002282:	e11c                	sd	a5,0(a0)
    80002284:	b7d5                	j	80002268 <vmcopy+0xca>
    80002286:	557d                	li	a0,-1
    80002288:	60e6                	ld	ra,88(sp)
    8000228a:	6446                	ld	s0,80(sp)
    8000228c:	64a6                	ld	s1,72(sp)
    8000228e:	6906                	ld	s2,64(sp)
    80002290:	79e2                	ld	s3,56(sp)
    80002292:	7a42                	ld	s4,48(sp)
    80002294:	7aa2                	ld	s5,40(sp)
    80002296:	7b02                	ld	s6,32(sp)
    80002298:	6be2                	ld	s7,24(sp)
    8000229a:	6c42                	ld	s8,16(sp)
    8000229c:	6ca2                	ld	s9,8(sp)
    8000229e:	6d02                	ld	s10,0(sp)
    800022a0:	6125                	addi	sp,sp,96
    800022a2:	8082                	ret

00000000800022a4 <uvmcopy>:
    800022a4:	711d                	addi	sp,sp,-96
    800022a6:	fc4e                	sd	s3,56(sp)
    800022a8:	00017997          	auipc	s3,0x17
    800022ac:	f2898993          	addi	s3,s3,-216 # 800191d0 <current>
    800022b0:	0489b783          	ld	a5,72(s3)
    800022b4:	ec86                	sd	ra,88(sp)
    800022b6:	e8a2                	sd	s0,80(sp)
    800022b8:	e4a6                	sd	s1,72(sp)
    800022ba:	e0ca                	sd	s2,64(sp)
    800022bc:	f852                	sd	s4,48(sp)
    800022be:	f456                	sd	s5,40(sp)
    800022c0:	f05a                	sd	s6,32(sp)
    800022c2:	ec5e                	sd	s7,24(sp)
    800022c4:	e862                	sd	s8,16(sp)
    800022c6:	e466                	sd	s9,8(sp)
    800022c8:	e06a                	sd	s10,0(sp)
    800022ca:	c7dd                	beqz	a5,80002378 <uvmcopy+0xd4>
    800022cc:	892a                	mv	s2,a0
    800022ce:	8a2e                	mv	s4,a1
    800022d0:	4c81                	li	s9,0
    800022d2:	00017c17          	auipc	s8,0x17
    800022d6:	eeec0c13          	addi	s8,s8,-274 # 800191c0 <pmm_manager>
    800022da:	00017b97          	auipc	s7,0x17
    800022de:	fd6b8b93          	addi	s7,s7,-42 # 800192b0 <pages>
    800022e2:	00009b17          	auipc	s6,0x9
    800022e6:	1a6b3b03          	ld	s6,422(s6) # 8000b488 <trap_table+0x48>
    800022ea:	00017a97          	auipc	s5,0x17
    800022ee:	f8ea8a93          	addi	s5,s5,-114 # 80019278 <nbase>
    800022f2:	6485                	lui	s1,0x1
    800022f4:	4601                	li	a2,0
    800022f6:	85e6                	mv	a1,s9
    800022f8:	854a                	mv	a0,s2
    800022fa:	c5eff0ef          	jal	ra,80001758 <__walk_internal_user>
    800022fe:	842a                	mv	s0,a0
    80002300:	c53d                	beqz	a0,8000236e <uvmcopy+0xca>
    80002302:	6118                	ld	a4,0(a0)
    80002304:	00177793          	andi	a5,a4,1
    80002308:	cbb5                	beqz	a5,8000237c <uvmcopy+0xd8>
    8000230a:	000c3683          	ld	a3,0(s8)
    8000230e:	00a75793          	srli	a5,a4,0xa
    80002312:	4505                	li	a0,1
    80002314:	6e94                	ld	a3,24(a3)
    80002316:	00c79413          	slli	s0,a5,0xc
    8000231a:	3ff77d13          	andi	s10,a4,1023
    8000231e:	9682                	jalr	a3
    80002320:	000bb683          	ld	a3,0(s7)
    80002324:	000ab783          	ld	a5,0(s5)
    80002328:	40d506b3          	sub	a3,a0,a3
    8000232c:	868d                	srai	a3,a3,0x3
    8000232e:	036686b3          	mul	a3,a3,s6
    80002332:	96be                	add	a3,a3,a5
    80002334:	06b2                	slli	a3,a3,0xc
    80002336:	cab9                	beqz	a3,8000238c <uvmcopy+0xe8>
    80002338:	87a2                	mv	a5,s0
    8000233a:	8636                	mv	a2,a3
    8000233c:	009408b3          	add	a7,s0,s1
    80002340:	0007b803          	ld	a6,0(a5)
    80002344:	6788                	ld	a0,8(a5)
    80002346:	6b8c                	ld	a1,16(a5)
    80002348:	6f98                	ld	a4,24(a5)
    8000234a:	01063023          	sd	a6,0(a2) # 1000 <_ftext-0x7ffff000>
    8000234e:	e608                	sd	a0,8(a2)
    80002350:	ea0c                	sd	a1,16(a2)
    80002352:	ee18                	sd	a4,24(a2)
    80002354:	02078793          	addi	a5,a5,32
    80002358:	02060613          	addi	a2,a2,32
    8000235c:	ff1792e3          	bne	a5,a7,80002340 <uvmcopy+0x9c>
    80002360:	876a                	mv	a4,s10
    80002362:	6605                	lui	a2,0x1
    80002364:	85e6                	mv	a1,s9
    80002366:	8552                	mv	a0,s4
    80002368:	dd3ff0ef          	jal	ra,8000213a <mappages>
    8000236c:	e105                	bnez	a0,8000238c <uvmcopy+0xe8>
    8000236e:	0489b783          	ld	a5,72(s3)
    80002372:	9ca6                	add	s9,s9,s1
    80002374:	f8fce0e3          	bltu	s9,a5,800022f4 <uvmcopy+0x50>
    80002378:	4501                	li	a0,0
    8000237a:	a811                	j	8000238e <uvmcopy+0xea>
    8000237c:	4605                	li	a2,1
    8000237e:	85e6                	mv	a1,s9
    80002380:	8552                	mv	a0,s4
    80002382:	bd6ff0ef          	jal	ra,80001758 <__walk_internal_user>
    80002386:	601c                	ld	a5,0(s0)
    80002388:	e11c                	sd	a5,0(a0)
    8000238a:	b7d5                	j	8000236e <uvmcopy+0xca>
    8000238c:	557d                	li	a0,-1
    8000238e:	60e6                	ld	ra,88(sp)
    80002390:	6446                	ld	s0,80(sp)
    80002392:	64a6                	ld	s1,72(sp)
    80002394:	6906                	ld	s2,64(sp)
    80002396:	79e2                	ld	s3,56(sp)
    80002398:	7a42                	ld	s4,48(sp)
    8000239a:	7aa2                	ld	s5,40(sp)
    8000239c:	7b02                	ld	s6,32(sp)
    8000239e:	6be2                	ld	s7,24(sp)
    800023a0:	6c42                	ld	s8,16(sp)
    800023a2:	6ca2                	ld	s9,8(sp)
    800023a4:	6d02                	ld	s10,0(sp)
    800023a6:	6125                	addi	sp,sp,96
    800023a8:	8082                	ret

00000000800023aa <vmprint_help>:
    800023aa:	7159                	addi	sp,sp,-112
    800023ac:	f45e                	sd	s7,40(sp)
    800023ae:	00359b93          	slli	s7,a1,0x3
    800023b2:	f0a2                	sd	s0,96(sp)
    800023b4:	eca6                	sd	s1,88(sp)
    800023b6:	e8ca                	sd	s2,80(sp)
    800023b8:	e0d2                	sd	s4,64(sp)
    800023ba:	f85a                	sd	s6,48(sp)
    800023bc:	f062                	sd	s8,32(sp)
    800023be:	e46e                	sd	s11,8(sp)
    800023c0:	f486                	sd	ra,104(sp)
    800023c2:	e4ce                	sd	s3,72(sp)
    800023c4:	fc56                	sd	s5,56(sp)
    800023c6:	ec66                	sd	s9,24(sp)
    800023c8:	e86a                	sd	s10,16(sp)
    800023ca:	842e                	mv	s0,a1
    800023cc:	8c32                	mv	s8,a2
    800023ce:	9bb2                	add	s7,s7,a2
    800023d0:	892a                	mv	s2,a0
    800023d2:	4481                	li	s1,0
    800023d4:	00158a1b          	addiw	s4,a1,1
    800023d8:	00006d97          	auipc	s11,0x6
    800023dc:	028d8d93          	addi	s11,s11,40 # 80008400 <illegal_insn_trap_table+0x4c4>
    800023e0:	00006b17          	auipc	s6,0x6
    800023e4:	018b0b13          	addi	s6,s6,24 # 800083f8 <illegal_insn_trap_table+0x4bc>
    800023e8:	00048a9b          	sext.w	s5,s1
    800023ec:	e00d                	bnez	s0,8000240e <vmprint_help+0x64>
    800023ee:	cc9d                	beqz	s1,8000242c <vmprint_help+0x82>
    800023f0:	70a6                	ld	ra,104(sp)
    800023f2:	7406                	ld	s0,96(sp)
    800023f4:	64e6                	ld	s1,88(sp)
    800023f6:	6946                	ld	s2,80(sp)
    800023f8:	69a6                	ld	s3,72(sp)
    800023fa:	6a06                	ld	s4,64(sp)
    800023fc:	7ae2                	ld	s5,56(sp)
    800023fe:	7b42                	ld	s6,48(sp)
    80002400:	7ba2                	ld	s7,40(sp)
    80002402:	7c02                	ld	s8,32(sp)
    80002404:	6ce2                	ld	s9,24(sp)
    80002406:	6d42                	ld	s10,16(sp)
    80002408:	6da2                	ld	s11,8(sp)
    8000240a:	6165                	addi	sp,sp,112
    8000240c:	8082                	ret
    8000240e:	009bb023          	sd	s1,0(s7)
    80002412:	00093983          	ld	s3,0(s2)
    80002416:	001a8c9b          	addiw	s9,s5,1
    8000241a:	08099c63          	bnez	s3,800024b2 <vmprint_help+0x108>
    8000241e:	20000793          	li	a5,512
    80002422:	fcfc87e3          	beq	s9,a5,800023f0 <vmprint_help+0x46>
    80002426:	0485                	addi	s1,s1,1
    80002428:	0921                	addi	s2,s2,8
    8000242a:	bf7d                	j	800023e8 <vmprint_help+0x3e>
    8000242c:	000bb023          	sd	zero,0(s7)
    80002430:	00093983          	ld	s3,0(s2)
    80002434:	001a8c9b          	addiw	s9,s5,1
    80002438:	fe0987e3          	beqz	s3,80002426 <vmprint_help+0x7c>
    8000243c:	00006517          	auipc	a0,0x6
    80002440:	fb450513          	addi	a0,a0,-76 # 800083f0 <illegal_insn_trap_table+0x4b4>
    80002444:	c67fe0ef          	jal	ra,800010aa <printk>
    80002448:	4d01                	li	s10,0
    8000244a:	a031                	j	80002456 <vmprint_help+0xac>
    8000244c:	2d05                	addiw	s10,s10,1
    8000244e:	c5dfe0ef          	jal	ra,800010aa <printk>
    80002452:	014d0b63          	beq	s10,s4,80002468 <vmprint_help+0xbe>
    80002456:	855a                	mv	a0,s6
    80002458:	ffa41ae3          	bne	s0,s10,8000244c <vmprint_help+0xa2>
    8000245c:	856e                	mv	a0,s11
    8000245e:	2d05                	addiw	s10,s10,1
    80002460:	c4bfe0ef          	jal	ra,800010aa <printk>
    80002464:	ff4d19e3          	bne	s10,s4,80002456 <vmprint_help+0xac>
    80002468:	00a9d693          	srli	a3,s3,0xa
    8000246c:	0079f793          	andi	a5,s3,7
    80002470:	4705                	li	a4,1
    80002472:	00c69993          	slli	s3,a3,0xc
    80002476:	04e78763          	beq	a5,a4,800024c4 <vmprint_help+0x11a>
    8000247a:	000c3583          	ld	a1,0(s8)
    8000247e:	008c3783          	ld	a5,8(s8)
    80002482:	010c3703          	ld	a4,16(s8)
    80002486:	05ca                	slli	a1,a1,0x12
    80002488:	07a6                	slli	a5,a5,0x9
    8000248a:	8ddd                	or	a1,a1,a5
    8000248c:	8dd9                	or	a1,a1,a4
    8000248e:	05b2                	slli	a1,a1,0xc
    80002490:	00006517          	auipc	a0,0x6
    80002494:	f9050513          	addi	a0,a0,-112 # 80008420 <illegal_insn_trap_table+0x4e4>
    80002498:	c13fe0ef          	jal	ra,800010aa <printk>
    8000249c:	00093603          	ld	a2,0(s2)
    800024a0:	86ce                	mv	a3,s3
    800024a2:	85d6                	mv	a1,s5
    800024a4:	00006517          	auipc	a0,0x6
    800024a8:	f8450513          	addi	a0,a0,-124 # 80008428 <illegal_insn_trap_table+0x4ec>
    800024ac:	bfffe0ef          	jal	ra,800010aa <printk>
    800024b0:	b7bd                	j	8000241e <vmprint_help+0x74>
    800024b2:	00006517          	auipc	a0,0x6
    800024b6:	f3e50513          	addi	a0,a0,-194 # 800083f0 <illegal_insn_trap_table+0x4b4>
    800024ba:	bf1fe0ef          	jal	ra,800010aa <printk>
    800024be:	f80455e3          	bgez	s0,80002448 <vmprint_help+0x9e>
    800024c2:	b75d                	j	80002468 <vmprint_help+0xbe>
    800024c4:	00093603          	ld	a2,0(s2)
    800024c8:	85d6                	mv	a1,s5
    800024ca:	86ce                	mv	a3,s3
    800024cc:	00006517          	auipc	a0,0x6
    800024d0:	f3c50513          	addi	a0,a0,-196 # 80008408 <illegal_insn_trap_table+0x4cc>
    800024d4:	bd7fe0ef          	jal	ra,800010aa <printk>
    800024d8:	8662                	mv	a2,s8
    800024da:	85d2                	mv	a1,s4
    800024dc:	854e                	mv	a0,s3
    800024de:	ecdff0ef          	jal	ra,800023aa <vmprint_help>
    800024e2:	bf35                	j	8000241e <vmprint_help+0x74>

00000000800024e4 <uvmprint_help>:
    800024e4:	7159                	addi	sp,sp,-112
    800024e6:	f45e                	sd	s7,40(sp)
    800024e8:	00359b93          	slli	s7,a1,0x3
    800024ec:	f0a2                	sd	s0,96(sp)
    800024ee:	eca6                	sd	s1,88(sp)
    800024f0:	e4ce                	sd	s3,72(sp)
    800024f2:	e0d2                	sd	s4,64(sp)
    800024f4:	fc56                	sd	s5,56(sp)
    800024f6:	f062                	sd	s8,32(sp)
    800024f8:	ec66                	sd	s9,24(sp)
    800024fa:	e86a                	sd	s10,16(sp)
    800024fc:	f486                	sd	ra,104(sp)
    800024fe:	e8ca                	sd	s2,80(sp)
    80002500:	f85a                	sd	s6,48(sp)
    80002502:	e46e                	sd	s11,8(sp)
    80002504:	89ae                	mv	s3,a1
    80002506:	8c32                	mv	s8,a2
    80002508:	9bb2                	add	s7,s7,a2
    8000250a:	84aa                	mv	s1,a0
    8000250c:	4401                	li	s0,0
    8000250e:	00006d17          	auipc	s10,0x6
    80002512:	ee2d0d13          	addi	s10,s10,-286 # 800083f0 <illegal_insn_trap_table+0x4b4>
    80002516:	00158a1b          	addiw	s4,a1,1
    8000251a:	00006c97          	auipc	s9,0x6
    8000251e:	ee6c8c93          	addi	s9,s9,-282 # 80008400 <illegal_insn_trap_table+0x4c4>
    80002522:	00006a97          	auipc	s5,0x6
    80002526:	ed6a8a93          	addi	s5,s5,-298 # 800083f8 <illegal_insn_trap_table+0x4bc>
    8000252a:	a039                	j	80002538 <uvmprint_help+0x54>
    8000252c:	0405                	addi	s0,s0,1
    8000252e:	20000793          	li	a5,512
    80002532:	04a1                	addi	s1,s1,8
    80002534:	08f40863          	beq	s0,a5,800025c4 <uvmprint_help+0xe0>
    80002538:	008bb023          	sd	s0,0(s7)
    8000253c:	0004b903          	ld	s2,0(s1) # 1000 <_ftext-0x7ffff000>
    80002540:	00040b1b          	sext.w	s6,s0
    80002544:	fe0904e3          	beqz	s2,8000252c <uvmprint_help+0x48>
    80002548:	856a                	mv	a0,s10
    8000254a:	b61fe0ef          	jal	ra,800010aa <printk>
    8000254e:	4d81                	li	s11,0
    80002550:	0009d863          	bgez	s3,80002560 <uvmprint_help+0x7c>
    80002554:	a839                	j	80002572 <uvmprint_help+0x8e>
    80002556:	2d85                	addiw	s11,s11,1
    80002558:	b53fe0ef          	jal	ra,800010aa <printk>
    8000255c:	01ba0b63          	beq	s4,s11,80002572 <uvmprint_help+0x8e>
    80002560:	8556                	mv	a0,s5
    80002562:	ffb99ae3          	bne	s3,s11,80002556 <uvmprint_help+0x72>
    80002566:	8566                	mv	a0,s9
    80002568:	2d85                	addiw	s11,s11,1
    8000256a:	b41fe0ef          	jal	ra,800010aa <printk>
    8000256e:	ffba19e3          	bne	s4,s11,80002560 <uvmprint_help+0x7c>
    80002572:	00a95693          	srli	a3,s2,0xa
    80002576:	00797793          	andi	a5,s2,7
    8000257a:	4705                	li	a4,1
    8000257c:	00c69913          	slli	s2,a3,0xc
    80002580:	06e78163          	beq	a5,a4,800025e2 <uvmprint_help+0xfe>
    80002584:	000c3583          	ld	a1,0(s8)
    80002588:	008c3783          	ld	a5,8(s8)
    8000258c:	010c3703          	ld	a4,16(s8)
    80002590:	05ca                	slli	a1,a1,0x12
    80002592:	07a6                	slli	a5,a5,0x9
    80002594:	8ddd                	or	a1,a1,a5
    80002596:	8dd9                	or	a1,a1,a4
    80002598:	05b2                	slli	a1,a1,0xc
    8000259a:	00006517          	auipc	a0,0x6
    8000259e:	e8650513          	addi	a0,a0,-378 # 80008420 <illegal_insn_trap_table+0x4e4>
    800025a2:	b09fe0ef          	jal	ra,800010aa <printk>
    800025a6:	6090                	ld	a2,0(s1)
    800025a8:	86ca                	mv	a3,s2
    800025aa:	85da                	mv	a1,s6
    800025ac:	00006517          	auipc	a0,0x6
    800025b0:	e7c50513          	addi	a0,a0,-388 # 80008428 <illegal_insn_trap_table+0x4ec>
    800025b4:	af7fe0ef          	jal	ra,800010aa <printk>
    800025b8:	0405                	addi	s0,s0,1
    800025ba:	20000793          	li	a5,512
    800025be:	04a1                	addi	s1,s1,8
    800025c0:	f6f41ce3          	bne	s0,a5,80002538 <uvmprint_help+0x54>
    800025c4:	70a6                	ld	ra,104(sp)
    800025c6:	7406                	ld	s0,96(sp)
    800025c8:	64e6                	ld	s1,88(sp)
    800025ca:	6946                	ld	s2,80(sp)
    800025cc:	69a6                	ld	s3,72(sp)
    800025ce:	6a06                	ld	s4,64(sp)
    800025d0:	7ae2                	ld	s5,56(sp)
    800025d2:	7b42                	ld	s6,48(sp)
    800025d4:	7ba2                	ld	s7,40(sp)
    800025d6:	7c02                	ld	s8,32(sp)
    800025d8:	6ce2                	ld	s9,24(sp)
    800025da:	6d42                	ld	s10,16(sp)
    800025dc:	6da2                	ld	s11,8(sp)
    800025de:	6165                	addi	sp,sp,112
    800025e0:	8082                	ret
    800025e2:	6090                	ld	a2,0(s1)
    800025e4:	85da                	mv	a1,s6
    800025e6:	86ca                	mv	a3,s2
    800025e8:	00006517          	auipc	a0,0x6
    800025ec:	e2050513          	addi	a0,a0,-480 # 80008408 <illegal_insn_trap_table+0x4cc>
    800025f0:	abbfe0ef          	jal	ra,800010aa <printk>
    800025f4:	8662                	mv	a2,s8
    800025f6:	85d2                	mv	a1,s4
    800025f8:	854a                	mv	a0,s2
    800025fa:	db1ff0ef          	jal	ra,800023aa <vmprint_help>
    800025fe:	b73d                	j	8000252c <uvmprint_help+0x48>

0000000080002600 <vmprint>:
    80002600:	7179                	addi	sp,sp,-48
    80002602:	f022                	sd	s0,32(sp)
    80002604:	85aa                	mv	a1,a0
    80002606:	842a                	mv	s0,a0
    80002608:	00006517          	auipc	a0,0x6
    8000260c:	e3850513          	addi	a0,a0,-456 # 80008440 <illegal_insn_trap_table+0x504>
    80002610:	f406                	sd	ra,40(sp)
    80002612:	a99fe0ef          	jal	ra,800010aa <printk>
    80002616:	0030                	addi	a2,sp,8
    80002618:	8522                	mv	a0,s0
    8000261a:	4581                	li	a1,0
    8000261c:	d8fff0ef          	jal	ra,800023aa <vmprint_help>
    80002620:	70a2                	ld	ra,40(sp)
    80002622:	7402                	ld	s0,32(sp)
    80002624:	6145                	addi	sp,sp,48
    80002626:	8082                	ret

0000000080002628 <uvmprint>:
    80002628:	7179                	addi	sp,sp,-48
    8000262a:	f022                	sd	s0,32(sp)
    8000262c:	85aa                	mv	a1,a0
    8000262e:	842a                	mv	s0,a0
    80002630:	00006517          	auipc	a0,0x6
    80002634:	e1050513          	addi	a0,a0,-496 # 80008440 <illegal_insn_trap_table+0x504>
    80002638:	f406                	sd	ra,40(sp)
    8000263a:	a71fe0ef          	jal	ra,800010aa <printk>
    8000263e:	0030                	addi	a2,sp,8
    80002640:	8522                	mv	a0,s0
    80002642:	4581                	li	a1,0
    80002644:	ea1ff0ef          	jal	ra,800024e4 <uvmprint_help>
    80002648:	70a2                	ld	ra,40(sp)
    8000264a:	7402                	ld	s0,32(sp)
    8000264c:	6145                	addi	sp,sp,48
    8000264e:	8082                	ret

0000000080002650 <printPage>:
    80002650:	7179                	addi	sp,sp,-48
    80002652:	f022                	sd	s0,32(sp)
    80002654:	ec26                	sd	s1,24(sp)
    80002656:	e84a                	sd	s2,16(sp)
    80002658:	e44e                	sd	s3,8(sp)
    8000265a:	f406                	sd	ra,40(sp)
    8000265c:	84aa                	mv	s1,a0
    8000265e:	00006997          	auipc	s3,0x6
    80002662:	dfa98993          	addi	s3,s3,-518 # 80008458 <illegal_insn_trap_table+0x51c>
    80002666:	4401                	li	s0,0
    80002668:	0f000913          	li	s2,240
    8000266c:	e19d                	bnez	a1,80002692 <printPage+0x42>
    8000266e:	009467b3          	or	a5,s0,s1
    80002672:	6394                	ld	a3,0(a5)
    80002674:	8622                	mv	a2,s0
    80002676:	85a6                	mv	a1,s1
    80002678:	0421                	addi	s0,s0,8
    8000267a:	854e                	mv	a0,s3
    8000267c:	a2ffe0ef          	jal	ra,800010aa <printk>
    80002680:	ff2417e3          	bne	s0,s2,8000266e <printPage+0x1e>
    80002684:	70a2                	ld	ra,40(sp)
    80002686:	7402                	ld	s0,32(sp)
    80002688:	64e2                	ld	s1,24(sp)
    8000268a:	6942                	ld	s2,16(sp)
    8000268c:	69a2                	ld	s3,8(sp)
    8000268e:	6145                	addi	sp,sp,48
    80002690:	8082                	ret
    80002692:	1115e613          	ori	a2,a1,273
    80002696:	7402                	ld	s0,32(sp)
    80002698:	00c567b3          	or	a5,a0,a2
    8000269c:	70a2                	ld	ra,40(sp)
    8000269e:	64e2                	ld	s1,24(sp)
    800026a0:	6942                	ld	s2,16(sp)
    800026a2:	6394                	ld	a3,0(a5)
    800026a4:	85aa                	mv	a1,a0
    800026a6:	854e                	mv	a0,s3
    800026a8:	69a2                	ld	s3,8(sp)
    800026aa:	6145                	addi	sp,sp,48
    800026ac:	9fffe06f          	j	800010aa <printk>

00000000800026b0 <printPlot>:
    800026b0:	1141                	addi	sp,sp,-16
    800026b2:	e022                	sd	s0,0(sp)
    800026b4:	e406                	sd	ra,8(sp)
    800026b6:	00157793          	andi	a5,a0,1
    800026ba:	842a                	mv	s0,a0
    800026bc:	ef99                	bnez	a5,800026da <printPlot+0x2a>
    800026be:	00247793          	andi	a5,s0,2
    800026c2:	e78d                	bnez	a5,800026ec <printPlot+0x3c>
    800026c4:	8811                	andi	s0,s0,4
    800026c6:	e81d                	bnez	s0,800026fc <printPlot+0x4c>
    800026c8:	6402                	ld	s0,0(sp)
    800026ca:	60a2                	ld	ra,8(sp)
    800026cc:	00006517          	auipc	a0,0x6
    800026d0:	2f450513          	addi	a0,a0,756 # 800089c0 <illegal_insn_trap_table+0xa84>
    800026d4:	0141                	addi	sp,sp,16
    800026d6:	9d5fe06f          	j	800010aa <printk>
    800026da:	00006517          	auipc	a0,0x6
    800026de:	d9e50513          	addi	a0,a0,-610 # 80008478 <illegal_insn_trap_table+0x53c>
    800026e2:	9c9fe0ef          	jal	ra,800010aa <printk>
    800026e6:	00247793          	andi	a5,s0,2
    800026ea:	dfe9                	beqz	a5,800026c4 <printPlot+0x14>
    800026ec:	00006517          	auipc	a0,0x6
    800026f0:	d9c50513          	addi	a0,a0,-612 # 80008488 <illegal_insn_trap_table+0x54c>
    800026f4:	8811                	andi	s0,s0,4
    800026f6:	9b5fe0ef          	jal	ra,800010aa <printk>
    800026fa:	d479                	beqz	s0,800026c8 <printPlot+0x18>
    800026fc:	00006517          	auipc	a0,0x6
    80002700:	d9c50513          	addi	a0,a0,-612 # 80008498 <illegal_insn_trap_table+0x55c>
    80002704:	9a7fe0ef          	jal	ra,800010aa <printk>
    80002708:	6402                	ld	s0,0(sp)
    8000270a:	60a2                	ld	ra,8(sp)
    8000270c:	00006517          	auipc	a0,0x6
    80002710:	2b450513          	addi	a0,a0,692 # 800089c0 <illegal_insn_trap_table+0xa84>
    80002714:	0141                	addi	sp,sp,16
    80002716:	995fe06f          	j	800010aa <printk>

000000008000271a <walkaddr>:
    8000271a:	00017797          	auipc	a5,0x17
    8000271e:	afe7b783          	ld	a5,-1282(a5) # 80019218 <current+0x48>
    80002722:	00f5e463          	bltu	a1,a5,8000272a <walkaddr+0x10>
    80002726:	4501                	li	a0,0
    80002728:	8082                	ret
    8000272a:	baf1                	j	80002106 <walkaddr.part.0>

000000008000272c <copyin>:
    8000272c:	ced1                	beqz	a3,800027c8 <copyin+0x9c>
    8000272e:	715d                	addi	sp,sp,-80
    80002730:	e0a2                	sd	s0,64(sp)
    80002732:	f84a                	sd	s2,48(sp)
    80002734:	f44e                	sd	s3,40(sp)
    80002736:	f052                	sd	s4,32(sp)
    80002738:	ec56                	sd	s5,24(sp)
    8000273a:	e85a                	sd	s6,16(sp)
    8000273c:	e45e                	sd	s7,8(sp)
    8000273e:	e486                	sd	ra,72(sp)
    80002740:	fc26                	sd	s1,56(sp)
    80002742:	8936                	mv	s2,a3
    80002744:	8a2a                	mv	s4,a0
    80002746:	89ae                	mv	s3,a1
    80002748:	8432                	mv	s0,a2
    8000274a:	00017b97          	auipc	s7,0x17
    8000274e:	a86b8b93          	addi	s7,s7,-1402 # 800191d0 <current>
    80002752:	7afd                	lui	s5,0xfffff
    80002754:	6b05                	lui	s6,0x1
    80002756:	048bb783          	ld	a5,72(s7)
    8000275a:	015474b3          	and	s1,s0,s5
    8000275e:	8552                	mv	a0,s4
    80002760:	85a6                	mv	a1,s1
    80002762:	00f4ee63          	bltu	s1,a5,8000277e <copyin+0x52>
    80002766:	557d                	li	a0,-1
    80002768:	60a6                	ld	ra,72(sp)
    8000276a:	6406                	ld	s0,64(sp)
    8000276c:	74e2                	ld	s1,56(sp)
    8000276e:	7942                	ld	s2,48(sp)
    80002770:	79a2                	ld	s3,40(sp)
    80002772:	7a02                	ld	s4,32(sp)
    80002774:	6ae2                	ld	s5,24(sp)
    80002776:	6b42                	ld	s6,16(sp)
    80002778:	6ba2                	ld	s7,8(sp)
    8000277a:	6161                	addi	sp,sp,80
    8000277c:	8082                	ret
    8000277e:	989ff0ef          	jal	ra,80002106 <walkaddr.part.0>
    80002782:	409405b3          	sub	a1,s0,s1
    80002786:	87aa                	mv	a5,a0
    80002788:	40848433          	sub	s0,s1,s0
    8000278c:	854e                	mv	a0,s3
    8000278e:	95be                	add	a1,a1,a5
    80002790:	945a                	add	s0,s0,s6
    80002792:	dbf1                	beqz	a5,80002766 <copyin+0x3a>
    80002794:	00896e63          	bltu	s2,s0,800027b0 <copyin+0x84>
    80002798:	8622                	mv	a2,s0
    8000279a:	40890933          	sub	s2,s2,s0
    8000279e:	99a2                	add	s3,s3,s0
    800027a0:	3ff040ef          	jal	ra,8000739e <memcpy>
    800027a4:	01648433          	add	s0,s1,s6
    800027a8:	fa0917e3          	bnez	s2,80002756 <copyin+0x2a>
    800027ac:	4501                	li	a0,0
    800027ae:	bf6d                	j	80002768 <copyin+0x3c>
    800027b0:	844a                	mv	s0,s2
    800027b2:	8622                	mv	a2,s0
    800027b4:	40890933          	sub	s2,s2,s0
    800027b8:	99a2                	add	s3,s3,s0
    800027ba:	3e5040ef          	jal	ra,8000739e <memcpy>
    800027be:	01648433          	add	s0,s1,s6
    800027c2:	f8091ae3          	bnez	s2,80002756 <copyin+0x2a>
    800027c6:	b7dd                	j	800027ac <copyin+0x80>
    800027c8:	4501                	li	a0,0
    800027ca:	8082                	ret

00000000800027cc <trap_entry>:
    800027cc:	14011173          	csrrw	sp,sscratch,sp
    800027d0:	06011663          	bnez	sp,8000283c <write_stap>
    800027d4:	14002173          	csrr	sp,sscratch
    800027d8:	7129                	addi	sp,sp,-320
    800027da:	e406                	sd	ra,8(sp)
    800027dc:	ec0e                	sd	gp,24(sp)
    800027de:	f012                	sd	tp,32(sp)
    800027e0:	f416                	sd	t0,40(sp)
    800027e2:	f81a                	sd	t1,48(sp)
    800027e4:	fc1e                	sd	t2,56(sp)
    800027e6:	e0a2                	sd	s0,64(sp)
    800027e8:	e4a6                	sd	s1,72(sp)
    800027ea:	e8aa                	sd	a0,80(sp)
    800027ec:	ecae                	sd	a1,88(sp)
    800027ee:	f0b2                	sd	a2,96(sp)
    800027f0:	f4b6                	sd	a3,104(sp)
    800027f2:	f8ba                	sd	a4,112(sp)
    800027f4:	fcbe                	sd	a5,120(sp)
    800027f6:	e142                	sd	a6,128(sp)
    800027f8:	e546                	sd	a7,136(sp)
    800027fa:	e94a                	sd	s2,144(sp)
    800027fc:	ed4e                	sd	s3,152(sp)
    800027fe:	f152                	sd	s4,160(sp)
    80002800:	f556                	sd	s5,168(sp)
    80002802:	f95a                	sd	s6,176(sp)
    80002804:	fd5e                	sd	s7,184(sp)
    80002806:	e1e2                	sd	s8,192(sp)
    80002808:	e5e6                	sd	s9,200(sp)
    8000280a:	e9ea                	sd	s10,208(sp)
    8000280c:	edee                	sd	s11,216(sp)
    8000280e:	f1f2                	sd	t3,224(sp)
    80002810:	f5f6                	sd	t4,232(sp)
    80002812:	f9fa                	sd	t5,240(sp)
    80002814:	fdfe                	sd	t6,248(sp)
    80002816:	140012f3          	csrrw	t0,sscratch,zero
    8000281a:	10002473          	csrr	s0,sstatus
    8000281e:	14102373          	csrr	t1,sepc
    80002822:	143023f3          	csrr	t2,stval
    80002826:	14202e73          	csrr	t3,scause
    8000282a:	e816                	sd	t0,16(sp)
    8000282c:	e222                	sd	s0,256(sp)
    8000282e:	e61a                	sd	t1,264(sp)
    80002830:	ea1e                	sd	t2,272(sp)
    80002832:	ee72                	sd	t3,280(sp)
    80002834:	52fd                	li	t0,-1
    80002836:	f216                	sd	t0,288(sp)
    80002838:	064000ef          	jal	ra,8000289c <write_stap+0x60>

000000008000283c <write_stap>:
    8000283c:	7129                	addi	sp,sp,-320
    8000283e:	e406                	sd	ra,8(sp)
    80002840:	ec0e                	sd	gp,24(sp)
    80002842:	f012                	sd	tp,32(sp)
    80002844:	f416                	sd	t0,40(sp)
    80002846:	f81a                	sd	t1,48(sp)
    80002848:	fc1e                	sd	t2,56(sp)
    8000284a:	e0a2                	sd	s0,64(sp)
    8000284c:	e4a6                	sd	s1,72(sp)
    8000284e:	e8aa                	sd	a0,80(sp)
    80002850:	ecae                	sd	a1,88(sp)
    80002852:	f0b2                	sd	a2,96(sp)
    80002854:	f4b6                	sd	a3,104(sp)
    80002856:	f8ba                	sd	a4,112(sp)
    80002858:	fcbe                	sd	a5,120(sp)
    8000285a:	e142                	sd	a6,128(sp)
    8000285c:	e546                	sd	a7,136(sp)
    8000285e:	e94a                	sd	s2,144(sp)
    80002860:	ed4e                	sd	s3,152(sp)
    80002862:	f152                	sd	s4,160(sp)
    80002864:	f556                	sd	s5,168(sp)
    80002866:	f95a                	sd	s6,176(sp)
    80002868:	fd5e                	sd	s7,184(sp)
    8000286a:	e1e2                	sd	s8,192(sp)
    8000286c:	e5e6                	sd	s9,200(sp)
    8000286e:	e9ea                	sd	s10,208(sp)
    80002870:	edee                	sd	s11,216(sp)
    80002872:	f1f2                	sd	t3,224(sp)
    80002874:	f5f6                	sd	t4,232(sp)
    80002876:	f9fa                	sd	t5,240(sp)
    80002878:	fdfe                	sd	t6,248(sp)
    8000287a:	140012f3          	csrrw	t0,sscratch,zero
    8000287e:	10002473          	csrr	s0,sstatus
    80002882:	14102373          	csrr	t1,sepc
    80002886:	143023f3          	csrr	t2,stval
    8000288a:	14202e73          	csrr	t3,scause
    8000288e:	e816                	sd	t0,16(sp)
    80002890:	e222                	sd	s0,256(sp)
    80002892:	e61a                	sd	t1,264(sp)
    80002894:	ea1e                	sd	t2,272(sp)
    80002896:	ee72                	sd	t3,280(sp)
    80002898:	52fd                	li	t0,-1
    8000289a:	f216                	sd	t0,288(sp)
    8000289c:	850a                	mv	a0,sp
    8000289e:	12853303          	ld	t1,296(a0)
    800028a2:	18031073          	csrw	satp,t1
    800028a6:	12000073          	sfence.vma
    800028aa:	850a                	mv	a0,sp
    800028ac:	0c5010ef          	jal	ra,80004170 <handle_trap>
    800028b0:	850a                	mv	a0,sp
    800028b2:	10047413          	andi	s0,s0,256
    800028b6:	e401                	bnez	s0,800028be <start_user>
    800028b8:	6131                	addi	sp,sp,320
    800028ba:	14011073          	csrw	sscratch,sp

00000000800028be <start_user>:
    800028be:	10053283          	ld	t0,256(a0)
    800028c2:	10853303          	ld	t1,264(a0)
    800028c6:	10029073          	csrw	sstatus,t0
    800028ca:	14131073          	csrw	sepc,t1
    800028ce:	00853083          	ld	ra,8(a0)
    800028d2:	01053103          	ld	sp,16(a0)
    800028d6:	01853183          	ld	gp,24(a0)
    800028da:	02053203          	ld	tp,32(a0)
    800028de:	02853283          	ld	t0,40(a0)
    800028e2:	03053303          	ld	t1,48(a0)
    800028e6:	03853383          	ld	t2,56(a0)
    800028ea:	6120                	ld	s0,64(a0)
    800028ec:	6524                	ld	s1,72(a0)
    800028ee:	6d2c                	ld	a1,88(a0)
    800028f0:	7130                	ld	a2,96(a0)
    800028f2:	7534                	ld	a3,104(a0)
    800028f4:	7938                	ld	a4,112(a0)
    800028f6:	7d3c                	ld	a5,120(a0)
    800028f8:	08053803          	ld	a6,128(a0)
    800028fc:	08853883          	ld	a7,136(a0)
    80002900:	09053903          	ld	s2,144(a0)
    80002904:	09853983          	ld	s3,152(a0)
    80002908:	0a053a03          	ld	s4,160(a0)
    8000290c:	0a853a83          	ld	s5,168(a0)
    80002910:	0b053b03          	ld	s6,176(a0)
    80002914:	0b853b83          	ld	s7,184(a0)
    80002918:	0c053c03          	ld	s8,192(a0)
    8000291c:	0c853c83          	ld	s9,200(a0)
    80002920:	0d053d03          	ld	s10,208(a0)
    80002924:	0d853d83          	ld	s11,216(a0)
    80002928:	0e053e03          	ld	t3,224(a0)
    8000292c:	0e853e83          	ld	t4,232(a0)
    80002930:	0f053f03          	ld	t5,240(a0)
    80002934:	0f853f83          	ld	t6,248(a0)
    80002938:	6928                	ld	a0,80(a0)
    8000293a:	10200073          	sret

000000008000293e <forkrets>:
    8000293e:	10047413          	andi	s0,s0,256
    80002942:	fc35                	bnez	s0,800028be <start_user>
    80002944:	812a                	mv	sp,a0
    80002946:	18059073          	csrw	satp,a1
    8000294a:	12000073          	sfence.vma
    8000294e:	6131                	addi	sp,sp,320
    80002950:	14011073          	csrw	sscratch,sp
    80002954:	b7ad                	j	800028be <start_user>

0000000080002956 <default_init>:
    80002956:	00017797          	auipc	a5,0x17
    8000295a:	94278793          	addi	a5,a5,-1726 # 80019298 <free_area>
    8000295e:	e79c                	sd	a5,8(a5)
    80002960:	e39c                	sd	a5,0(a5)
    80002962:	0007a823          	sw	zero,16(a5)
    80002966:	8082                	ret

0000000080002968 <default_alloc_pages>:
    80002968:	00017617          	auipc	a2,0x17
    8000296c:	93060613          	addi	a2,a2,-1744 # 80019298 <free_area>
    80002970:	4a0c                	lw	a1,16(a2)
    80002972:	86aa                	mv	a3,a0
    80002974:	02059793          	slli	a5,a1,0x20
    80002978:	9381                	srli	a5,a5,0x20
    8000297a:	00a7eb63          	bltu	a5,a0,80002990 <default_alloc_pages+0x28>
    8000297e:	87b2                	mv	a5,a2
    80002980:	a029                	j	8000298a <default_alloc_pages+0x22>
    80002982:	ff87b703          	ld	a4,-8(a5)
    80002986:	00d77763          	bgeu	a4,a3,80002994 <default_alloc_pages+0x2c>
    8000298a:	679c                	ld	a5,8(a5)
    8000298c:	fec79be3          	bne	a5,a2,80002982 <default_alloc_pages+0x1a>
    80002990:	4501                	li	a0,0
    80002992:	8082                	ret
    80002994:	fe878513          	addi	a0,a5,-24
    80002998:	dd6d                	beqz	a0,80002992 <default_alloc_pages+0x2a>
    8000299a:	0007b803          	ld	a6,0(a5)
    8000299e:	0087b883          	ld	a7,8(a5)
    800029a2:	01183423          	sd	a7,8(a6)
    800029a6:	0108b023          	sd	a6,0(a7)
    800029aa:	02e6f363          	bgeu	a3,a4,800029d0 <default_alloc_pages+0x68>
    800029ae:	00269793          	slli	a5,a3,0x2
    800029b2:	97b6                	add	a5,a5,a3
    800029b4:	078e                	slli	a5,a5,0x3
    800029b6:	97aa                	add	a5,a5,a0
    800029b8:	8f15                	sub	a4,a4,a3
    800029ba:	eb98                	sd	a4,16(a5)
    800029bc:	01878713          	addi	a4,a5,24
    800029c0:	00e8b023          	sd	a4,0(a7)
    800029c4:	00e83423          	sd	a4,8(a6)
    800029c8:	0317b023          	sd	a7,32(a5)
    800029cc:	0107bc23          	sd	a6,24(a5)
    800029d0:	40d586bb          	subw	a3,a1,a3
    800029d4:	ca14                	sw	a3,16(a2)
    800029d6:	8082                	ret

00000000800029d8 <default_free_pages>:
    800029d8:	00259713          	slli	a4,a1,0x2
    800029dc:	972e                	add	a4,a4,a1
    800029de:	070e                	slli	a4,a4,0x3
    800029e0:	972a                	add	a4,a4,a0
    800029e2:	87aa                	mv	a5,a0
    800029e4:	00e50a63          	beq	a0,a4,800029f8 <default_free_pages+0x20>
    800029e8:	0007b423          	sd	zero,8(a5)
    800029ec:	0007b023          	sd	zero,0(a5)
    800029f0:	02878793          	addi	a5,a5,40
    800029f4:	fee79ae3          	bne	a5,a4,800029e8 <default_free_pages+0x10>
    800029f8:	00017697          	auipc	a3,0x17
    800029fc:	8a068693          	addi	a3,a3,-1888 # 80019298 <free_area>
    80002a00:	4a98                	lw	a4,16(a3)
    80002a02:	669c                	ld	a5,8(a3)
    80002a04:	e90c                	sd	a1,16(a0)
    80002a06:	9f2d                	addw	a4,a4,a1
    80002a08:	ca98                	sw	a4,16(a3)
    80002a0a:	01850613          	addi	a2,a0,24
    80002a0e:	0ad78763          	beq	a5,a3,80002abc <default_free_pages+0xe4>
    80002a12:	fe878713          	addi	a4,a5,-24
    80002a16:	0006b803          	ld	a6,0(a3)
    80002a1a:	4881                	li	a7,0
    80002a1c:	00e56a63          	bltu	a0,a4,80002a30 <default_free_pages+0x58>
    80002a20:	6798                	ld	a4,8(a5)
    80002a22:	04d70d63          	beq	a4,a3,80002a7c <default_free_pages+0xa4>
    80002a26:	87ba                	mv	a5,a4
    80002a28:	fe878713          	addi	a4,a5,-24
    80002a2c:	fee57ae3          	bgeu	a0,a4,80002a20 <default_free_pages+0x48>
    80002a30:	00088463          	beqz	a7,80002a38 <default_free_pages+0x60>
    80002a34:	0106b023          	sd	a6,0(a3)
    80002a38:	0007b803          	ld	a6,0(a5)
    80002a3c:	e390                	sd	a2,0(a5)
    80002a3e:	00c83423          	sd	a2,8(a6)
    80002a42:	f11c                	sd	a5,32(a0)
    80002a44:	01053c23          	sd	a6,24(a0)
    80002a48:	02d80163          	beq	a6,a3,80002a6a <default_free_pages+0x92>
    80002a4c:	ff883603          	ld	a2,-8(a6)
    80002a50:	fe880893          	addi	a7,a6,-24
    80002a54:	00261713          	slli	a4,a2,0x2
    80002a58:	9732                	add	a4,a4,a2
    80002a5a:	070e                	slli	a4,a4,0x3
    80002a5c:	9746                	add	a4,a4,a7
    80002a5e:	04e50263          	beq	a0,a4,80002aa2 <default_free_pages+0xca>
    80002a62:	00d78c63          	beq	a5,a3,80002a7a <default_free_pages+0xa2>
    80002a66:	fe878713          	addi	a4,a5,-24
    80002a6a:	6910                	ld	a2,16(a0)
    80002a6c:	00261693          	slli	a3,a2,0x2
    80002a70:	96b2                	add	a3,a3,a2
    80002a72:	068e                	slli	a3,a3,0x3
    80002a74:	96aa                	add	a3,a3,a0
    80002a76:	00d70d63          	beq	a4,a3,80002a90 <default_free_pages+0xb8>
    80002a7a:	8082                	ret
    80002a7c:	e790                	sd	a2,8(a5)
    80002a7e:	f114                	sd	a3,32(a0)
    80002a80:	6798                	ld	a4,8(a5)
    80002a82:	ed1c                	sd	a5,24(a0)
    80002a84:	8832                	mv	a6,a2
    80002a86:	02d70763          	beq	a4,a3,80002ab4 <default_free_pages+0xdc>
    80002a8a:	4885                	li	a7,1
    80002a8c:	87ba                	mv	a5,a4
    80002a8e:	bf69                	j	80002a28 <default_free_pages+0x50>
    80002a90:	ff87b703          	ld	a4,-8(a5)
    80002a94:	6394                	ld	a3,0(a5)
    80002a96:	679c                	ld	a5,8(a5)
    80002a98:	963a                	add	a2,a2,a4
    80002a9a:	e910                	sd	a2,16(a0)
    80002a9c:	e69c                	sd	a5,8(a3)
    80002a9e:	e394                	sd	a3,0(a5)
    80002aa0:	8082                	ret
    80002aa2:	95b2                	add	a1,a1,a2
    80002aa4:	feb83c23          	sd	a1,-8(a6)
    80002aa8:	00f83423          	sd	a5,8(a6)
    80002aac:	0107b023          	sd	a6,0(a5)
    80002ab0:	8546                	mv	a0,a7
    80002ab2:	bf45                	j	80002a62 <default_free_pages+0x8a>
    80002ab4:	883e                	mv	a6,a5
    80002ab6:	e290                	sd	a2,0(a3)
    80002ab8:	87b6                	mv	a5,a3
    80002aba:	bf49                	j	80002a4c <default_free_pages+0x74>
    80002abc:	e390                	sd	a2,0(a5)
    80002abe:	e790                	sd	a2,8(a5)
    80002ac0:	f11c                	sd	a5,32(a0)
    80002ac2:	ed1c                	sd	a5,24(a0)
    80002ac4:	8082                	ret

0000000080002ac6 <default_nr_free_pages>:
    80002ac6:	00016517          	auipc	a0,0x16
    80002aca:	7e256503          	lwu	a0,2018(a0) # 800192a8 <free_area+0x10>
    80002ace:	8082                	ret

0000000080002ad0 <basic_check>:
    80002ad0:	715d                	addi	sp,sp,-80
    80002ad2:	e0a2                	sd	s0,64(sp)
    80002ad4:	00016417          	auipc	s0,0x16
    80002ad8:	6ec40413          	addi	s0,s0,1772 # 800191c0 <pmm_manager>
    80002adc:	601c                	ld	a5,0(s0)
    80002ade:	e486                	sd	ra,72(sp)
    80002ae0:	fc26                	sd	s1,56(sp)
    80002ae2:	6f9c                	ld	a5,24(a5)
    80002ae4:	f84a                	sd	s2,48(sp)
    80002ae6:	f44e                	sd	s3,40(sp)
    80002ae8:	f052                	sd	s4,32(sp)
    80002aea:	ec56                	sd	s5,24(sp)
    80002aec:	e85a                	sd	s6,16(sp)
    80002aee:	e45e                	sd	s7,8(sp)
    80002af0:	4505                	li	a0,1
    80002af2:	9782                	jalr	a5
    80002af4:	1a050563          	beqz	a0,80002c9e <basic_check+0x1ce>
    80002af8:	601c                	ld	a5,0(s0)
    80002afa:	892a                	mv	s2,a0
    80002afc:	4505                	li	a0,1
    80002afe:	6f9c                	ld	a5,24(a5)
    80002b00:	9782                	jalr	a5
    80002b02:	89aa                	mv	s3,a0
    80002b04:	20050f63          	beqz	a0,80002d22 <basic_check+0x252>
    80002b08:	601c                	ld	a5,0(s0)
    80002b0a:	4505                	li	a0,1
    80002b0c:	6f9c                	ld	a5,24(a5)
    80002b0e:	9782                	jalr	a5
    80002b10:	8a2a                	mv	s4,a0
    80002b12:	14050563          	beqz	a0,80002c5c <basic_check+0x18c>
    80002b16:	11390463          	beq	s2,s3,80002c1e <basic_check+0x14e>
    80002b1a:	10a90263          	beq	s2,a0,80002c1e <basic_check+0x14e>
    80002b1e:	10a98063          	beq	s3,a0,80002c1e <basic_check+0x14e>
    80002b22:	00093783          	ld	a5,0(s2)
    80002b26:	12079063          	bnez	a5,80002c46 <basic_check+0x176>
    80002b2a:	0009b783          	ld	a5,0(s3)
    80002b2e:	10079c63          	bnez	a5,80002c46 <basic_check+0x176>
    80002b32:	611c                	ld	a5,0(a0)
    80002b34:	10079963          	bnez	a5,80002c46 <basic_check+0x176>
    80002b38:	601c                	ld	a5,0(s0)
    80002b3a:	00016497          	auipc	s1,0x16
    80002b3e:	75e48493          	addi	s1,s1,1886 # 80019298 <free_area>
    80002b42:	0004bb83          	ld	s7,0(s1)
    80002b46:	739c                	ld	a5,32(a5)
    80002b48:	0084bb03          	ld	s6,8(s1)
    80002b4c:	0104aa83          	lw	s5,16(s1)
    80002b50:	4585                	li	a1,1
    80002b52:	854a                	mv	a0,s2
    80002b54:	00016717          	auipc	a4,0x16
    80002b58:	74072a23          	sw	zero,1876(a4) # 800192a8 <free_area+0x10>
    80002b5c:	e484                	sd	s1,8(s1)
    80002b5e:	e084                	sd	s1,0(s1)
    80002b60:	9782                	jalr	a5
    80002b62:	601c                	ld	a5,0(s0)
    80002b64:	4585                	li	a1,1
    80002b66:	854e                	mv	a0,s3
    80002b68:	739c                	ld	a5,32(a5)
    80002b6a:	9782                	jalr	a5
    80002b6c:	601c                	ld	a5,0(s0)
    80002b6e:	4585                	li	a1,1
    80002b70:	8552                	mv	a0,s4
    80002b72:	739c                	ld	a5,32(a5)
    80002b74:	9782                	jalr	a5
    80002b76:	4898                	lw	a4,16(s1)
    80002b78:	478d                	li	a5,3
    80002b7a:	0ef71c63          	bne	a4,a5,80002c72 <basic_check+0x1a2>
    80002b7e:	601c                	ld	a5,0(s0)
    80002b80:	4505                	li	a0,1
    80002b82:	6f9c                	ld	a5,24(a5)
    80002b84:	9782                	jalr	a5
    80002b86:	892a                	mv	s2,a0
    80002b88:	1c050363          	beqz	a0,80002d4e <basic_check+0x27e>
    80002b8c:	601c                	ld	a5,0(s0)
    80002b8e:	4505                	li	a0,1
    80002b90:	6f9c                	ld	a5,24(a5)
    80002b92:	9782                	jalr	a5
    80002b94:	8a2a                	mv	s4,a0
    80002b96:	c96d                	beqz	a0,80002c88 <basic_check+0x1b8>
    80002b98:	601c                	ld	a5,0(s0)
    80002b9a:	4505                	li	a0,1
    80002b9c:	6f9c                	ld	a5,24(a5)
    80002b9e:	9782                	jalr	a5
    80002ba0:	89aa                	mv	s3,a0
    80002ba2:	18050b63          	beqz	a0,80002d38 <basic_check+0x268>
    80002ba6:	601c                	ld	a5,0(s0)
    80002ba8:	4505                	li	a0,1
    80002baa:	6f9c                	ld	a5,24(a5)
    80002bac:	9782                	jalr	a5
    80002bae:	10051e63          	bnez	a0,80002cca <basic_check+0x1fa>
    80002bb2:	601c                	ld	a5,0(s0)
    80002bb4:	4585                	li	a1,1
    80002bb6:	854a                	mv	a0,s2
    80002bb8:	739c                	ld	a5,32(a5)
    80002bba:	9782                	jalr	a5
    80002bbc:	649c                	ld	a5,8(s1)
    80002bbe:	12978c63          	beq	a5,s1,80002cf6 <basic_check+0x226>
    80002bc2:	601c                	ld	a5,0(s0)
    80002bc4:	4505                	li	a0,1
    80002bc6:	6f9c                	ld	a5,24(a5)
    80002bc8:	9782                	jalr	a5
    80002bca:	10a91b63          	bne	s2,a0,80002ce0 <basic_check+0x210>
    80002bce:	601c                	ld	a5,0(s0)
    80002bd0:	4505                	li	a0,1
    80002bd2:	6f9c                	ld	a5,24(a5)
    80002bd4:	9782                	jalr	a5
    80002bd6:	ed79                	bnez	a0,80002cb4 <basic_check+0x1e4>
    80002bd8:	489c                	lw	a5,16(s1)
    80002bda:	12079963          	bnez	a5,80002d0c <basic_check+0x23c>
    80002bde:	601c                	ld	a5,0(s0)
    80002be0:	854a                	mv	a0,s2
    80002be2:	0174b023          	sd	s7,0(s1)
    80002be6:	739c                	ld	a5,32(a5)
    80002be8:	0164b423          	sd	s6,8(s1)
    80002bec:	0154a823          	sw	s5,16(s1)
    80002bf0:	4585                	li	a1,1
    80002bf2:	9782                	jalr	a5
    80002bf4:	601c                	ld	a5,0(s0)
    80002bf6:	8552                	mv	a0,s4
    80002bf8:	4585                	li	a1,1
    80002bfa:	739c                	ld	a5,32(a5)
    80002bfc:	9782                	jalr	a5
    80002bfe:	601c                	ld	a5,0(s0)
    80002c00:	6406                	ld	s0,64(sp)
    80002c02:	60a6                	ld	ra,72(sp)
    80002c04:	74e2                	ld	s1,56(sp)
    80002c06:	7942                	ld	s2,48(sp)
    80002c08:	7a02                	ld	s4,32(sp)
    80002c0a:	6ae2                	ld	s5,24(sp)
    80002c0c:	6b42                	ld	s6,16(sp)
    80002c0e:	6ba2                	ld	s7,8(sp)
    80002c10:	0207b303          	ld	t1,32(a5)
    80002c14:	854e                	mv	a0,s3
    80002c16:	79a2                	ld	s3,40(sp)
    80002c18:	4585                	li	a1,1
    80002c1a:	6161                	addi	sp,sp,80
    80002c1c:	8302                	jr	t1
    80002c1e:	00005517          	auipc	a0,0x5
    80002c22:	4a250513          	addi	a0,a0,1186 # 800080c0 <illegal_insn_trap_table+0x184>
    80002c26:	00006697          	auipc	a3,0x6
    80002c2a:	8f268693          	addi	a3,a3,-1806 # 80008518 <illegal_insn_trap_table+0x5dc>
    80002c2e:	0a000613          	li	a2,160
    80002c32:	00006597          	auipc	a1,0x6
    80002c36:	89658593          	addi	a1,a1,-1898 # 800084c8 <illegal_insn_trap_table+0x58c>
    80002c3a:	7a9010ef          	jal	ra,80004be2 <printm>
    80002c3e:	6541                	lui	a0,0x10
    80002c40:	157d                	addi	a0,a0,-1
    80002c42:	010020ef          	jal	ra,80004c52 <poweroff>
    80002c46:	00005517          	auipc	a0,0x5
    80002c4a:	47a50513          	addi	a0,a0,1146 # 800080c0 <illegal_insn_trap_table+0x184>
    80002c4e:	00006697          	auipc	a3,0x6
    80002c52:	8f268693          	addi	a3,a3,-1806 # 80008540 <illegal_insn_trap_table+0x604>
    80002c56:	0a100613          	li	a2,161
    80002c5a:	bfe1                	j	80002c32 <basic_check+0x162>
    80002c5c:	00005517          	auipc	a0,0x5
    80002c60:	46450513          	addi	a0,a0,1124 # 800080c0 <illegal_insn_trap_table+0x184>
    80002c64:	00006697          	auipc	a3,0x6
    80002c68:	89468693          	addi	a3,a3,-1900 # 800084f8 <illegal_insn_trap_table+0x5bc>
    80002c6c:	09e00613          	li	a2,158
    80002c70:	b7c9                	j	80002c32 <basic_check+0x162>
    80002c72:	00005517          	auipc	a0,0x5
    80002c76:	44e50513          	addi	a0,a0,1102 # 800080c0 <illegal_insn_trap_table+0x184>
    80002c7a:	00006697          	auipc	a3,0x6
    80002c7e:	8f668693          	addi	a3,a3,-1802 # 80008570 <illegal_insn_trap_table+0x634>
    80002c82:	0ad00613          	li	a2,173
    80002c86:	b775                	j	80002c32 <basic_check+0x162>
    80002c88:	00005517          	auipc	a0,0x5
    80002c8c:	43850513          	addi	a0,a0,1080 # 800080c0 <illegal_insn_trap_table+0x184>
    80002c90:	00006697          	auipc	a3,0x6
    80002c94:	84868693          	addi	a3,a3,-1976 # 800084d8 <illegal_insn_trap_table+0x59c>
    80002c98:	0b000613          	li	a2,176
    80002c9c:	bf59                	j	80002c32 <basic_check+0x162>
    80002c9e:	00005517          	auipc	a0,0x5
    80002ca2:	42250513          	addi	a0,a0,1058 # 800080c0 <illegal_insn_trap_table+0x184>
    80002ca6:	00006697          	auipc	a3,0x6
    80002caa:	80268693          	addi	a3,a3,-2046 # 800084a8 <illegal_insn_trap_table+0x56c>
    80002cae:	09c00613          	li	a2,156
    80002cb2:	b741                	j	80002c32 <basic_check+0x162>
    80002cb4:	00005517          	auipc	a0,0x5
    80002cb8:	40c50513          	addi	a0,a0,1036 # 800080c0 <illegal_insn_trap_table+0x184>
    80002cbc:	00006697          	auipc	a3,0x6
    80002cc0:	8c468693          	addi	a3,a3,-1852 # 80008580 <illegal_insn_trap_table+0x644>
    80002cc4:	0ba00613          	li	a2,186
    80002cc8:	b7ad                	j	80002c32 <basic_check+0x162>
    80002cca:	00005517          	auipc	a0,0x5
    80002cce:	3f650513          	addi	a0,a0,1014 # 800080c0 <illegal_insn_trap_table+0x184>
    80002cd2:	00006697          	auipc	a3,0x6
    80002cd6:	8ae68693          	addi	a3,a3,-1874 # 80008580 <illegal_insn_trap_table+0x644>
    80002cda:	0b300613          	li	a2,179
    80002cde:	bf91                	j	80002c32 <basic_check+0x162>
    80002ce0:	00005517          	auipc	a0,0x5
    80002ce4:	3e050513          	addi	a0,a0,992 # 800080c0 <illegal_insn_trap_table+0x184>
    80002ce8:	00006697          	auipc	a3,0x6
    80002cec:	8c868693          	addi	a3,a3,-1848 # 800085b0 <illegal_insn_trap_table+0x674>
    80002cf0:	0b900613          	li	a2,185
    80002cf4:	bf3d                	j	80002c32 <basic_check+0x162>
    80002cf6:	00005517          	auipc	a0,0x5
    80002cfa:	3ca50513          	addi	a0,a0,970 # 800080c0 <illegal_insn_trap_table+0x184>
    80002cfe:	00006697          	auipc	a3,0x6
    80002d02:	89a68693          	addi	a3,a3,-1894 # 80008598 <illegal_insn_trap_table+0x65c>
    80002d06:	0b600613          	li	a2,182
    80002d0a:	b725                	j	80002c32 <basic_check+0x162>
    80002d0c:	00005517          	auipc	a0,0x5
    80002d10:	3b450513          	addi	a0,a0,948 # 800080c0 <illegal_insn_trap_table+0x184>
    80002d14:	00006697          	auipc	a3,0x6
    80002d18:	8bc68693          	addi	a3,a3,-1860 # 800085d0 <illegal_insn_trap_table+0x694>
    80002d1c:	0bc00613          	li	a2,188
    80002d20:	bf09                	j	80002c32 <basic_check+0x162>
    80002d22:	00005517          	auipc	a0,0x5
    80002d26:	39e50513          	addi	a0,a0,926 # 800080c0 <illegal_insn_trap_table+0x184>
    80002d2a:	00005697          	auipc	a3,0x5
    80002d2e:	7ae68693          	addi	a3,a3,1966 # 800084d8 <illegal_insn_trap_table+0x59c>
    80002d32:	09d00613          	li	a2,157
    80002d36:	bdf5                	j	80002c32 <basic_check+0x162>
    80002d38:	00005517          	auipc	a0,0x5
    80002d3c:	38850513          	addi	a0,a0,904 # 800080c0 <illegal_insn_trap_table+0x184>
    80002d40:	00005697          	auipc	a3,0x5
    80002d44:	7b868693          	addi	a3,a3,1976 # 800084f8 <illegal_insn_trap_table+0x5bc>
    80002d48:	0b100613          	li	a2,177
    80002d4c:	b5dd                	j	80002c32 <basic_check+0x162>
    80002d4e:	00005517          	auipc	a0,0x5
    80002d52:	37250513          	addi	a0,a0,882 # 800080c0 <illegal_insn_trap_table+0x184>
    80002d56:	00005697          	auipc	a3,0x5
    80002d5a:	75268693          	addi	a3,a3,1874 # 800084a8 <illegal_insn_trap_table+0x56c>
    80002d5e:	0af00613          	li	a2,175
    80002d62:	bdc1                	j	80002c32 <basic_check+0x162>

0000000080002d64 <default_init_memmap>:
    80002d64:	00259713          	slli	a4,a1,0x2
    80002d68:	972e                	add	a4,a4,a1
    80002d6a:	070e                	slli	a4,a4,0x3
    80002d6c:	972a                	add	a4,a4,a0
    80002d6e:	87aa                	mv	a5,a0
    80002d70:	00e50c63          	beq	a0,a4,80002d88 <default_init_memmap+0x24>
    80002d74:	0007b823          	sd	zero,16(a5)
    80002d78:	0007b423          	sd	zero,8(a5)
    80002d7c:	0007b023          	sd	zero,0(a5)
    80002d80:	02878793          	addi	a5,a5,40
    80002d84:	fee798e3          	bne	a5,a4,80002d74 <default_init_memmap+0x10>
    80002d88:	00016697          	auipc	a3,0x16
    80002d8c:	51068693          	addi	a3,a3,1296 # 80019298 <free_area>
    80002d90:	4a98                	lw	a4,16(a3)
    80002d92:	669c                	ld	a5,8(a3)
    80002d94:	e90c                	sd	a1,16(a0)
    80002d96:	9db9                	addw	a1,a1,a4
    80002d98:	ca8c                	sw	a1,16(a3)
    80002d9a:	01850613          	addi	a2,a0,24
    80002d9e:	04d78563          	beq	a5,a3,80002de8 <default_init_memmap+0x84>
    80002da2:	fe878713          	addi	a4,a5,-24
    80002da6:	628c                	ld	a1,0(a3)
    80002da8:	4801                	li	a6,0
    80002daa:	00e56a63          	bltu	a0,a4,80002dbe <default_init_memmap+0x5a>
    80002dae:	6798                	ld	a4,8(a5)
    80002db0:	02d70063          	beq	a4,a3,80002dd0 <default_init_memmap+0x6c>
    80002db4:	87ba                	mv	a5,a4
    80002db6:	fe878713          	addi	a4,a5,-24
    80002dba:	fee57ae3          	bgeu	a0,a4,80002dae <default_init_memmap+0x4a>
    80002dbe:	00080363          	beqz	a6,80002dc4 <default_init_memmap+0x60>
    80002dc2:	e28c                	sd	a1,0(a3)
    80002dc4:	6398                	ld	a4,0(a5)
    80002dc6:	e390                	sd	a2,0(a5)
    80002dc8:	e710                	sd	a2,8(a4)
    80002dca:	f11c                	sd	a5,32(a0)
    80002dcc:	ed18                	sd	a4,24(a0)
    80002dce:	8082                	ret
    80002dd0:	e790                	sd	a2,8(a5)
    80002dd2:	f114                	sd	a3,32(a0)
    80002dd4:	6798                	ld	a4,8(a5)
    80002dd6:	ed1c                	sd	a5,24(a0)
    80002dd8:	85b2                	mv	a1,a2
    80002dda:	00d70563          	beq	a4,a3,80002de4 <default_init_memmap+0x80>
    80002dde:	4805                	li	a6,1
    80002de0:	87ba                	mv	a5,a4
    80002de2:	bfd1                	j	80002db6 <default_init_memmap+0x52>
    80002de4:	e290                	sd	a2,0(a3)
    80002de6:	8082                	ret
    80002de8:	e390                	sd	a2,0(a5)
    80002dea:	e790                	sd	a2,8(a5)
    80002dec:	f11c                	sd	a5,32(a0)
    80002dee:	ed1c                	sd	a5,24(a0)
    80002df0:	8082                	ret

0000000080002df2 <pmm_init>:
    80002df2:	7179                	addi	sp,sp,-48
    80002df4:	f406                	sd	ra,40(sp)
    80002df6:	f022                	sd	s0,32(sp)
    80002df8:	ec26                	sd	s1,24(sp)
    80002dfa:	e84a                	sd	s2,16(sp)
    80002dfc:	e44e                	sd	s3,8(sp)
    80002dfe:	bb4fe0ef          	jal	ra,800011b2 <__page_alloc>
    80002e02:	00016997          	auipc	s3,0x16
    80002e06:	48e98993          	addi	s3,s3,1166 # 80019290 <first_free_paddr>
    80002e0a:	0009b783          	ld	a5,0(s3)
    80002e0e:	00016917          	auipc	s2,0x16
    80002e12:	46a90913          	addi	s2,s2,1130 # 80019278 <nbase>
    80002e16:	00016417          	auipc	s0,0x16
    80002e1a:	3aa40413          	addi	s0,s0,938 # 800191c0 <pmm_manager>
    80002e1e:	17fd                	addi	a5,a5,-1
    80002e20:	83b1                	srli	a5,a5,0xc
    80002e22:	0785                	addi	a5,a5,1
    80002e24:	07b2                	slli	a5,a5,0xc
    80002e26:	83b1                	srli	a5,a5,0xc
    80002e28:	00016497          	auipc	s1,0x16
    80002e2c:	48848493          	addi	s1,s1,1160 # 800192b0 <pages>
    80002e30:	00f93023          	sd	a5,0(s2)
    80002e34:	00004797          	auipc	a5,0x4
    80002e38:	7bc78793          	addi	a5,a5,1980 # 800075f0 <default_pmm_manager>
    80002e3c:	e088                	sd	a0,0(s1)
    80002e3e:	e01c                	sd	a5,0(s0)
    80002e40:	b17ff0ef          	jal	ra,80002956 <default_init>
    80002e44:	0009b783          	ld	a5,0(s3)
    80002e48:	00093503          	ld	a0,0(s2)
    80002e4c:	6014                	ld	a3,0(s0)
    80002e4e:	83b1                	srli	a5,a5,0xc
    80002e50:	8f89                	sub	a5,a5,a0
    80002e52:	00279713          	slli	a4,a5,0x2
    80002e56:	6088                	ld	a0,0(s1)
    80002e58:	97ba                	add	a5,a5,a4
    80002e5a:	6a98                	ld	a4,16(a3)
    80002e5c:	078e                	slli	a5,a5,0x3
    80002e5e:	00016597          	auipc	a1,0x16
    80002e62:	4825b583          	ld	a1,1154(a1) # 800192e0 <mem_size>
    80002e66:	953e                	add	a0,a0,a5
    80002e68:	81b1                	srli	a1,a1,0xc
    80002e6a:	9702                	jalr	a4
    80002e6c:	601c                	ld	a5,0(s0)
    80002e6e:	7b9c                	ld	a5,48(a5)
    80002e70:	9782                	jalr	a5
    80002e72:	70a2                	ld	ra,40(sp)
    80002e74:	7402                	ld	s0,32(sp)
    80002e76:	64e2                	ld	s1,24(sp)
    80002e78:	6942                	ld	s2,16(sp)
    80002e7a:	69a2                	ld	s3,8(sp)
    80002e7c:	4501                	li	a0,0
    80002e7e:	6145                	addi	sp,sp,48
    80002e80:	8082                	ret

0000000080002e82 <pk_default_pmm_alloc>:
    80002e82:	4501                	li	a0,0
    80002e84:	8082                	ret

0000000080002e86 <forkret>:
    80002e86:	00016517          	auipc	a0,0x16
    80002e8a:	1ca53503          	ld	a0,458(a0) # 80019050 <currentproc>
    80002e8e:	5110                	lw	a2,32(a0)
    80002e90:	6689                	lui	a3,0x2
    80002e92:	16f9                	addi	a3,a3,-2
    80002e94:	fff6059b          	addiw	a1,a2,-1
    80002e98:	0006071b          	sext.w	a4,a2
    80002e9c:	4781                	li	a5,0
    80002e9e:	02b6e963          	bltu	a3,a1,80002ed0 <forkret+0x4a>
    80002ea2:	9e3707b7          	lui	a5,0x9e370
    80002ea6:	2785                	addiw	a5,a5,1
    80002ea8:	02f7073b          	mulw	a4,a4,a5
    80002eac:	00009797          	auipc	a5,0x9
    80002eb0:	5a478793          	addi	a5,a5,1444 # 8000c450 <hash_list>
    80002eb4:	0167571b          	srliw	a4,a4,0x16
    80002eb8:	0712                	slli	a4,a4,0x4
    80002eba:	973e                	add	a4,a4,a5
    80002ebc:	87ba                	mv	a5,a4
    80002ebe:	a029                	j	80002ec8 <forkret+0x42>
    80002ec0:	f107a683          	lw	a3,-240(a5)
    80002ec4:	02c68d63          	beq	a3,a2,80002efe <forkret+0x78>
    80002ec8:	679c                	ld	a5,8(a5)
    80002eca:	fef71be3          	bne	a4,a5,80002ec0 <forkret+0x3a>
    80002ece:	4781                	li	a5,0
    80002ed0:	7fdc                	ld	a5,184(a5)
    80002ed2:	14079073          	csrw	sscratch,a5
    80002ed6:	000467b7          	lui	a5,0x46
    80002eda:	1007a7f3          	csrrs	a5,sstatus,a5
    80002ede:	100027f3          	csrr	a5,sstatus
    80002ee2:	616c                	ld	a1,192(a0)
    80002ee4:	7d48                	ld	a0,184(a0)
    80002ee6:	edd7f793          	andi	a5,a5,-291
    80002eea:	0207e793          	ori	a5,a5,32
    80002eee:	10f53023          	sd	a5,256(a0)
    80002ef2:	57fd                	li	a5,-1
    80002ef4:	81b1                	srli	a1,a1,0xc
    80002ef6:	17fe                	slli	a5,a5,0x3f
    80002ef8:	8ddd                	or	a1,a1,a5
    80002efa:	a45ff06f          	j	8000293e <forkrets>
    80002efe:	ef078793          	addi	a5,a5,-272 # 45ef0 <_ftext-0x7ffba110>
    80002f02:	b7f9                	j	80002ed0 <forkret+0x4a>

0000000080002f04 <hash32>:
    80002f04:	9e3707b7          	lui	a5,0x9e370
    80002f08:	2785                	addiw	a5,a5,1
    80002f0a:	02a7853b          	mulw	a0,a5,a0
    80002f0e:	02000793          	li	a5,32
    80002f12:	9f8d                	subw	a5,a5,a1
    80002f14:	00f5553b          	srlw	a0,a0,a5
    80002f18:	8082                	ret

0000000080002f1a <proc_pagetable>:
    80002f1a:	1101                	addi	sp,sp,-32
    80002f1c:	ec06                	sd	ra,24(sp)
    80002f1e:	e822                	sd	s0,16(sp)
    80002f20:	e426                	sd	s1,8(sp)
    80002f22:	e04a                	sd	s2,0(sp)
    80002f24:	a8efe0ef          	jal	ra,800011b2 <__page_alloc>
    80002f28:	842a                	mv	s0,a0
    80002f2a:	a88fe0ef          	jal	ra,800011b2 <__page_alloc>
    80002f2e:	4585                	li	a1,1
    80002f30:	05fe                	slli	a1,a1,0x1f
    80002f32:	00016797          	auipc	a5,0x16
    80002f36:	35e7b783          	ld	a5,862(a5) # 80019290 <first_free_paddr>
    80002f3a:	80000637          	lui	a2,0x80000
    80002f3e:	8722                	mv	a4,s0
    80002f40:	963e                	add	a2,a2,a5
    80002f42:	892a                	mv	s2,a0
    80002f44:	4695                	li	a3,5
    80002f46:	852e                	mv	a0,a1
    80002f48:	8e6ff0ef          	jal	ra,8000202e <__map_kernel_range_pgtbl>
    80002f4c:	00016797          	auipc	a5,0x16
    80002f50:	2d47b783          	ld	a5,724(a5) # 80019220 <current+0x50>
    80002f54:	4585                	li	a1,1
    80002f56:	451d                	li	a0,7
    80002f58:	74fd                	lui	s1,0xfffff
    80002f5a:	94be                	add	s1,s1,a5
    80002f5c:	ccafe0ef          	jal	ra,80001426 <prot_to_type>
    80002f60:	0005071b          	sext.w	a4,a0
    80002f64:	86ca                	mv	a3,s2
    80002f66:	85a6                	mv	a1,s1
    80002f68:	8522                	mv	a0,s0
    80002f6a:	6605                	lui	a2,0x1
    80002f6c:	9ceff0ef          	jal	ra,8000213a <mappages>
    80002f70:	60e2                	ld	ra,24(sp)
    80002f72:	8522                	mv	a0,s0
    80002f74:	6442                	ld	s0,16(sp)
    80002f76:	64a2                	ld	s1,8(sp)
    80002f78:	6902                	ld	s2,0(sp)
    80002f7a:	6105                	addi	sp,sp,32
    80002f7c:	8082                	ret

0000000080002f7e <alloc_proc>:
    80002f7e:	1141                	addi	sp,sp,-16
    80002f80:	e022                	sd	s0,0(sp)
    80002f82:	e406                	sd	ra,8(sp)
    80002f84:	a2efe0ef          	jal	ra,800011b2 <__page_alloc>
    80002f88:	842a                	mv	s0,a0
    80002f8a:	e511                	bnez	a0,80002f96 <alloc_proc+0x18>
    80002f8c:	60a2                	ld	ra,8(sp)
    80002f8e:	8522                	mv	a0,s0
    80002f90:	6402                	ld	s0,0(sp)
    80002f92:	0141                	addi	sp,sp,16
    80002f94:	8082                	ret
    80002f96:	57fd                	li	a5,-1
    80002f98:	9381                	srli	a5,a5,0x20
    80002f9a:	f11c                	sd	a5,32(a0)
    80002f9c:	07000613          	li	a2,112
    80002fa0:	4581                	li	a1,0
    80002fa2:	00052e23          	sw	zero,28(a0)
    80002fa6:	02053823          	sd	zero,48(a0)
    80002faa:	02052c23          	sw	zero,56(a0)
    80002fae:	04053023          	sd	zero,64(a0)
    80002fb2:	04850513          	addi	a0,a0,72
    80002fb6:	438040ef          	jal	ra,800073ee <memset>
    80002fba:	0a043c23          	sd	zero,184(s0)
    80002fbe:	f5dff0ef          	jal	ra,80002f1a <proc_pagetable>
    80002fc2:	0c040623          	sb	zero,204(s0)
    80002fc6:	0c0406a3          	sb	zero,205(s0)
    80002fca:	0c040723          	sb	zero,206(s0)
    80002fce:	0c0407a3          	sb	zero,207(s0)
    80002fd2:	0c040823          	sb	zero,208(s0)
    80002fd6:	0c0408a3          	sb	zero,209(s0)
    80002fda:	0c040923          	sb	zero,210(s0)
    80002fde:	0c0409a3          	sb	zero,211(s0)
    80002fe2:	0c040a23          	sb	zero,212(s0)
    80002fe6:	0c040aa3          	sb	zero,213(s0)
    80002fea:	0c040b23          	sb	zero,214(s0)
    80002fee:	0c040ba3          	sb	zero,215(s0)
    80002ff2:	0c040c23          	sb	zero,216(s0)
    80002ff6:	0c040ca3          	sb	zero,217(s0)
    80002ffa:	0c040d23          	sb	zero,218(s0)
    80002ffe:	e068                	sd	a0,192(s0)
    80003000:	60a2                	ld	ra,8(sp)
    80003002:	0c042423          	sw	zero,200(s0)
    80003006:	0e042823          	sw	zero,240(s0)
    8000300a:	10043023          	sd	zero,256(s0)
    8000300e:	10043423          	sd	zero,264(s0)
    80003012:	0e043c23          	sd	zero,248(s0)
    80003016:	00043823          	sd	zero,16(s0)
    8000301a:	e400                	sd	s0,8(s0)
    8000301c:	e000                	sd	s0,0(s0)
    8000301e:	00042c23          	sw	zero,24(s0)
    80003022:	8522                	mv	a0,s0
    80003024:	6402                	ld	s0,0(sp)
    80003026:	0141                	addi	sp,sp,16
    80003028:	8082                	ret

000000008000302a <set_proc_name>:
    8000302a:	1141                	addi	sp,sp,-16
    8000302c:	0cc50793          	addi	a5,a0,204
    80003030:	e022                	sd	s0,0(sp)
    80003032:	4641                	li	a2,16
    80003034:	842e                	mv	s0,a1
    80003036:	853e                	mv	a0,a5
    80003038:	4581                	li	a1,0
    8000303a:	e406                	sd	ra,8(sp)
    8000303c:	3b2040ef          	jal	ra,800073ee <memset>
    80003040:	85a2                	mv	a1,s0
    80003042:	6402                	ld	s0,0(sp)
    80003044:	60a2                	ld	ra,8(sp)
    80003046:	463d                	li	a2,15
    80003048:	0141                	addi	sp,sp,16
    8000304a:	3540406f          	j	8000739e <memcpy>

000000008000304e <get_proc_name>:
    8000304e:	00009797          	auipc	a5,0x9
    80003052:	3f278793          	addi	a5,a5,1010 # 8000c440 <name.3572>
    80003056:	0cc50593          	addi	a1,a0,204
    8000305a:	463d                	li	a2,15
    8000305c:	853e                	mv	a0,a5
    8000305e:	000787a3          	sb	zero,15(a5)
    80003062:	33c0406f          	j	8000739e <memcpy>

0000000080003066 <proc_run>:
    80003066:	00016717          	auipc	a4,0x16
    8000306a:	fea70713          	addi	a4,a4,-22 # 80019050 <currentproc>
    8000306e:	6314                	ld	a3,0(a4)
    80003070:	87aa                	mv	a5,a0
    80003072:	00a68963          	beq	a3,a0,80003084 <proc_run+0x1e>
    80003076:	04850593          	addi	a1,a0,72
    8000307a:	04868513          	addi	a0,a3,72 # 2048 <_ftext-0x7fffdfb8>
    8000307e:	e31c                	sd	a5,0(a4)
    80003080:	2090006f          	j	80003a88 <switch_to>
    80003084:	8082                	ret

0000000080003086 <find_proc>:
    80003086:	6709                	lui	a4,0x2
    80003088:	fff5069b          	addiw	a3,a0,-1
    8000308c:	1779                	addi	a4,a4,-2
    8000308e:	0005079b          	sext.w	a5,a0
    80003092:	02d76863          	bltu	a4,a3,800030c2 <find_proc+0x3c>
    80003096:	9e370737          	lui	a4,0x9e370
    8000309a:	2705                	addiw	a4,a4,1
    8000309c:	02e7873b          	mulw	a4,a5,a4
    800030a0:	00009797          	auipc	a5,0x9
    800030a4:	3b078793          	addi	a5,a5,944 # 8000c450 <hash_list>
    800030a8:	0167571b          	srliw	a4,a4,0x16
    800030ac:	0712                	slli	a4,a4,0x4
    800030ae:	973e                	add	a4,a4,a5
    800030b0:	87ba                	mv	a5,a4
    800030b2:	a029                	j	800030bc <find_proc+0x36>
    800030b4:	f107a683          	lw	a3,-240(a5)
    800030b8:	00a68763          	beq	a3,a0,800030c6 <find_proc+0x40>
    800030bc:	679c                	ld	a5,8(a5)
    800030be:	fef71be3          	bne	a4,a5,800030b4 <find_proc+0x2e>
    800030c2:	4501                	li	a0,0
    800030c4:	8082                	ret
    800030c6:	ef078513          	addi	a0,a5,-272
    800030ca:	8082                	ret

00000000800030cc <do_fork>:
    800030cc:	7139                	addi	sp,sp,-64
    800030ce:	e852                	sd	s4,16(sp)
    800030d0:	fc06                	sd	ra,56(sp)
    800030d2:	f822                	sd	s0,48(sp)
    800030d4:	f426                	sd	s1,40(sp)
    800030d6:	f04a                	sd	s2,32(sp)
    800030d8:	ec4e                	sd	s3,24(sp)
    800030da:	e456                	sd	s5,8(sp)
    800030dc:	00016797          	auipc	a5,0x16
    800030e0:	f6c7a783          	lw	a5,-148(a5) # 80019048 <nr_process>
    800030e4:	6a05                	lui	s4,0x1
    800030e6:	1f47d663          	bge	a5,s4,800032d2 <do_fork+0x206>
    800030ea:	84ae                	mv	s1,a1
    800030ec:	89b2                	mv	s3,a2
    800030ee:	e91ff0ef          	jal	ra,80002f7e <alloc_proc>
    800030f2:	842a                	mv	s0,a0
    800030f4:	1e050363          	beqz	a0,800032da <do_fork+0x20e>
    800030f8:	00016797          	auipc	a5,0x16
    800030fc:	f587b783          	ld	a5,-168(a5) # 80019050 <currentproc>
    80003100:	0f07a703          	lw	a4,240(a5)
    80003104:	e13c                	sd	a5,64(a0)
    80003106:	1e071263          	bnez	a4,800032ea <do_fork+0x21e>
    8000310a:	8a8fe0ef          	jal	ra,800011b2 <__page_alloc>
    8000310e:	0c043a83          	ld	s5,192(s0)
    80003112:	892a                	mv	s2,a0
    80003114:	4581                	li	a1,0
    80003116:	f808                	sd	a0,48(s0)
    80003118:	451d                	li	a0,7
    8000311a:	b0cfe0ef          	jal	ra,80001426 <prot_to_type>
    8000311e:	0005071b          	sext.w	a4,a0
    80003122:	86ca                	mv	a3,s2
    80003124:	6605                	lui	a2,0x1
    80003126:	85ca                	mv	a1,s2
    80003128:	8556                	mv	a0,s5
    8000312a:	810ff0ef          	jal	ra,8000213a <mappages>
    8000312e:	1a054863          	bltz	a0,800032de <do_fork+0x212>
    80003132:	603c                	ld	a5,64(s0)
    80003134:	606c                	ld	a1,192(s0)
    80003136:	63e8                	ld	a0,192(a5)
    80003138:	866ff0ef          	jal	ra,8000219e <vmcopy>
    8000313c:	7808                	ld	a0,48(s0)
    8000313e:	ed0a0793          	addi	a5,s4,-304 # ed0 <_ftext-0x7ffff130>
    80003142:	864e                	mv	a2,s3
    80003144:	97aa                	add	a5,a5,a0
    80003146:	fc5c                	sd	a5,184(s0)
    80003148:	873e                	mv	a4,a5
    8000314a:	12098313          	addi	t1,s3,288
    8000314e:	00063883          	ld	a7,0(a2) # 1000 <_ftext-0x7ffff000>
    80003152:	00863803          	ld	a6,8(a2)
    80003156:	6a0c                	ld	a1,16(a2)
    80003158:	6e14                	ld	a3,24(a2)
    8000315a:	01173023          	sd	a7,0(a4) # ffffffff9e370000 <_end+0xffffffff1e356000>
    8000315e:	01073423          	sd	a6,8(a4)
    80003162:	eb0c                	sd	a1,16(a4)
    80003164:	ef14                	sd	a3,24(a4)
    80003166:	02060613          	addi	a2,a2,32
    8000316a:	02070713          	addi	a4,a4,32
    8000316e:	fe6610e3          	bne	a2,t1,8000314e <do_fork+0x82>
    80003172:	620c                	ld	a1,0(a2)
    80003174:	6610                	ld	a2,8(a2)
    80003176:	00016697          	auipc	a3,0x16
    8000317a:	1826b683          	ld	a3,386(a3) # 800192f8 <root_page_table>
    8000317e:	e30c                	sd	a1,0(a4)
    80003180:	e710                	sd	a2,8(a4)
    80003182:	577d                	li	a4,-1
    80003184:	82b1                	srli	a3,a3,0xc
    80003186:	177e                	slli	a4,a4,0x3f
    80003188:	8f55                	or	a4,a4,a3
    8000318a:	12e7b423          	sd	a4,296(a5)
    8000318e:	0407b823          	sd	zero,80(a5)
    80003192:	85a6                	mv	a1,s1
    80003194:	0e048e63          	beqz	s1,80003290 <do_fork+0x1c4>
    80003198:	eb8c                	sd	a1,16(a5)
    8000319a:	00000717          	auipc	a4,0x0
    8000319e:	cec70713          	addi	a4,a4,-788 # 80002e86 <forkret>
    800031a2:	e438                	sd	a4,72(s0)
    800031a4:	e83c                	sd	a5,80(s0)
    800031a6:	100027f3          	csrr	a5,sstatus
    800031aa:	8b89                	andi	a5,a5,2
    800031ac:	4f01                	li	t5,0
    800031ae:	10079163          	bnez	a5,800032b0 <do_fork+0x1e4>
    800031b2:	00008517          	auipc	a0,0x8
    800031b6:	31250513          	addi	a0,a0,786 # 8000b4c4 <last_pid.3580>
    800031ba:	411c                	lw	a5,0(a0)
    800031bc:	6689                	lui	a3,0x2
    800031be:	0017871b          	addiw	a4,a5,1
    800031c2:	c118                	sw	a4,0(a0)
    800031c4:	06d75063          	bge	a4,a3,80003224 <do_fork+0x158>
    800031c8:	00008317          	auipc	t1,0x8
    800031cc:	2f830313          	addi	t1,t1,760 # 8000b4c0 <next_safe.3579>
    800031d0:	00032783          	lw	a5,0(t1)
    800031d4:	04f75f63          	bge	a4,a5,80003232 <do_fork+0x166>
    800031d8:	9e3707b7          	lui	a5,0x9e370
    800031dc:	2785                	addiw	a5,a5,1
    800031de:	02f707bb          	mulw	a5,a4,a5
    800031e2:	00009697          	auipc	a3,0x9
    800031e6:	26e68693          	addi	a3,a3,622 # 8000c450 <hash_list>
    800031ea:	d018                	sw	a4,32(s0)
    800031ec:	11040713          	addi	a4,s0,272
    800031f0:	0167d79b          	srliw	a5,a5,0x16
    800031f4:	0792                	slli	a5,a5,0x4
    800031f6:	97b6                	add	a5,a5,a3
    800031f8:	6794                	ld	a3,8(a5)
    800031fa:	e298                	sd	a4,0(a3)
    800031fc:	e798                	sd	a4,8(a5)
    800031fe:	10d43c23          	sd	a3,280(s0)
    80003202:	10f43823          	sd	a5,272(s0)
    80003206:	0a0f1963          	bnez	t5,800032b8 <do_fork+0x1ec>
    8000320a:	8522                	mv	a0,s0
    8000320c:	5be000ef          	jal	ra,800037ca <wakeup_proc>
    80003210:	5008                	lw	a0,32(s0)
    80003212:	70e2                	ld	ra,56(sp)
    80003214:	7442                	ld	s0,48(sp)
    80003216:	74a2                	ld	s1,40(sp)
    80003218:	7902                	ld	s2,32(sp)
    8000321a:	69e2                	ld	s3,24(sp)
    8000321c:	6a42                	ld	s4,16(sp)
    8000321e:	6aa2                	ld	s5,8(sp)
    80003220:	6121                	addi	sp,sp,64
    80003222:	8082                	ret
    80003224:	4785                	li	a5,1
    80003226:	c11c                	sw	a5,0(a0)
    80003228:	4705                	li	a4,1
    8000322a:	00008317          	auipc	t1,0x8
    8000322e:	29630313          	addi	t1,t1,662 # 8000b4c0 <next_safe.3579>
    80003232:	00016897          	auipc	a7,0x16
    80003236:	08688893          	addi	a7,a7,134 # 800192b8 <proc_list>
    8000323a:	0088be03          	ld	t3,8(a7)
    8000323e:	6789                	lui	a5,0x2
    80003240:	00f32023          	sw	a5,0(t1)
    80003244:	4801                	li	a6,0
    80003246:	87ba                	mv	a5,a4
    80003248:	6f89                	lui	t6,0x2
    8000324a:	071e0f63          	beq	t3,a7,800032c8 <do_fork+0x1fc>
    8000324e:	8ec2                	mv	t4,a6
    80003250:	8672                	mv	a2,t3
    80003252:	6589                	lui	a1,0x2
    80003254:	a811                	j	80003268 <do_fork+0x19c>
    80003256:	00d7d663          	bge	a5,a3,80003262 <do_fork+0x196>
    8000325a:	00b6d463          	bge	a3,a1,80003262 <do_fork+0x196>
    8000325e:	85b6                	mv	a1,a3
    80003260:	4e85                	li	t4,1
    80003262:	6610                	ld	a2,8(a2)
    80003264:	01160d63          	beq	a2,a7,8000327e <do_fork+0x1b2>
    80003268:	f4062683          	lw	a3,-192(a2)
    8000326c:	fed795e3          	bne	a5,a3,80003256 <do_fork+0x18a>
    80003270:	2785                	addiw	a5,a5,1
    80003272:	04b7d663          	bge	a5,a1,800032be <do_fork+0x1f2>
    80003276:	6610                	ld	a2,8(a2)
    80003278:	4805                	li	a6,1
    8000327a:	ff1617e3          	bne	a2,a7,80003268 <do_fork+0x19c>
    8000327e:	00080463          	beqz	a6,80003286 <do_fork+0x1ba>
    80003282:	c11c                	sw	a5,0(a0)
    80003284:	873e                	mv	a4,a5
    80003286:	f40e89e3          	beqz	t4,800031d8 <do_fork+0x10c>
    8000328a:	00b32023          	sw	a1,0(t1)
    8000328e:	b7a9                	j	800031d8 <do_fork+0x10c>
    80003290:	6585                	lui	a1,0x1
    80003292:	ecc58593          	addi	a1,a1,-308 # ecc <_ftext-0x7ffff134>
    80003296:	95aa                	add	a1,a1,a0
    80003298:	eb8c                	sd	a1,16(a5)
    8000329a:	00000717          	auipc	a4,0x0
    8000329e:	bec70713          	addi	a4,a4,-1044 # 80002e86 <forkret>
    800032a2:	e438                	sd	a4,72(s0)
    800032a4:	e83c                	sd	a5,80(s0)
    800032a6:	100027f3          	csrr	a5,sstatus
    800032aa:	8b89                	andi	a5,a5,2
    800032ac:	4f01                	li	t5,0
    800032ae:	d391                	beqz	a5,800031b2 <do_fork+0xe6>
    800032b0:	049000ef          	jal	ra,80003af8 <intr_disable>
    800032b4:	4f05                	li	t5,1
    800032b6:	bdf5                	j	800031b2 <do_fork+0xe6>
    800032b8:	03b000ef          	jal	ra,80003af2 <intr_enable>
    800032bc:	b7b9                	j	8000320a <do_fork+0x13e>
    800032be:	01f7c363          	blt	a5,t6,800032c4 <do_fork+0x1f8>
    800032c2:	4785                	li	a5,1
    800032c4:	4805                	li	a6,1
    800032c6:	b751                	j	8000324a <do_fork+0x17e>
    800032c8:	00080763          	beqz	a6,800032d6 <do_fork+0x20a>
    800032cc:	c11c                	sw	a5,0(a0)
    800032ce:	873e                	mv	a4,a5
    800032d0:	b721                	j	800031d8 <do_fork+0x10c>
    800032d2:	556d                	li	a0,-5
    800032d4:	bf3d                	j	80003212 <do_fork+0x146>
    800032d6:	4118                	lw	a4,0(a0)
    800032d8:	b701                	j	800031d8 <do_fork+0x10c>
    800032da:	5571                	li	a0,-4
    800032dc:	bf1d                	j	80003212 <do_fork+0x146>
    800032de:	00005517          	auipc	a0,0x5
    800032e2:	34a50513          	addi	a0,a0,842 # 80008628 <illegal_insn_trap_table+0x6ec>
    800032e6:	e95fd0ef          	jal	ra,8000117a <do_panic>
    800032ea:	00005517          	auipc	a0,0x5
    800032ee:	dd650513          	addi	a0,a0,-554 # 800080c0 <illegal_insn_trap_table+0x184>
    800032f2:	00005697          	auipc	a3,0x5
    800032f6:	30668693          	addi	a3,a3,774 # 800085f8 <illegal_insn_trap_table+0x6bc>
    800032fa:	15800613          	li	a2,344
    800032fe:	00005597          	auipc	a1,0x5
    80003302:	31a58593          	addi	a1,a1,794 # 80008618 <illegal_insn_trap_table+0x6dc>
    80003306:	0dd010ef          	jal	ra,80004be2 <printm>
    8000330a:	6541                	lui	a0,0x10
    8000330c:	157d                	addi	a0,a0,-1
    8000330e:	145010ef          	jal	ra,80004c52 <poweroff>

0000000080003312 <kernel_thread>:
    80003312:	714d                	addi	sp,sp,-336
    80003314:	e2a2                	sd	s0,320(sp)
    80003316:	fe26                	sd	s1,312(sp)
    80003318:	fa4a                	sd	s2,304(sp)
    8000331a:	84ae                	mv	s1,a1
    8000331c:	892a                	mv	s2,a0
    8000331e:	8432                	mv	s0,a2
    80003320:	4581                	li	a1,0
    80003322:	13000613          	li	a2,304
    80003326:	850a                	mv	a0,sp
    80003328:	e686                	sd	ra,328(sp)
    8000332a:	0c4040ef          	jal	ra,800073ee <memset>
    8000332e:	e0ca                	sd	s2,64(sp)
    80003330:	e4a6                	sd	s1,72(sp)
    80003332:	100027f3          	csrr	a5,sstatus
    80003336:	edd7f793          	andi	a5,a5,-291
    8000333a:	1207e793          	ori	a5,a5,288
    8000333e:	e23e                	sd	a5,256(sp)
    80003340:	860a                	mv	a2,sp
    80003342:	10046513          	ori	a0,s0,256
    80003346:	00000797          	auipc	a5,0x0
    8000334a:	73a78793          	addi	a5,a5,1850 # 80003a80 <kernel_thread_entry>
    8000334e:	4581                	li	a1,0
    80003350:	e63e                	sd	a5,264(sp)
    80003352:	d7bff0ef          	jal	ra,800030cc <do_fork>
    80003356:	60b6                	ld	ra,328(sp)
    80003358:	6416                	ld	s0,320(sp)
    8000335a:	74f2                	ld	s1,312(sp)
    8000335c:	7952                	ld	s2,304(sp)
    8000335e:	6171                	addi	sp,sp,336
    80003360:	8082                	ret

0000000080003362 <proc_init>:
    80003362:	1141                	addi	sp,sp,-16
    80003364:	00016797          	auipc	a5,0x16
    80003368:	f5478793          	addi	a5,a5,-172 # 800192b8 <proc_list>
    8000336c:	e406                	sd	ra,8(sp)
    8000336e:	e022                	sd	s0,0(sp)
    80003370:	e79c                	sd	a5,8(a5)
    80003372:	e39c                	sd	a5,0(a5)
    80003374:	0000d717          	auipc	a4,0xd
    80003378:	0dc70713          	addi	a4,a4,220 # 80010450 <timer_list>
    8000337c:	00009797          	auipc	a5,0x9
    80003380:	0d478793          	addi	a5,a5,212 # 8000c450 <hash_list>
    80003384:	e79c                	sd	a5,8(a5)
    80003386:	e39c                	sd	a5,0(a5)
    80003388:	07c1                	addi	a5,a5,16
    8000338a:	fee79de3          	bne	a5,a4,80003384 <proc_init+0x22>
    8000338e:	bf1ff0ef          	jal	ra,80002f7e <alloc_proc>
    80003392:	00016417          	auipc	s0,0x16
    80003396:	cce40413          	addi	s0,s0,-818 # 80019060 <idleproc>
    8000339a:	e008                	sd	a0,0(s0)
    8000339c:	c939                	beqz	a0,800033f2 <proc_init+0x90>
    8000339e:	4709                	li	a4,2
    800033a0:	cd58                	sw	a4,28(a0)
    800033a2:	00016717          	auipc	a4,0x16
    800033a6:	ee673703          	ld	a4,-282(a4) # 80019288 <kernel_stack_top>
    800033aa:	f918                	sd	a4,48(a0)
    800033ac:	4705                	li	a4,1
    800033ae:	dd18                	sw	a4,56(a0)
    800033b0:	02052023          	sw	zero,32(a0) # 10020 <_ftext-0x7ffeffe0>
    800033b4:	00005597          	auipc	a1,0x5
    800033b8:	2ac58593          	addi	a1,a1,684 # 80008660 <illegal_insn_trap_table+0x724>
    800033bc:	c6fff0ef          	jal	ra,8000302a <set_proc_name>
    800033c0:	00016697          	auipc	a3,0x16
    800033c4:	c8868693          	addi	a3,a3,-888 # 80019048 <nr_process>
    800033c8:	429c                	lw	a5,0(a3)
    800033ca:	6018                	ld	a4,0(s0)
    800033cc:	6402                	ld	s0,0(sp)
    800033ce:	2785                	addiw	a5,a5,1
    800033d0:	60a2                	ld	ra,8(sp)
    800033d2:	c29c                	sw	a5,0(a3)
    800033d4:	00016797          	auipc	a5,0x16
    800033d8:	c6e7be23          	sd	a4,-900(a5) # 80019050 <currentproc>
    800033dc:	00016797          	auipc	a5,0x16
    800033e0:	c6e7be23          	sd	a4,-900(a5) # 80019058 <initproc>
    800033e4:	00005517          	auipc	a0,0x5
    800033e8:	28450513          	addi	a0,a0,644 # 80008668 <illegal_insn_trap_table+0x72c>
    800033ec:	0141                	addi	sp,sp,16
    800033ee:	cbdfd06f          	j	800010aa <printk>
    800033f2:	00005517          	auipc	a0,0x5
    800033f6:	24e50513          	addi	a0,a0,590 # 80008640 <illegal_insn_trap_table+0x704>
    800033fa:	d81fd0ef          	jal	ra,8000117a <do_panic>

00000000800033fe <cpu_idle>:
    800033fe:	1141                	addi	sp,sp,-16
    80003400:	e022                	sd	s0,0(sp)
    80003402:	e406                	sd	ra,8(sp)
    80003404:	00016417          	auipc	s0,0x16
    80003408:	c4c40413          	addi	s0,s0,-948 # 80019050 <currentproc>
    8000340c:	6018                	ld	a4,0(s0)
    8000340e:	5f1c                	lw	a5,56(a4)
    80003410:	2781                	sext.w	a5,a5
    80003412:	dff5                	beqz	a5,8000340e <cpu_idle+0x10>
    80003414:	5b0000ef          	jal	ra,800039c4 <schedule>
    80003418:	bfd5                	j	8000340c <cpu_idle+0xe>

000000008000341a <do_wait>:
    8000341a:	715d                	addi	sp,sp,-80
    8000341c:	fc26                	sd	s1,56(sp)
    8000341e:	9e3704b7          	lui	s1,0x9e370
    80003422:	2485                	addiw	s1,s1,1
    80003424:	02a484bb          	mulw	s1,s1,a0
    80003428:	f84a                	sd	s2,48(sp)
    8000342a:	f44e                	sd	s3,40(sp)
    8000342c:	f052                	sd	s4,32(sp)
    8000342e:	ec56                	sd	s5,24(sp)
    80003430:	e85a                	sd	s6,16(sp)
    80003432:	e45e                	sd	s7,8(sp)
    80003434:	e062                	sd	s8,0(sp)
    80003436:	6a89                	lui	s5,0x2
    80003438:	80000937          	lui	s2,0x80000
    8000343c:	0164d49b          	srliw	s1,s1,0x16
    80003440:	0492                	slli	s1,s1,0x4
    80003442:	00009797          	auipc	a5,0x9
    80003446:	00e78793          	addi	a5,a5,14 # 8000c450 <hash_list>
    8000344a:	e486                	sd	ra,72(sp)
    8000344c:	e0a2                	sd	s0,64(sp)
